BL51 BANKED LINKER/LOCATER V6.22.2.0                                                    04/12/2021  16:41:58  PAGE 1


BL51 BANKED LINKER/LOCATER V6.22.2.0, INVOKED BY:
C:\KEIL_V5\C51\BIN\BL51.EXE .\Output\STARTUP.obj, .\Output\CPU.obj, .\Output\etc_eep.obj, .\Output\HS_DVRProtocol.obj, .
>> \Output\i2c.obj, .\Output\keyremo.obj, .\Output\main.obj, .\Output\monitor.obj, .\Output\Printf.obj, .\Output\SysPowe
>> r.obj, .\Output\SysTimer.obj TO .\Output\ml070i_MRMCU PRINT (.\Listings\ml070i_MRMCU.m51) RAMSIZE (256)


MEMORY MODEL: LARGE WITH FLOATING POINT ARITHMETIC


INPUT MODULES INCLUDED:
  .\Output\STARTUP.obj (?C_STARTUP)
  .\Output\CPU.obj (CPU)
  .\Output\etc_eep.obj (ETC_EEP)
  .\Output\HS_DVRProtocol.obj (HS_DVRPROTOCOL)
  .\Output\i2c.obj (I2C)
  .\Output\keyremo.obj (KEYREMO)
  .\Output\main.obj (MAIN)
  .\Output\monitor.obj (MONITOR)
  .\Output\Printf.obj (PRINTF)
  .\Output\SysPower.obj (SYSPOWER)
  .\Output\SysTimer.obj (SYSTIMER)
  C:\KEIL_V5\C51\LIB\C51FPL.LIB (?C?FPADD)
  C:\KEIL_V5\C51\LIB\C51FPL.LIB (?C?FPMUL)
  C:\KEIL_V5\C51\LIB\C51FPL.LIB (?C?FPDIV)
  C:\KEIL_V5\C51\LIB\C51FPL.LIB (?C?FCAST)
  C:\KEIL_V5\C51\LIB\C51FPL.LIB (?C?CASTF)
  C:\KEIL_V5\C51\LIB\C51FPL.LIB (?C?FPGETOPN)
  C:\KEIL_V5\C51\LIB\C51L.LIB (?C_INIT)
  C:\KEIL_V5\C51\LIB\C51L.LIB (?C?COPY)
  C:\KEIL_V5\C51\LIB\C51L.LIB (?C?CLDPTR)
  C:\KEIL_V5\C51\LIB\C51L.LIB (?C?CLDOPTR)
  C:\KEIL_V5\C51\LIB\C51L.LIB (?C?CILDPTR)
  C:\KEIL_V5\C51\LIB\C51L.LIB (?C?CSTOPTR)
  C:\KEIL_V5\C51\LIB\C51L.LIB (?C?IMUL)
  C:\KEIL_V5\C51\LIB\C51L.LIB (?C?UIDIV)
  C:\KEIL_V5\C51\LIB\C51L.LIB (?C?SIDIV)
  C:\KEIL_V5\C51\LIB\C51L.LIB (?C?IILDX)
  C:\KEIL_V5\C51\LIB\C51L.LIB (?C?ILDIX)
  C:\KEIL_V5\C51\LIB\C51L.LIB (?C?ILDPTR)
  C:\KEIL_V5\C51\LIB\C51L.LIB (?C?ILDOPTR)
  C:\KEIL_V5\C51\LIB\C51L.LIB (?C?ISTPTR)
  C:\KEIL_V5\C51\LIB\C51L.LIB (?C?LMUL)
  C:\KEIL_V5\C51\LIB\C51L.LIB (?C?ULDIV)
  C:\KEIL_V5\C51\LIB\C51L.LIB (?C?LNEG)
  C:\KEIL_V5\C51\LIB\C51L.LIB (?C?SLCMP)
  C:\KEIL_V5\C51\LIB\C51L.LIB (?C?ULCMP)
  C:\KEIL_V5\C51\LIB\C51L.LIB (?C?ULSHR)
  C:\KEIL_V5\C51\LIB\C51L.LIB (?C?SLSHR)
  C:\KEIL_V5\C51\LIB\C51L.LIB (?C?LSHL)
  C:\KEIL_V5\C51\LIB\C51L.LIB (?C?LLDPTR)
  C:\KEIL_V5\C51\LIB\C51L.LIB (?C?LSTXDATA)
  C:\KEIL_V5\C51\LIB\C51L.LIB (?C?LSTKXDATA)
  C:\KEIL_V5\C51\LIB\C51L.LIB (?C?PLDPTR)
  C:\KEIL_V5\C51\LIB\C51L.LIB (?C?CCASE)
  C:\KEIL_V5\C51\LIB\C51L.LIB (ABS)
  C:\KEIL_V5\C51\LIB\C51L.LIB (?C?LLDIDATA)
  C:\KEIL_V5\C51\LIB\C51L.LIB (?C?LLDXDATA)
  C:\KEIL_V5\C51\LIB\C51L.LIB (?C?LLDPDATA)
BL51 BANKED LINKER/LOCATER V6.22.2.0                                                  04/12/2021  16:41:58  PAGE 2


  C:\KEIL_V5\C51\LIB\C51L.LIB (?C?LLDCODE)
  C:\KEIL_V5\C51\LIB\C51L.LIB (?C?PLDIDATA)
  C:\KEIL_V5\C51\LIB\C51L.LIB (?C?PLDXDATA)
  C:\KEIL_V5\C51\LIB\C51L.LIB (?C?PLDPDATA)
  C:\KEIL_V5\C51\LIB\C51L.LIB (?C?PLDCODE)


LINK MAP OF MODULE:  .\Output\ml070i_MRMCU (?C_STARTUP)


            TYPE    BASE      LENGTH    RELOCATION   SEGMENT NAME
            -----------------------------------------------------

            * * * * * * *   D A T A   M E M O R Y   * * * * * * *
            REG     0000H     0008H     ABSOLUTE     "REG BANK 0"
            REG     0008H     0008H     ABSOLUTE     "REG BANK 1"
            DATA    0010H     0001H     UNIT         ?DT?MONITOR
            IDATA   0011H     0002H     UNIT         ?ID?SYSPOWER
                    0013H     000DH                  *** GAP ***
            BIT     0020H.0   0000H.6   UNIT         ?BI?CPU
            BIT     0020H.6   0000H.3   UNIT         ?BI?MONITOR
            BIT     0021H.1   0000H.2   UNIT         ?BI?SYSTIMER
            BIT     0021H.3   0000H.2   UNIT         _BIT_GROUP_
            BIT     0021H.5   0000H.1   UNIT         ?BI?HS_DVRPROTOCOL
                    0021H.6   0000H.2                *** GAP ***
            DATA    0022H     0058H     UNIT         ?DT?CPU
            IDATA   007AH     0001H     UNIT         ?STACK

            * * * * * * *  X D A T A   M E M O R Y  * * * * * * *
            XDATA   0000H     0106H     UNIT         ?XD?HS_DVRPROTOCOL
            XDATA   0106H     00A2H     UNIT         _XDATA_GROUP_
            XDATA   01A8H     0079H     UNIT         ?XD?MAIN
            XDATA   0221H     005CH     UNIT         ?XD?SYSTIMER
            XDATA   027DH     003BH     UNIT         ?XD?MONITOR
            XDATA   02B8H     001BH     UNIT         ?XD?CPU
            XDATA   02D3H     0018H     UNIT         ?XD?PRINTF

            * * * * * * *   C O D E   M E M O R Y   * * * * * * *
            CODE    0000H     0003H     ABSOLUTE     
            CODE    0003H     0008H     UNIT         ?PR?_RS_TX?CPU
            CODE    000BH     0003H     ABSOLUTE     
            CODE    000EH     0004H     UNIT         ?PR?ISP_INIT?MAIN
                    0012H     0001H                  *** GAP ***
            CODE    0013H     0003H     ABSOLUTE     
            CODE    0016H     000DH     UNIT         ?PR?I2CSTOP?I2C
            CODE    0023H     0003H     ABSOLUTE     
            CODE    0026H     0003H     UNIT         ?PR?EXT1_INT?CPU
                    0029H     0002H                  *** GAP ***
            CODE    002BH     0003H     ABSOLUTE     
                    002EH     0005H                  *** GAP ***
            CODE    0033H     0003H     ABSOLUTE     
                    0036H     0005H                  *** GAP ***
            CODE    003BH     0003H     ABSOLUTE     
            CODE    003EH     0023H     UNIT         ?PR?_TOUPPER?MONITOR
                    0061H     0002H                  *** GAP ***
            CODE    0063H     0003H     ABSOLUTE     
            CODE    0066H     0FB4H     UNIT         ?PR?_SYSTIMEREVENTPROC?SYSTIMER
BL51 BANKED LINKER/LOCATER V6.22.2.0                                                  04/12/2021  16:41:58  PAGE 3


            CODE    101AH     0A10H     UNIT         ?PR?MONITOR?MONITOR
            CODE    1A2AH     08B2H     UNIT         ?C?LIB_CODE
            CODE    22DCH     084EH     UNIT         ?CO?MONITOR
            CODE    2B2AH     075AH     UNIT         ?PR?DVRRECEIVEPASER?HS_DVRPROTOCOL
            CODE    3284H     0727H     UNIT         ?PR?ENCORDERHANDLER_TELI?MAIN
            CODE    39ABH     06D0H     UNIT         ?PR?ENCORDERHANDLER?MAIN
            CODE    407BH     0556H     UNIT         ?PR?_DOPRINT?PRINTF
            CODE    45D1H     043DH     UNIT         ?CO?CPU
            CODE    4A0EH     041BH     UNIT         ?PR?SHOWWORKINGTIMER?CPU
            CODE    4E29H     03F5H     UNIT         ?PR?_MCU_SENDCMDTODVR?MAIN
            CODE    521EH     034FH     UNIT         ?PR?TIMER0_INT?CPU
            CODE    556DH     0310H     UNIT         ?CO?MAIN
            CODE    587DH     0305H     UNIT         ?CO?SYSTIMER
            CODE    5B82H     02F4H     UNIT         ?CO?HS_DVRPROTOCOL
            CODE    5E76H     02ECH     UNIT         ?PR?_USERINTERFACEBATTERYCHARGEMODE?SYSPOWER
            CODE    6162H     02E3H     UNIT         ?PR?LOADEEPROM?MAIN
            CODE    6445H     0235H     UNIT         ?PR?MONGETCOMMAND?MONITOR
            CODE    667AH     0203H     UNIT         ?PR?_USERINTERFACETIMEREVENTPROC?SYSTIMER
            CODE    687DH     01FBH     UNIT         ?C_INITSEG
            CODE    6A78H     01ABH     UNIT         ?PR?_SAVEROTATENUMBER?MAIN
            CODE    6C23H     0176H     UNIT         ?PR?_MAPPING1?MAIN
            CODE    6D99H     0169H     UNIT         ?PR?MONWRITEBIT?MONITOR
            CODE    6F02H     012EH     UNIT         ?PR?_MCUTIMERCHECKTIMEREVENT?SYSTIMER
            CODE    7030H     011AH     UNIT         ?PR?WAITPOWERON?MAIN
            CODE    714AH     00FFH     UNIT         ?PR?MAIN_INIT?CPU
            CODE    7249H     00F9H     UNIT         ?PR?GETROTATENUMBER?MAIN
            CODE    7342H     00E5H     UNIT         ?PR?_MCUTIMERACTIVETIMEREVENT?SYSTIMER
            CODE    7427H     00DEH     UNIT         ?PR?_MCUTIMERREACTIVETIMEREVENT?SYSTIMER
            CODE    7505H     00D9H     UNIT         ?PR?_USERINTERFACEPOWERSWITCH?SYSPOWER
            CODE    75DEH     00BBH     UNIT         ?PR?CLEARBASICEE?ETC_EEP
            CODE    7699H     00B7H     UNIT         ?PR?PROMPT?MONITOR
            CODE    7750H     00B4H     UNIT         ?PR?_MONINCDECI2C?MONITOR
            CODE    7804H     00ADH     UNIT         ?PR?_MCULIB_PROTOCOLAPPEND?MAIN
            CODE    78B1H     00ABH     UNIT         ?PR?MONHELP?MONITOR
            CODE    795CH     00ABH     UNIT         ?CO?SYSPOWER
            CODE    7A07H     00A7H     UNIT         ?PR?_A2I?MONITOR
            CODE    7AAEH     0098H     UNIT         ?PR?_SET_PWM?CPU
            CODE    7B46H     0090H     UNIT         ?PR?_MCULIB_PROTOCOLSENDCMDWITHPARAMNUM?MAIN
            CODE    7BD6H     008CH     UNIT         ?C_C51STARTUP
            CODE    7C62H     0085H     UNIT         ?PR?SYSTIMERHANDLER?SYSTIMER
            CODE    7CE7H     0084H     UNIT         ?PR?SYSPOWERHANDLER?SYSPOWER
            CODE    7D6BH     0082H     UNIT         ?PR?MAIN?MAIN
            CODE    7DEDH     007EH     UNIT         ?PR?_AD5110_I2CWRITEDATA?I2C
            CODE    7E6BH     007BH     UNIT         ?PR?_I2CWRITEDATA?I2C
            CODE    7EE6H     0079H     UNIT         ?PR?_POWERLED?CPU
            CODE    7F5FH     006AH     UNIT         ?PR?_STRICMP?MONITOR
            CODE    7FC9H     005BH     UNIT         ?PR?INITIALTIMEREVENT?MAIN
            CODE    8024H     0059H     UNIT         ?PR?MAIN_LOOP?MAIN
            CODE    807DH     0058H     UNIT         ?PR?_GRAPHICSPRINT?PRINTF
            CODE    80D5H     0052H     UNIT         ?PR?INITCPU?CPU
            CODE    8127H     0051H     UNIT         ?PR?SCANKEY?KEYREMO
            CODE    8178H     004FH     UNIT         ?PR?MONTXDUMP?MONITOR
            CODE    81C7H     004EH     UNIT         ?CO?PRINTF
            CODE    8215H     004AH     UNIT         ?PR?GETFWREVEE?ETC_EEP
            CODE    825FH     004AH     UNIT         ?PR?MCUTIMERGETTIMERCOUNTER?SYSTIMER
            CODE    82A9H     0047H     UNIT         ?PR?GETPROJECTNAMEEE?ETC_EEP
            CODE    82F0H     0047H     UNIT         ?PR?_WRITEEEP?I2C
BL51 BANKED LINKER/LOCATER V6.22.2.0                                                  04/12/2021  16:41:58  PAGE 4


            CODE    8337H     0046H     UNIT         ?PR?_DEBUG_MESSAGE?PRINTF
            CODE    837DH     0043H     UNIT         ?PR?_ASC2BIN?MONITOR
            CODE    83C0H     0041H     UNIT         ?PR?_MCUTIMERCANCELTIMEREVENT?SYSTIMER
            CODE    8401H     003EH     UNIT         ?PR?_SETAD5110STEP?MAIN
            CODE    843FH     003EH     UNIT         ?PR?_PRINTF?PRINTF
            CODE    847DH     003BH     UNIT         ?PR?SERIAL2_INT?CPU
            CODE    84B8H     0039H     UNIT         ?PR?_READI2C?I2C
            CODE    84F1H     0039H     UNIT         ?PR?_READAD5110?I2C
            CODE    852AH     0037H     UNIT         ?PR?_ASC1BIN?MONITOR
            CODE    8561H     0035H     UNIT         ?PR?AD5110_I2CREADDATA?I2C
            CODE    8596H     0033H     UNIT         ?PR?I2CREADDATA?I2C
            CODE    85C9H     0033H     UNIT         ?PR?_ISP_WRITE?MAIN
            CODE    85FCH     0033H     UNIT         ?PR?_PUTS?PRINTF
            CODE    862FH     002FH     UNIT         ?PR?SET_MCU_POWER_DOWN_MODE?CPU
            CODE    865EH     002FH     UNIT         ?PR?SERIAL_INT?CPU
            CODE    868DH     002CH     UNIT         ?PR?SYSPOWERINITIAL?SYSPOWER
            CODE    86B9H     002CH     UNIT         ?PR?_SYSPOWERSWITCH?SYSPOWER
            CODE    86E5H     0029H     UNIT         ?PR?_WRITEI2C?I2C
            CODE    870EH     0026H     UNIT         ?PR?_READEEP?I2C
            CODE    8734H     0022H     UNIT         ?PR?MCUTIMERINITIALTIMEREVENT?SYSTIMER
            CODE    8756H     0021H     UNIT         ?PR?ENTER_ISP?MAIN
            CODE    8777H     0020H     UNIT         ?PR?_WRITEAD5110?I2C
            CODE    8797H     0020H     UNIT         ?PR?_GETADCVALUE?MAIN
            CODE    87B7H     001FH     UNIT         ?PR?INT2_INT?CPU
            CODE    87D6H     001FH     UNIT         ?PR?INT3_INT?CPU
            CODE    87F5H     001EH     UNIT         ?PR?RS2_RX?CPU
            CODE    8813H     001CH     UNIT         ?PR?CHECK_ADAP_IN?CPU
            CODE    882FH     001CH     UNIT         ?PR?RS_RX?CPU
            CODE    884BH     001BH     UNIT         ?PR?_GETKEY?KEYREMO
            CODE    8866H     0019H     UNIT         ?PR?SAVEFWREVEE?ETC_EEP
            CODE    887FH     0019H     UNIT         ?PR?_MCUTIMERDELAYXMS?SYSTIMER
            CODE    8898H     0018H     UNIT         ?PR?_DELAY?CPU
            CODE    88B0H     0016H     UNIT         ?PR?INITVARS?CPU
            CODE    88C6H     0015H     UNIT         ?PR?_MCUTIMERGETEVENTID?SYSTIMER
            CODE    88DBH     0014H     UNIT         ?PR?I2CDELAY?I2C
            CODE    88EFH     0014H     UNIT         ?PR?_MCUTIMERGETEVENTTIME?SYSTIMER
            CODE    8903H     0013H     UNIT         ?PR?_MCUTIMERCLREVENTVALID?SYSTIMER
            CODE    8916H     0012H     UNIT         ?CO?ETC_EEP
            CODE    8928H     0012H     UNIT         ?PR?I2CSTART?I2C
            CODE    893AH     0011H     UNIT         ?PR?_MCUTIMERCHECKEVENTVALID?SYSTIMER
            CODE    894BH     000FH     UNIT         ?PR?TIMER2_INT?CPU
            CODE    895AH     000CH     UNIT         ?PR?_ABS?ABS
            CODE    8966H     000BH     UNIT         ?PR?RS_READY?CPU
            CODE    8971H     000BH     UNIT         ?PR?RS2_READY?CPU
            CODE    897CH     0009H     UNIT         ?PR?_SAVEDEBUGLEVELEE?ETC_EEP
            CODE    8985H     0008H     UNIT         ?PR?_RS2_TX?CPU
            CODE    898DH     0008H     UNIT         ?PR?_MON_TX?MONITOR
            CODE    8995H     0007H     UNIT         ?PR?GETBATTERYBTH?MAIN
            CODE    899CH     0007H     UNIT         ?PR?GETBATTERYVOLTAGE?MAIN



OVERLAY MAP OF MODULE:   .\Output\ml070i_MRMCU (?C_STARTUP)


SEGMENT                                             BIT_GROUP          XDATA_GROUP
  +--> CALLED SEGMENT                            START    LENGTH     START    LENGTH
BL51 BANKED LINKER/LOCATER V6.22.2.0                                                  04/12/2021  16:41:58  PAGE 5


------------------------------------------------------------------------------------
?C_C51STARTUP                                    -----    -----      -----    -----
  +--> ?PR?MAIN?MAIN
  +--> ?C_INITSEG

?PR?MAIN?MAIN                                    -----    -----      -----    -----
  +--> ?PR?INITCPU?CPU
  +--> ?PR?SYSPOWERINITIAL?SYSPOWER
  +--> ?CO?MAIN
  +--> ?PR?_PRINTF?PRINTF
  +--> ?PR?MAIN_INIT?CPU
  +--> ?PR?INITVARS?CPU
  +--> ?PR?LOADEEPROM?MAIN
  +--> ?PR?INITIALTIMEREVENT?MAIN
  +--> ?PR?_SETAD5110STEP?MAIN
  +--> ?PR?CHECK_ADAP_IN?CPU
  +--> ?PR?MAIN_LOOP?MAIN
  +--> ?PR?WAITPOWERON?MAIN

?PR?SYSPOWERINITIAL?SYSPOWER                     -----    -----      -----    -----
  +--> ?PR?_MCUTIMERDELAYXMS?SYSTIMER
  +--> ?CO?SYSPOWER
  +--> ?PR?_DEBUG_MESSAGE?PRINTF

?PR?_DEBUG_MESSAGE?PRINTF                        -----    -----      0165H    002EH
  +--> ?PR?_DOPRINT?PRINTF

?PR?_DOPRINT?PRINTF                              0021H.3  0000H.2    0193H    0015H
  +--> ?CO?PRINTF

?PR?_PRINTF?PRINTF                               -----    -----      012AH    002EH
  +--> ?PR?_DOPRINT?PRINTF

?PR?MAIN_INIT?CPU                                -----    -----      0106H    0004H
  +--> ?PR?GETFWREVEE?ETC_EEP
  +--> ?PR?_READEEP?I2C
  +--> ?CO?CPU
  +--> ?PR?_PRINTF?PRINTF
  +--> ?PR?SAVEFWREVEE?ETC_EEP
  +--> ?PR?GETPROJECTNAMEEE?ETC_EEP
  +--> ?PR?CLEARBASICEE?ETC_EEP
  +--> ?PR?_DELAY?CPU

?PR?GETFWREVEE?ETC_EEP                           -----    -----      -----    -----
  +--> ?PR?_READEEP?I2C

?PR?_READEEP?I2C                                 -----    -----      0136H    0001H
  +--> ?PR?_READI2C?I2C
  +--> ?PR?_DELAY?CPU

?PR?_READI2C?I2C                                 -----    -----      0137H    0003H
  +--> ?PR?I2CSTART?I2C
  +--> ?PR?_I2CWRITEDATA?I2C
  +--> ?PR?I2CREADDATA?I2C
  +--> ?PR?I2CSTOP?I2C

?PR?I2CSTART?I2C                                 -----    -----      -----    -----
BL51 BANKED LINKER/LOCATER V6.22.2.0                                                  04/12/2021  16:41:58  PAGE 6


  +--> ?PR?I2CDELAY?I2C

?PR?_I2CWRITEDATA?I2C                            -----    -----      -----    -----
  +--> ?PR?I2CDELAY?I2C

?PR?I2CREADDATA?I2C                              -----    -----      -----    -----
  +--> ?PR?I2CDELAY?I2C

?PR?I2CSTOP?I2C                                  -----    -----      -----    -----
  +--> ?PR?I2CDELAY?I2C

?PR?SAVEFWREVEE?ETC_EEP                          -----    -----      -----    -----
  +--> ?PR?_WRITEEEP?I2C

?PR?_WRITEEEP?I2C                                -----    -----      010EH    0004H
  +--> ?PR?I2CSTART?I2C
  +--> ?PR?_I2CWRITEDATA?I2C
  +--> ?PR?I2CSTOP?I2C
  +--> ?PR?_DELAY?CPU

?PR?GETPROJECTNAMEEE?ETC_EEP                     -----    -----      010AH    0001H
  +--> ?PR?_READEEP?I2C

?PR?CLEARBASICEE?ETC_EEP                         -----    -----      -----    -----
  +--> ?CO?ETC_EEP
  +--> ?PR?_PRINTF?PRINTF
  +--> ?PR?_WRITEEEP?I2C

?PR?LOADEEPROM?MAIN                              -----    -----      -----    -----
  +--> ?PR?_READEEP?I2C
  +--> ?PR?_WRITEEEP?I2C

?PR?INITIALTIMEREVENT?MAIN                       -----    -----      -----    -----
  +--> ?PR?MCUTIMERINITIALTIMEREVENT?SYSTIMER
  +--> ?PR?_MCUTIMERACTIVETIMEREVENT?SYSTIMER

?PR?_MCUTIMERACTIVETIMEREVENT?SYSTIMER           -----    -----      012AH    0004H
  +--> ?PR?_MCUTIMERCHECKTIMEREVENT?SYSTIMER

?PR?_MCUTIMERCHECKTIMEREVENT?SYSTIMER            -----    -----      012EH    0005H
  +--> ?PR?MCUTIMERGETTIMERCOUNTER?SYSTIMER

?PR?MCUTIMERGETTIMERCOUNTER?SYSTIMER             -----    -----      0133H    0002H
  +--> ?PR?_ABS?ABS

?PR?_SETAD5110STEP?MAIN                          -----    -----      010AH    0002H
  +--> ?PR?_MAPPING1?MAIN
  +--> ?PR?_WRITEAD5110?I2C

?PR?_MAPPING1?MAIN                               -----    -----      010CH    000FH

?PR?_WRITEAD5110?I2C                             -----    -----      -----    -----
  +--> ?PR?I2CSTART?I2C
  +--> ?PR?_AD5110_I2CWRITEDATA?I2C
  +--> ?PR?I2CSTOP?I2C
  +--> ?PR?_DELAY?CPU

BL51 BANKED LINKER/LOCATER V6.22.2.0                                                  04/12/2021  16:41:58  PAGE 7


?PR?_AD5110_I2CWRITEDATA?I2C                     -----    -----      -----    -----
  +--> ?PR?I2CDELAY?I2C

?PR?CHECK_ADAP_IN?CPU                            -----    -----      -----    -----
  +--> ?PR?_MCUTIMERDELAYXMS?SYSTIMER

?PR?MAIN_LOOP?MAIN                               -----    -----      -----    -----
  +--> ?CO?MAIN
  +--> ?PR?_PRINTF?PRINTF
  +--> ?PR?GETROTATENUMBER?MAIN
  +--> ?PR?RS_READY?CPU
  +--> ?PR?MONITOR?MONITOR
  +--> ?PR?DVRRECEIVEPASER?HS_DVRPROTOCOL
  +--> ?PR?SYSTIMERHANDLER?SYSTIMER
  +--> ?PR?SYSPOWERHANDLER?SYSPOWER
  +--> ?PR?SCANKEY?KEYREMO
  +--> ?PR?ENCORDERHANDLER_TELI?MAIN
  +--> ?PR?ENCORDERHANDLER?MAIN

?PR?GETROTATENUMBER?MAIN                         -----    -----      0106H    0004H
  +--> ?PR?_READEEP?I2C
  +--> ?CO?MAIN
  +--> ?PR?_PRINTF?PRINTF

?PR?MONITOR?MONITOR                              -----    -----      0106H    0002H
  +--> ?PR?MONGETCOMMAND?MONITOR
  +--> ?CO?MONITOR
  +--> ?PR?_STRICMP?MONITOR
  +--> ?PR?_PRINTF?PRINTF
  +--> ?PR?_READAD5110?I2C
  +--> ?PR?_READEEP?I2C
  +--> ?PR?MONWRITEBIT?MONITOR
  +--> ?PR?_WRITEEEP?I2C
  +--> ?PR?_ASC2BIN?MONITOR
  +--> ?PR?MONHELP?MONITOR
  +--> ?PR?_SAVEDEBUGLEVELEE?ETC_EEP
  +--> ?PR?_PUTS?PRINTF
  +--> ?PR?RS_READY?CPU
  +--> ?PR?_READI2C?I2C
  +--> ?PR?_SET_PWM?CPU
  +--> ?PR?_MCUTIMERACTIVETIMEREVENT?SYSTIMER
  +--> ?PR?MONTXDUMP?MONITOR
  +--> ?PR?PROMPT?MONITOR

?PR?MONGETCOMMAND?MONITOR                        -----    -----      0108H    0003H
  +--> ?PR?RS_READY?CPU
  +--> ?PR?RS_RX?CPU
  +--> ?PR?_MCUTIMERREACTIVETIMEREVENT?SYSTIMER
  +--> ?PR?_MON_TX?MONITOR
  +--> ?PR?PROMPT?MONITOR
  +--> ?PR?_MONINCDECI2C?MONITOR

?PR?_MCUTIMERREACTIVETIMEREVENT?SYSTIMER         -----    -----      010BH    0004H
  +--> ?PR?_MCUTIMERCHECKTIMEREVENT?SYSTIMER

?PR?_MON_TX?MONITOR                              -----    -----      -----    -----
  +--> ?PR?_RS_TX?CPU
BL51 BANKED LINKER/LOCATER V6.22.2.0                                                  04/12/2021  16:41:58  PAGE 8



?PR?PROMPT?MONITOR                               -----    -----      -----    -----
  +--> ?CO?MONITOR
  +--> ?PR?_PRINTF?PRINTF

?PR?_MONINCDECI2C?MONITOR                        -----    -----      -----    -----
  +--> ?PR?_WRITEI2C?I2C
  +--> ?PR?_READI2C?I2C
  +--> ?CO?MONITOR
  +--> ?PR?_PRINTF?PRINTF
  +--> ?PR?PROMPT?MONITOR

?PR?_WRITEI2C?I2C                                -----    -----      010DH    0003H
  +--> ?PR?I2CSTART?I2C
  +--> ?PR?_I2CWRITEDATA?I2C
  +--> ?PR?I2CSTOP?I2C

?PR?_STRICMP?MONITOR                             -----    -----      0108H    0008H
  +--> ?CO?MONITOR
  +--> ?PR?_TOUPPER?MONITOR

?PR?_READAD5110?I2C                              -----    -----      0108H    0001H
  +--> ?PR?I2CSTART?I2C
  +--> ?PR?_AD5110_I2CWRITEDATA?I2C
  +--> ?PR?AD5110_I2CREADDATA?I2C
  +--> ?PR?I2CSTOP?I2C
  +--> ?PR?_DELAY?CPU

?PR?AD5110_I2CREADDATA?I2C                       -----    -----      -----    -----
  +--> ?PR?I2CDELAY?I2C

?PR?MONWRITEBIT?MONITOR                          -----    -----      0108H    0005H
  +--> ?CO?MONITOR
  +--> ?PR?_ASC2BIN?MONITOR
  +--> ?PR?_READI2C?I2C
  +--> ?PR?_WRITEI2C?I2C
  +--> ?PR?_PRINTF?PRINTF

?PR?_ASC2BIN?MONITOR                             -----    -----      -----    -----
  +--> ?PR?_ASC1BIN?MONITOR

?PR?MONHELP?MONITOR                              -----    -----      -----    -----
  +--> ?CO?MONITOR
  +--> ?PR?_PRINTF?PRINTF

?PR?_SAVEDEBUGLEVELEE?ETC_EEP                    -----    -----      -----    -----
  +--> ?PR?_WRITEEEP?I2C

?PR?_PUTS?PRINTF                                 -----    -----      010AH    0003H
  +--> ?PR?_RS_TX?CPU

?PR?_SET_PWM?CPU                                 -----    -----      010BH    0002H
  +--> ?CO?CPU
  +--> ?PR?_PRINTF?PRINTF

?PR?MONTXDUMP?MONITOR                            -----    -----      0108H    0002H
  +--> ?CO?MONITOR
BL51 BANKED LINKER/LOCATER V6.22.2.0                                                  04/12/2021  16:41:58  PAGE 9


  +--> ?PR?_PUTS?PRINTF
  +--> ?PR?_A2I?MONITOR
  +--> ?PR?_RS_TX?CPU

?PR?_A2I?MONITOR                                 -----    -----      010AH    0008H

?PR?DVRRECEIVEPASER?HS_DVRPROTOCOL               -----    -----      0106H    0001H
  +--> ?PR?RS2_READY?CPU
  +--> ?PR?RS2_RX?CPU
  +--> ?CO?HS_DVRPROTOCOL
  +--> ?PR?_GRAPHICSPRINT?PRINTF
  +--> ?PR?_USERINTERFACEBATTERYCHARGEMODE?S...
  +--> ?PR?_MCUTIMERCANCELTIMEREVENT?SYSTIMER
  +--> ?PR?_MCUTIMERACTIVETIMEREVENT?SYSTIMER
  +--> ?PR?_PRINTF?PRINTF
  +--> ?PR?_WRITEEEP?I2C
  +--> ?PR?_MCUTIMERREACTIVETIMEREVENT?SYSTIMER
  +--> ?PR?_READEEP?I2C
  +--> ?PR?_DEBUG_MESSAGE?PRINTF

?PR?_GRAPHICSPRINT?PRINTF                        -----    -----      0136H    002FH
  +--> ?PR?_DEBUG_MESSAGE?PRINTF
  +--> ?PR?_DOPRINT?PRINTF

?PR?_USERINTERFACEBATTERYCHARGEMODE?S...         -----    -----      010AH    0001H
  +--> ?PR?_MCUTIMERCANCELTIMEREVENT?SYSTIMER
  +--> ?PR?_SET_PWM?CPU
  +--> ?CO?SYSPOWER
  +--> ?PR?_GRAPHICSPRINT?PRINTF
  +--> ?PR?_USERINTERFACEPOWERSWITCH?SYSPOWER
  +--> ?PR?_MCUTIMERACTIVETIMEREVENT?SYSTIMER

?PR?_USERINTERFACEPOWERSWITCH?SYSPOWER           -----    -----      010BH    0001H
  +--> ?CO?SYSPOWER
  +--> ?PR?_PRINTF?PRINTF
  +--> ?PR?_MCUTIMERDELAYXMS?SYSTIMER
  +--> ?PR?_MCUTIMERACTIVETIMEREVENT?SYSTIMER
  +--> ?PR?_MCU_SENDCMDTODVR?MAIN

?PR?_MCU_SENDCMDTODVR?MAIN                       -----    -----      012AH    000CH
  +--> ?CO?MAIN
  +--> ?PR?_READEEP?I2C
  +--> ?PR?_GRAPHICSPRINT?PRINTF
  +--> ?PR?_MCULIB_PROTOCOLSENDCMDWITHPARAMN...

?PR?_MCULIB_PROTOCOLSENDCMDWITHPARAMN...         -----    -----      0136H    0017H
  +--> ?PR?_MCULIB_PROTOCOLAPPEND?MAIN
  +--> ?PR?_RS2_TX?CPU

?PR?_MCULIB_PROTOCOLAPPEND?MAIN                  -----    -----      014DH    0007H

?PR?SYSTIMERHANDLER?SYSTIMER                     -----    -----      0106H    0004H
  +--> ?PR?MCUTIMERGETTIMERCOUNTER?SYSTIMER
  +--> ?PR?_MCUTIMERCHECKEVENTVALID?SYSTIMER
  +--> ?PR?_MCUTIMERGETEVENTTIME?SYSTIMER
  +--> ?PR?_MCUTIMERCLREVENTVALID?SYSTIMER
  +--> ?PR?_MCUTIMERGETEVENTID?SYSTIMER
BL51 BANKED LINKER/LOCATER V6.22.2.0                                                  04/12/2021  16:41:58  PAGE 10


  +--> ?PR?_USERINTERFACETIMEREVENTPROC?SYST...
  +--> ?PR?_SYSTIMEREVENTPROC?SYSTIMER

?PR?_USERINTERFACETIMEREVENTPROC?SYST...         -----    -----      -----    -----
  +--> ?PR?_SETAD5110STEP?MAIN
  +--> ?PR?_WRITEEEP?I2C
  +--> ?CO?SYSTIMER
  +--> ?PR?_MCU_SENDCMDTODVR?MAIN
  +--> ?PR?_GRAPHICSPRINT?PRINTF
  +--> ?PR?_USERINTERFACEBATTERYCHARGEMODE?S...
  +--> ?PR?_MCUTIMERACTIVETIMEREVENT?SYSTIMER
  +--> ?PR?ENTER_ISP?MAIN
  +--> ?PR?_USERINTERFACEPOWERSWITCH?SYSPOWER

?PR?ENTER_ISP?MAIN                               -----    -----      010AH    0001H
  +--> ?PR?ISP_INIT?MAIN
  +--> ?PR?_ISP_WRITE?MAIN

?PR?_ISP_WRITE?MAIN                              -----    -----      010BH    0006H

?PR?_SYSTIMEREVENTPROC?SYSTIMER                  -----    -----      -----    -----
  +--> ?PR?_POWERLED?CPU
  +--> ?PR?_MCUTIMERDELAYXMS?SYSTIMER
  +--> ?PR?CHECK_ADAP_IN?CPU
  +--> ?PR?_MCUTIMERCHECKEVENTVALID?SYSTIMER
  +--> ?CO?SYSTIMER
  +--> ?PR?_GRAPHICSPRINT?PRINTF
  +--> ?PR?_MCUTIMERCANCELTIMEREVENT?SYSTIMER
  +--> ?PR?_MCUTIMERACTIVETIMEREVENT?SYSTIMER
  +--> ?PR?_MCU_SENDCMDTODVR?MAIN
  +--> ?PR?GETBATTERYVOLTAGE?MAIN
  +--> ?PR?GETBATTERYBTH?MAIN
  +--> ?PR?_READEEP?I2C
  +--> ?PR?_WRITEEEP?I2C
  +--> ?PR?_USERINTERFACEBATTERYCHARGEMODE?S...
  +--> ?PR?SHOWWORKINGTIMER?CPU

?PR?GETBATTERYVOLTAGE?MAIN                       -----    -----      -----    -----
  +--> ?PR?_GETADCVALUE?MAIN

?PR?GETBATTERYBTH?MAIN                           -----    -----      -----    -----
  +--> ?PR?_GETADCVALUE?MAIN

?PR?SHOWWORKINGTIMER?CPU                         -----    -----      010AH    0002H
  +--> ?CO?CPU
  +--> ?PR?_GRAPHICSPRINT?PRINTF

?PR?SYSPOWERHANDLER?SYSPOWER                     -----    -----      -----    -----
  +--> ?PR?_SYSPOWERSWITCH?SYSPOWER

?PR?_SYSPOWERSWITCH?SYSPOWER                     -----    -----      0106H    0001H
  +--> ?PR?_USERINTERFACEPOWERSWITCH?SYSPOWER

?PR?SCANKEY?KEYREMO                              -----    -----      -----    -----
  +--> ?PR?_GETKEY?KEYREMO
  +--> ?PR?_WRITEEEP?I2C
  +--> ?PR?_MCUTIMERACTIVETIMEREVENT?SYSTIMER
BL51 BANKED LINKER/LOCATER V6.22.2.0                                                  04/12/2021  16:41:58  PAGE 11



?PR?_GETKEY?KEYREMO                              0021H.3  0000H.1    -----    -----

?PR?ENCORDERHANDLER_TELI?MAIN                    -----    -----      0106H    0024H
  +--> ?CO?MAIN
  +--> ?PR?_PRINTF?PRINTF
  +--> ?PR?_MCU_SENDCMDTODVR?MAIN
  +--> ?PR?_MCUTIMERCANCELTIMEREVENT?SYSTIMER
  +--> ?PR?_MCUTIMERACTIVETIMEREVENT?SYSTIMER

?PR?ENCORDERHANDLER?MAIN                         -----    -----      0106H    0022H
  +--> ?CO?MAIN
  +--> ?PR?_PRINTF?PRINTF
  +--> ?PR?_MCU_SENDCMDTODVR?MAIN
  +--> ?PR?_MCUTIMERCANCELTIMEREVENT?SYSTIMER
  +--> ?PR?_MCUTIMERACTIVETIMEREVENT?SYSTIMER

?PR?WAITPOWERON?MAIN                             -----    -----      -----    -----
  +--> ?CO?MAIN
  +--> ?PR?_PRINTF?PRINTF
  +--> ?PR?_MCUTIMERCANCELTIMEREVENT?SYSTIMER
  +--> ?PR?_SAVEROTATENUMBER?MAIN
  +--> ?PR?RS_READY?CPU
  +--> ?PR?MONITOR?MONITOR
  +--> ?PR?SYSPOWERHANDLER?SYSPOWER
  +--> ?PR?SYSTIMERHANDLER?SYSTIMER
  +--> ?PR?SCANKEY?KEYREMO
  +--> ?PR?_MCUTIMERACTIVETIMEREVENT?SYSTIMER
  +--> ?PR?CHECK_ADAP_IN?CPU
  +--> ?PR?SET_MCU_POWER_DOWN_MODE?CPU
  +--> ?PR?_WRITEEEP?I2C

?PR?_SAVEROTATENUMBER?MAIN                       -----    -----      0106H    0008H
  +--> ?PR?_READEEP?I2C
  +--> ?CO?MAIN
  +--> ?PR?_PRINTF?PRINTF
  +--> ?PR?_WRITEEEP?I2C

?PR?SET_MCU_POWER_DOWN_MODE?CPU                  -----    -----      -----    -----
  +--> ?CO?CPU
  +--> ?PR?_PRINTF?PRINTF

?C_INITSEG                                       -----    -----      -----    -----
  +--> ?CO?PRINTF



SYMBOL TABLE OF MODULE:  .\Output\ml070i_MRMCU (?C_STARTUP)

  VALUE           TYPE          NAME
  ----------------------------------

  -------         MODULE        ?C_STARTUP
  C:7BD6H         SEGMENT       ?C_C51STARTUP
  I:007AH         SEGMENT       ?STACK
  C:0000H         PUBLIC        ?C_STARTUP
  D:00E0H         SYMBOL        ACC
BL51 BANKED LINKER/LOCATER V6.22.2.0                                                  04/12/2021  16:41:58  PAGE 12


  D:00F0H         SYMBOL        B
  D:0083H         SYMBOL        DPH
  D:0082H         SYMBOL        DPL
  N:0000H         SYMBOL        IBPSTACK
  N:0100H         SYMBOL        IBPSTACKTOP
  N:0080H         SYMBOL        IDATALEN
  C:7BD9H         SYMBOL        IDATALOOP
  N:0000H         SYMBOL        PBPSTACK
  N:0100H         SYMBOL        PBPSTACKTOP
  N:0000H         SYMBOL        PDATALEN
  N:0000H         SYMBOL        PDATASTART
  N:0000H         SYMBOL        PPAGE
  N:0000H         SYMBOL        PPAGEENABLE
  D:00A0H         SYMBOL        PPAGE_SFR
  D:0081H         SYMBOL        SP
  C:7BD6H         SYMBOL        STARTUP1
  N:0000H         SYMBOL        XBPSTACK
  N:0000H         SYMBOL        XBPSTACKTOP
  N:0000H         SYMBOL        XDATALEN
  N:0000H         SYMBOL        XDATASTART
  C:0000H         LINE#         126
  C:7BD6H         LINE#         133
  C:7BD8H         LINE#         134
  C:7BD9H         LINE#         135
  C:7BDAH         LINE#         136
  C:7BDCH         LINE#         185
  C:7BDFH         LINE#         196
  -------         ENDMOD        ?C_STARTUP

  -------         MODULE        CPU
  C:0000H         SYMBOL        _ICE_DUMMY_
  D:0091H         PUBLIC        P1M0
  X:02B8H         PUBLIC        second
  C:80D5H         PUBLIC        InitCPU
  D:00B1H         PUBLIC        P3M0
  D:0096H         PUBLIC        P2M1
  C:521EH         PUBLIC        timer0_int
  X:02B9H         PUBLIC        FormatSDCard
  D:00B3H         PUBLIC        P4M0
  D:00B2H         PUBLIC        P3M1
  D:00B4H         PUBLIC        P4M1
  D:00B0H         PUBLIC        P3
  C:894BH         PUBLIC        timer2_int
  D:00E8H         PUBLIC        P4
  X:02BAH         PUBLIC        FormatWait
  X:02BBH         PUBLIC        Power_Msg_Count
  X:02BDH         PUBLIC        IE_Temp
  D:00F9H         PUBLIC        CH
  D:0022H         PUBLIC        DVR_buf
  D:0040H         PUBLIC        keytic
  D:00A8H         PUBLIC        IE
  C:4A0EH         PUBLIC        ShowWorkingTimer
  D:00E9H         PUBLIC        CL
  D:0042H         PUBLIC        RS2_in
  B:0020H.0       PUBLIC        RepeatKey
  X:02BEH         PUBLIC        LED_FLASH_COUNT
  D:0043H         PUBLIC        RS2_out
BL51 BANKED LINKER/LOCATER V6.22.2.0                                                  04/12/2021  16:41:58  PAGE 13


  C:8898H         PUBLIC        _delay
  D:00FCH         PUBLIC        CCAP2H
  B:00E8H.0       PUBLIC        P4_0
  D:00FDH         PUBLIC        CCAP3H
  B:00E8H.1       PUBLIC        P4_1
  B:0090H.4       PUBLIC        P1_4
  B:0080H.5       PUBLIC        P0_5
  X:02C0H         PUBLIC        minute
  B:00E8H.2       PUBLIC        P4_2
  D:00ECH         PUBLIC        CCAP2L
  B:00A8H.4       PUBLIC        ES
  D:00EDH         PUBLIC        CCAP3L
  D:00DCH         PUBLIC        CCAPM2
  D:00DDH         PUBLIC        CCAPM3
  D:00B8H         PUBLIC        IP
  B:0098H.0       PUBLIC        RI
  B:0098H.1       PUBLIC        TI
  C:8966H         PUBLIC        RS_ready
  D:0044H         PUBLIC        tic01
  B:0020H.1       PUBLIC        KeyReady
  C:87F5H         PUBLIC        RS2_rx
  B:0020H.2       PUBLIC        RS_Xbusy
  D:0045H         PUBLIC        tic02
  D:00D9H         PUBLIC        CMOD
  D:00D8H         PUBLIC        CCON
  C:8985H         PUBLIC        _RS2_tx
  X:02C1H         PUBLIC        Time5ms
  X:02C2H         PUBLIC        month
  X:02C3H         PUBLIC        keyticSec
  D:0046H         PUBLIC        Key
  C:87B7H         PUBLIC        int2_int
  C:87D6H         PUBLIC        int3_int
  X:02C4H         PUBLIC        bytEncorderCountTemp
  C:865EH         PUBLIC        serial_int
  C:0026H         PUBLIC        ext1_int
  D:0099H         PUBLIC        SBUF
  D:0087H         PUBLIC        PCON
  D:0098H         PUBLIC        SCON
  C:88B0H         PUBLIC        InitVars
  D:0089H         PUBLIC        TMOD
  D:0088H         PUBLIC        TCON
  C:714AH         PUBLIC        main_init
  X:02C5H         PUBLIC        day
  X:02C6H         PUBLIC        hour
  B:00C0H.1       PUBLIC        IE2
  B:00C0H.5       PUBLIC        IE3
  C:7AAEH         PUBLIC        _SET_PWM
  X:02C7H         PUBLIC        PowerDownWait
  D:0047H         PUBLIC        tm01
  D:0049H         PUBLIC        stopWatch
  X:02C8H         PUBLIC        EncorderCount
  D:004BH         SYMBOL        RS_buf
  C:862FH         PUBLIC        SET_MCU_POWER_DOWN_MODE
  D:0069H         PUBLIC        tic_PWR_SAVING
  D:006DH         PUBLIC        tic_Init_time
  B:00A8H.5       PUBLIC        ET2
  B:00C8H.7       PUBLIC        TF2
BL51 BANKED LINKER/LOCATER V6.22.2.0                                                  04/12/2021  16:41:58  PAGE 14


  D:008CH         PUBLIC        TH0
  D:008DH         PUBLIC        TH1
  X:02CAH         PUBLIC        bytHoldOn3SPowerOff
  B:00A8H.2       PUBLIC        EX1
  B:00C0H.2       PUBLIC        EX2
  B:00C0H.0       PUBLIC        IT2
  C:8971H         PUBLIC        RS2_ready
  C:8813H         PUBLIC        Check_ADAP_IN
  B:00C0H.6       PUBLIC        EX3
  B:00C0H.4       PUBLIC        IT3
  D:008AH         PUBLIC        TL0
  X:02CBH         PUBLIC        bytHoldOn3SPowerOffMode
  B:0020H.3       PUBLIC        RS2_Xbusy
  B:00C8H.2       PUBLIC        TR2
  X:02CCH         PUBLIC        updn_reg
  B:0020H.4       PUBLIC        PWR_SAVING_ACT_FLAG
  D:0071H         PUBLIC        RS_in
  D:0072H         PUBLIC        RS_out
  C:847DH         PUBLIC        serial2_int
  D:009AH         PUBLIC        S2BUF
  X:02D0H         PUBLIC        year1
  X:02D1H         PUBLIC        year2
  C:7EE6H         PUBLIC        _PowerLED
  D:00AAH         PUBLIC        S2CON
  D:00C8H         PUBLIC        T2CON
  D:00BAH         PUBLIC        S2BRT
  X:02D2H         PUBLIC        DVR_FACTORY_MODE
  C:882FH         PUBLIC        RS_rx
  C:0003H         PUBLIC        _RS_tx
  D:0073H         PUBLIC        tm001
  D:00A6H         PUBLIC        AUXR2
  B:0020H.5       PUBLIC        ChangeKey
  D:0074H         PUBLIC        tic_pc
  D:0076H         PUBLIC        SystemClock
  D:0093H         PUBLIC        P0M0
  D:00ADH         PUBLIC        AUXIE
  -------         PROC          MAIN_INIT
  -------         DO            
  X:0106H         SYMBOL        rev
  -------         ENDDO         
  C:714AH         LINE#         94
  C:714AH         LINE#         95
  C:714AH         LINE#         98
  C:7153H         LINE#         101
  C:7195H         LINE#         103
  C:71A4H         LINE#         104
  C:71A4H         LINE#         105
  C:71BEH         LINE#         106
  C:71C1H         LINE#         107
  C:7203H         LINE#         108
  C:7203H         LINE#         112
  C:7212H         LINE#         113
  C:7212H         LINE#         116
  C:7212H         LINE#         117
  C:7218H         LINE#         118
  C:721BH         LINE#         119
  C:721BH         LINE#         120
BL51 BANKED LINKER/LOCATER V6.22.2.0                                                  04/12/2021  16:41:58  PAGE 15


  C:721DH         LINE#         122
  C:721DH         LINE#         123
  C:7226H         LINE#         124
  C:722FH         LINE#         125
  C:7236H         LINE#         127
  C:7236H         LINE#         129
  C:723BH         LINE#         132
  C:7243H         LINE#         133
  C:7248H         LINE#         135
  -------         ENDPROC       MAIN_INIT
  -------         PROC          INITCPU
  C:80D5H         LINE#         143
  C:80D5H         LINE#         144
  C:80D5H         LINE#         148
  C:80D8H         LINE#         156
  C:80DBH         LINE#         158
  C:80DEH         LINE#         160
  C:80E1H         LINE#         168
  C:80E7H         LINE#         170
  C:80EAH         LINE#         171
  C:80EDH         LINE#         175
  C:80F0H         LINE#         178
  C:80F2H         LINE#         179
  C:80F4H         LINE#         198
  C:80F7H         LINE#         199
  C:80F9H         LINE#         200
  C:80FBH         LINE#         207
  C:80FEH         LINE#         208
  C:8101H         LINE#         211
  C:8104H         LINE#         214
  C:8107H         LINE#         216
  C:8109H         LINE#         218
  C:810BH         LINE#         219
  C:810DH         LINE#         223
  C:8110H         LINE#         224
  C:8113H         LINE#         234
  C:8116H         LINE#         237
  C:8119H         LINE#         239
  C:811CH         LINE#         241
  C:811FH         LINE#         242
  C:8121H         LINE#         243
  C:8124H         LINE#         244
  C:8126H         LINE#         246
  -------         ENDPROC       INITCPU
  -------         PROC          SET_MCU_POWER_DOWN_MODE
  C:862FH         LINE#         249
  C:862FH         LINE#         250
  C:862FH         LINE#         252
  C:8638H         LINE#         254
  C:863AH         LINE#         255
  C:863CH         LINE#         256
  C:863EH         LINE#         258
  C:8640H         LINE#         259
  C:8642H         LINE#         260
  C:8644H         LINE#         262
  C:864AH         LINE#         263
  C:864DH         LINE#         265
BL51 BANKED LINKER/LOCATER V6.22.2.0                                                  04/12/2021  16:41:58  PAGE 16


  C:8653H         LINE#         266
  C:8655H         LINE#         267
  C:8657H         LINE#         268
  C:865AH         LINE#         269
  C:865BH         LINE#         270
  C:865CH         LINE#         271
  C:865DH         LINE#         275
  -------         ENDPROC       SET_MCU_POWER_DOWN_MODE
  -------         PROC          CHECK_ADAP_IN
  C:8813H         LINE#         278
  C:8813H         LINE#         279
  C:8813H         LINE#         281
  C:8819H         LINE#         282
  C:8819H         LINE#         283
  C:8820H         LINE#         285
  C:8826H         LINE#         286
  C:8829H         LINE#         288
  C:882CH         LINE#         289
  C:882CH         LINE#         291
  C:882EH         LINE#         292
  -------         ENDPROC       CHECK_ADAP_IN
  -------         PROC          _SET_PWM
  X:010BH         SYMBOL        index
  X:010CH         SYMBOL        val
  C:7AAEH         LINE#         294
  C:7AB6H         LINE#         295
  C:7AB6H         LINE#         297
  C:7ACFH         LINE#         299
  C:7AE1H         LINE#         300
  C:7AE1H         LINE#         301
  C:7AE1H         LINE#         303
  C:7AE4H         LINE#         304
  C:7AEFH         LINE#         305
  C:7AF2H         LINE#         307
  C:7AF5H         LINE#         308
  C:7AF5H         LINE#         309
  C:7AF7H         LINE#         310
  C:7AF9H         LINE#         311
  C:7AF9H         LINE#         313
  C:7B01H         LINE#         314
  C:7B01H         LINE#         315
  C:7B04H         LINE#         316
  C:7B07H         LINE#         317
  C:7B0AH         LINE#         318
  C:7B10H         LINE#         319
  C:7B12H         LINE#         320
  C:7B1AH         LINE#         321
  C:7B1AH         LINE#         322
  C:7B1DH         LINE#         323
  C:7B20H         LINE#         324
  C:7B23H         LINE#         325
  C:7B2CH         LINE#         326
  C:7B2CH         LINE#         360
  C:7B2CH         LINE#         361
  C:7B2CH         LINE#         362
  C:7B2FH         LINE#         363
  C:7B3AH         LINE#         364
BL51 BANKED LINKER/LOCATER V6.22.2.0                                                  04/12/2021  16:41:58  PAGE 17


  C:7B3DH         LINE#         365
  C:7B3EH         LINE#         366
  C:7B3EH         LINE#         367
  C:7B41H         LINE#         368
  C:7B42H         LINE#         369
  C:7B42H         LINE#         370
  C:7B45H         LINE#         371
  C:7B45H         LINE#         373
  C:7B45H         LINE#         374
  C:7B45H         LINE#         375
  C:7B45H         LINE#         378
  -------         ENDPROC       _SET_PWM
  -------         PROC          TIMER0_INT
  -------         DO            
  D:000FH         SYMBOL        TempKey
  -------         ENDDO         
  C:521EH         LINE#         387
  C:522BH         LINE#         394
  C:522DH         LINE#         397
  C:522FH         LINE#         400
  C:523AH         LINE#         401
  C:523AH         LINE#         402
  C:5248H         LINE#         403
  C:524BH         LINE#         404
  C:524DH         LINE#         405
  C:524DH         LINE#         407
  C:5253H         LINE#         408
  C:5255H         LINE#         409
  C:525EH         LINE#         410
  C:525EH         LINE#         412
  C:5267H         LINE#         413
  C:5271H         LINE#         414
  C:5271H         LINE#         415
  C:5279H         LINE#         416
  C:5281H         LINE#         417
  C:5289H         LINE#         418
  C:528CH         LINE#         419
  C:528EH         LINE#         422
  C:5299H         LINE#         423
  C:529EH         LINE#         425
  C:52A1H         LINE#         427
  C:52BCH         LINE#         428
  C:52BCH         LINE#         429
  C:52CAH         LINE#         430
  C:52D0H         LINE#         431
  C:52D0H         LINE#         432
  C:52E8H         LINE#         433
  C:52E8H         LINE#         434
  C:52F6H         LINE#         435
  C:52FCH         LINE#         436
  C:52FCH         LINE#         437
  C:5314H         LINE#         438
  C:5314H         LINE#         439
  C:5322H         LINE#         440
  C:5328H         LINE#         441
  C:5328H         LINE#         442
  C:5343H         LINE#         443
BL51 BANKED LINKER/LOCATER V6.22.2.0                                                  04/12/2021  16:41:58  PAGE 18


  C:5343H         LINE#         444
  C:5351H         LINE#         445
  C:5357H         LINE#         446
  C:5357H         LINE#         447
  C:536FH         LINE#         448
  C:536FH         LINE#         449
  C:537DH         LINE#         450
  C:5383H         LINE#         451
  C:5383H         LINE#         452
  C:539BH         LINE#         453
  C:539BH         LINE#         454
  C:53A9H         LINE#         455
  C:53AFH         LINE#         456
  C:53AFH         LINE#         457
  C:53CAH         LINE#         458
  C:53CAH         LINE#         459
  C:53D8H         LINE#         460
  C:53DEH         LINE#         461
  C:53DEH         LINE#         462
  C:53F6H         LINE#         463
  C:53F6H         LINE#         464
  C:5404H         LINE#         465
  C:540AH         LINE#         466
  C:540AH         LINE#         468
  C:5412H         LINE#         469
  C:5412H         LINE#         470
  C:5431H         LINE#         471
  C:5436H         LINE#         472
  C:5436H         LINE#         473
  C:5436H         LINE#         474
  C:5436H         LINE#         483
  C:5444H         LINE#         486
  C:544CH         LINE#         487
  C:544FH         LINE#         488
  C:5451H         LINE#         490
  C:5457H         LINE#         491
  C:5457H         LINE#         493
  C:5459H         LINE#         496
  C:5460H         LINE#         497
  C:5465H         LINE#         499
  C:5467H         LINE#         501
  C:5467H         LINE#         502
  C:5471H         LINE#         503
  C:5479H         LINE#         506
  C:5487H         LINE#         507
  C:549BH         LINE#         508
  C:54A5H         LINE#         509
  C:54B3H         LINE#         550
  C:54BFH         LINE#         551
  C:54BFH         LINE#         552
  C:54C7H         LINE#         553
  C:54C7H         LINE#         554
  C:54D8H         LINE#         555
  C:54D8H         LINE#         556
  C:54DBH         LINE#         557
  C:54DDH         LINE#         558
  C:54DFH         LINE#         559
BL51 BANKED LINKER/LOCATER V6.22.2.0                                                  04/12/2021  16:41:58  PAGE 19


  C:54DFH         LINE#         560
  C:54E1H         LINE#         561
  C:54FDH         LINE#         562
  C:54FDH         LINE#         563
  C:5500H         LINE#         564
  C:5500H         LINE#         565
  C:5503H         LINE#         566
  C:5505H         LINE#         567
  C:550AH         LINE#         568
  C:550CH         LINE#         569
  C:550CH         LINE#         570
  C:550EH         LINE#         571
  C:5518H         LINE#         573
  C:551BH         LINE#         574
  C:551BH         LINE#         575
  C:551EH         LINE#         576
  C:5520H         LINE#         577
  C:5526H         LINE#         578
  C:5528H         LINE#         579
  C:5528H         LINE#         581
  C:552EH         LINE#         582
  C:552EH         LINE#         584
  C:5536H         LINE#         585
  C:5538H         LINE#         587
  C:5538H         LINE#         588
  C:554EH         LINE#         589
  C:5551H         LINE#         590
  C:5553H         LINE#         591
  C:5555H         LINE#         593
  C:5555H         LINE#         594
  C:5558H         LINE#         595
  C:555AH         LINE#         596
  C:555AH         LINE#         598
  C:555CH         LINE#         599
  C:5562H         LINE#         600
  C:5562H         LINE#         631
  C:5562H         LINE#         633
  -------         ENDPROC       TIMER0_INT
  -------         PROC          SHOWWORKINGTIMER
  -------         DO            
  X:010AH         SYMBOL        val
  -------         ENDDO         
  C:4A0EH         LINE#         638
  C:4A0EH         LINE#         639
  C:4A0EH         LINE#         642
  C:4A19H         LINE#         644
  C:4A20H         LINE#         645
  C:4A20H         LINE#         646
  C:4A50H         LINE#         647
  C:4A52H         LINE#         648
  C:4A59H         LINE#         649
  C:4A59H         LINE#         650
  C:4A7CH         LINE#         651
  C:4A7EH         LINE#         652
  C:4A87H         LINE#         653
  C:4A87H         LINE#         654
  C:4A9BH         LINE#         655
BL51 BANKED LINKER/LOCATER V6.22.2.0                                                  04/12/2021  16:41:58  PAGE 20


  C:4A9DH         LINE#         657
  C:4A9DH         LINE#         658
  C:4AB3H         LINE#         659
  C:4AB3H         LINE#         663
  C:4AFBH         LINE#         667
  C:4B05H         LINE#         668
  C:4B0FH         LINE#         669
  C:4B18H         LINE#         670
  C:4B22H         LINE#         672
  C:4B2CH         LINE#         673
  C:4B36H         LINE#         674
  C:4B43H         LINE#         675
  C:4B4BH         LINE#         677
  C:4B54H         LINE#         683
  C:4B5EH         LINE#         684
  C:4B5EH         LINE#         685
  C:4BBDH         LINE#         686
  C:4BCBH         LINE#         688
  C:4BCDH         LINE#         690
  C:4BCDH         LINE#         694
  C:4C09H         LINE#         696
  C:4C17H         LINE#         697
  C:4C2EH         LINE#         699
  C:4C42H         LINE#         703
  C:4C42H         LINE#         706
  C:4C95H         LINE#         710
  C:4C9FH         LINE#         711
  C:4CA9H         LINE#         712
  C:4CB3H         LINE#         713
  C:4CBDH         LINE#         714
  C:4CC7H         LINE#         715
  C:4CD1H         LINE#         716
  C:4CDBH         LINE#         717
  C:4CE5H         LINE#         718
  C:4CEFH         LINE#         719
  C:4CFAH         LINE#         721
  C:4D04H         LINE#         722
  C:4D0CH         LINE#         723
  C:4D16H         LINE#         724
  C:4D1EH         LINE#         725
  C:4D28H         LINE#         726
  C:4D30H         LINE#         727
  C:4D3AH         LINE#         728
  C:4D42H         LINE#         729
  C:4D4AH         LINE#         730
  C:4D54H         LINE#         731
  C:4D5EH         LINE#         732
  C:4D68H         LINE#         733
  C:4D72H         LINE#         734
  C:4D7CH         LINE#         735
  C:4D86H         LINE#         736
  C:4D90H         LINE#         737
  C:4D9AH         LINE#         738
  C:4DA4H         LINE#         739
  C:4DAEH         LINE#         740
  C:4DB9H         LINE#         742
  C:4DC5H         LINE#         743
BL51 BANKED LINKER/LOCATER V6.22.2.0                                                  04/12/2021  16:41:58  PAGE 21


  C:4DD0H         LINE#         745
  C:4DDAH         LINE#         746
  C:4DE2H         LINE#         747
  C:4DECH         LINE#         748
  C:4DF4H         LINE#         749
  C:4E00H         LINE#         750
  C:4E06H         LINE#         752
  C:4E1EH         LINE#         770
  -------         ENDPROC       SHOWWORKINGTIMER
  -------         PROC          INITVARS
  -------         DO            
  D:0007H         SYMBOL        j
  -------         ENDDO         
  C:88B0H         LINE#         780
  C:88B0H         LINE#         781
  C:88B0H         LINE#         783
  C:88BCH         LINE#         784
  C:88C5H         LINE#         786
  -------         ENDPROC       INITVARS
  -------         PROC          _POWERLED
  D:0007H         SYMBOL        flag
  C:7EE6H         LINE#         792
  C:7EE6H         LINE#         793
  C:7EE6H         LINE#         795
  C:7F1AH         LINE#         796
  C:7F1AH         LINE#         797
  C:7F1AH         LINE#         798
  C:7F1CH         LINE#         799
  C:7F1EH         LINE#         800
  C:7F1FH         LINE#         801
  C:7F1FH         LINE#         802
  C:7F21H         LINE#         803
  C:7F23H         LINE#         804
  C:7F24H         LINE#         805
  C:7F24H         LINE#         806
  C:7F24H         LINE#         807
  C:7F24H         LINE#         808
  C:7F26H         LINE#         809
  C:7F26H         LINE#         810
  C:7F26H         LINE#         811
  C:7F26H         LINE#         812
  C:7F28H         LINE#         813
  C:7F28H         LINE#         814
  C:7F2BH         LINE#         815
  C:7F2BH         LINE#         816
  C:7F2DH         LINE#         817
  C:7F2FH         LINE#         818
  C:7F30H         LINE#         825
  C:7F30H         LINE#         826
  C:7F33H         LINE#         827
  C:7F33H         LINE#         828
  C:7F35H         LINE#         829
  C:7F37H         LINE#         830
  C:7F38H         LINE#         832
  C:7F38H         LINE#         833
  C:7F38H         LINE#         834
  C:7F38H         LINE#         835
BL51 BANKED LINKER/LOCATER V6.22.2.0                                                  04/12/2021  16:41:58  PAGE 22


  C:7F38H         LINE#         836
  C:7F3AH         LINE#         837
  C:7F3AH         LINE#         838
  C:7F3DH         LINE#         839
  C:7F3DH         LINE#         840
  C:7F3FH         LINE#         841
  C:7F41H         LINE#         842
  C:7F42H         LINE#         844
  C:7F42H         LINE#         845
  C:7F44H         LINE#         846
  C:7F46H         LINE#         847
  C:7F46H         LINE#         848
  C:7F47H         LINE#         849
  C:7F47H         LINE#         850
  C:7F4AH         LINE#         851
  C:7F4AH         LINE#         852
  C:7F4CH         LINE#         853
  C:7F4EH         LINE#         855
  C:7F4EH         LINE#         856
  C:7F50H         LINE#         857
  C:7F50H         LINE#         859
  C:7F52H         LINE#         861
  C:7F53H         LINE#         862
  C:7F53H         LINE#         863
  C:7F56H         LINE#         864
  C:7F56H         LINE#         865
  C:7F58H         LINE#         866
  C:7F5AH         LINE#         868
  C:7F5AH         LINE#         869
  C:7F5CH         LINE#         870
  C:7F5CH         LINE#         872
  C:7F5EH         LINE#         875
  C:7F5EH         LINE#         876
  C:7F5EH         LINE#         877
  C:7F5EH         LINE#         878
  C:7F5EH         LINE#         879
  -------         ENDPROC       _POWERLED
  -------         PROC          EXT1_INT
  C:0026H         LINE#         888
  C:0026H         LINE#         890
  C:0028H         LINE#         891
  -------         ENDPROC       EXT1_INT
  -------         PROC          SERIAL_INT
  C:865EH         LINE#         914
  C:8665H         LINE#         920
  C:8668H         LINE#         929
  C:866FH         LINE#         930
  C:8671H         LINE#         931
  C:867FH         LINE#         935
  C:8681H         LINE#         937
  C:8681H         LINE#         939
  C:8684H         LINE#         940
  C:8686H         LINE#         941
  C:8688H         LINE#         942
  C:8688H         LINE#         943
  -------         ENDPROC       SERIAL_INT
  -------         PROC          SERIAL2_INT
BL51 BANKED LINKER/LOCATER V6.22.2.0                                                  04/12/2021  16:41:58  PAGE 23


  C:847DH         LINE#         947
  C:8484H         LINE#         952
  C:848CH         LINE#         953
  C:848CH         LINE#         955
  C:848FH         LINE#         957
  C:8496H         LINE#         960
  C:8498H         LINE#         961
  C:84A6H         LINE#         962
  C:84A6H         LINE#         964
  C:84AEH         LINE#         965
  C:84AEH         LINE#         966
  C:84B1H         LINE#         967
  C:84B3H         LINE#         968
  C:84B3H         LINE#         969
  -------         ENDPROC       SERIAL2_INT
  -------         PROC          RS_READY
  C:8966H         LINE#         978
  C:8966H         LINE#         979
  C:8966H         LINE#         980
  C:896EH         LINE#         981
  C:8970H         LINE#         982
  -------         ENDPROC       RS_READY
  -------         PROC          RS_RX
  -------         DO            
  D:0007H         SYMBOL        ret
  -------         ENDDO         
  C:882FH         LINE#         987
  C:882FH         LINE#         988
  C:882FH         LINE#         991
  C:8831H         LINE#         992
  C:8838H         LINE#         993
  C:883AH         LINE#         994
  C:8845H         LINE#         995
  C:8848H         LINE#         996
  C:884AH         LINE#         998
  C:884AH         LINE#         999
  -------         ENDPROC       RS_RX
  -------         PROC          RS2_READY
  C:8971H         LINE#         1005
  C:8971H         LINE#         1006
  C:8971H         LINE#         1007
  C:8979H         LINE#         1008
  C:897BH         LINE#         1009
  -------         ENDPROC       RS2_READY
  -------         PROC          RS2_RX
  -------         DO            
  D:0007H         SYMBOL        ret
  -------         ENDDO         
  C:87F5H         LINE#         1013
  C:87F5H         LINE#         1014
  C:87F5H         LINE#         1017
  C:87F8H         LINE#         1018
  C:87FFH         LINE#         1019
  C:8801H         LINE#         1020
  C:880CH         LINE#         1021
  C:880FH         LINE#         1022
  C:8812H         LINE#         1024
BL51 BANKED LINKER/LOCATER V6.22.2.0                                                  04/12/2021  16:41:58  PAGE 24


  C:8812H         LINE#         1025
  -------         ENDPROC       RS2_RX
  -------         PROC          _RS_TX
  D:0007H         SYMBOL        tx_buf
  C:0003H         LINE#         1031
  C:0003H         LINE#         1032
  C:0003H         LINE#         1033
  C:0006H         LINE#         1034
  C:0008H         LINE#         1035
  C:000AH         LINE#         1036
  -------         ENDPROC       _RS_TX
  -------         PROC          _RS2_TX
  D:0007H         SYMBOL        tx_buf
  C:8985H         LINE#         1042
  C:8985H         LINE#         1043
  C:8985H         LINE#         1045
  C:8988H         LINE#         1046
  C:898AH         LINE#         1047
  C:898CH         LINE#         1048
  -------         ENDPROC       _RS2_TX
  -------         PROC          TIMER2_INT
  C:894BH         LINE#         1089
  C:894DH         LINE#         1248
  C:894FH         LINE#         1250
  C:8957H         LINE#         1252
  -------         ENDPROC       TIMER2_INT
  -------         PROC          _DELAY
  D:0007H         SYMBOL        cnt
  -------         DO            
  D:0004H         SYMBOL        ttic01
  -------         ENDDO         
  C:8898H         LINE#         1254
  C:8898H         LINE#         1255
  C:8898H         LINE#         1258
  C:88A6H         LINE#         1259
  C:88A6H         LINE#         1261
  C:88AFH         LINE#         1262
  -------         ENDPROC       _DELAY
  -------         PROC          INT2_INT
  C:87B7H         LINE#         1266
  C:87BDH         LINE#         1268
  C:87BFH         LINE#         1269
  C:87C1H         LINE#         1270
  C:87C4H         LINE#         1271
  C:87CAH         LINE#         1272
  C:87CFH         LINE#         1273
  -------         ENDPROC       INT2_INT
  -------         PROC          INT3_INT
  C:87D6H         LINE#         1275
  C:87DCH         LINE#         1277
  C:87DEH         LINE#         1278
  C:87E0H         LINE#         1279
  C:87E3H         LINE#         1280
  C:87E9H         LINE#         1281
  C:87EEH         LINE#         1282
  -------         ENDPROC       INT3_INT
  -------         ENDMOD        CPU
BL51 BANKED LINKER/LOCATER V6.22.2.0                                                  04/12/2021  16:41:58  PAGE 25



  -------         MODULE        ETC_EEP
  C:0000H         SYMBOL        _ICE_DUMMY_
  C:897CH         PUBLIC        _SaveDebugLevelEE
  C:82A9H         PUBLIC        GetProjectNameEE
  C:75DEH         PUBLIC        ClearBasicEE
  C:8866H         PUBLIC        SaveFWRevEE
  C:8215H         PUBLIC        GetFWRevEE
  -------         PROC          GETFWREVEE
  -------         DO            
  D:0004H         SYMBOL        rev
  -------         ENDDO         
  C:8215H         LINE#         17
  C:8215H         LINE#         18
  C:8215H         LINE#         19
  C:821BH         LINE#         26
  C:825EH         LINE#         28
  C:825EH         LINE#         29
  -------         ENDPROC       GETFWREVEE
  -------         PROC          GETPROJECTNAMEEE
  -------         DO            
  X:010AH         SYMBOL        rev
  -------         ENDDO         
  C:82A9H         LINE#         31
  C:82A9H         LINE#         32
  C:82A9H         LINE#         33
  C:82AFH         LINE#         35
  C:82BDH         LINE#         36
  C:82CCH         LINE#         37
  C:82DBH         LINE#         38
  C:82EAH         LINE#         40
  C:82EFH         LINE#         41
  -------         ENDPROC       GETPROJECTNAMEEE
  -------         PROC          SAVEFWREVEE
  C:8866H         LINE#         43
  C:8866H         LINE#         44
  C:8866H         LINE#         51
  C:886EH         LINE#         52
  C:8876H         LINE#         53
  -------         ENDPROC       SAVEFWREVEE
  -------         PROC          _SAVEDEBUGLEVELEE
  D:0007H         SYMBOL        dl
  C:897CH         LINE#         59
  C:897CH         LINE#         60
  C:897CH         LINE#         61
  -------         ENDPROC       _SAVEDEBUGLEVELEE
  -------         PROC          CLEARBASICEE
  C:75DEH         LINE#         67
  C:75DEH         LINE#         68
  C:75DEH         LINE#         70
  C:75E7H         LINE#         72
  C:75EFH         LINE#         73
  C:75F8H         LINE#         74
  C:7601H         LINE#         75
  C:760AH         LINE#         77
  C:7613H         LINE#         80
  C:761CH         LINE#         82
BL51 BANKED LINKER/LOCATER V6.22.2.0                                                  04/12/2021  16:41:58  PAGE 26


  C:7624H         LINE#         84
  C:762CH         LINE#         86
  C:7634H         LINE#         88
  C:763DH         LINE#         90
  C:7646H         LINE#         91
  C:764EH         LINE#         93
  C:7657H         LINE#         94
  C:765FH         LINE#         96
  C:7668H         LINE#         97
  C:7670H         LINE#         99
  C:7679H         LINE#         100
  C:7681H         LINE#         102
  C:7689H         LINE#         103
  C:7691H         LINE#         104
  -------         ENDPROC       CLEARBASICEE
  -------         ENDMOD        ETC_EEP

  -------         MODULE        HS_DVRPROTOCOL
  C:0000H         SYMBOL        _ICE_DUMMY_
  X:0000H         PUBLIC        protocol_data_count
  D:00B2H         PUBLIC        P3M1
  X:0001H         PUBLIC        protocol_len
  X:0002H         PUBLIC        protocol_type
  B:0021H.5       PUBLIC        protocol_escape_flag
  X:0003H         PUBLIC        protocol_chksum
  X:0004H         PUBLIC        protocol_param
  X:0005H         PUBLIC        protocol_data
  C:2B2AH         PUBLIC        DvrReceivePaser
  X:0105H         PUBLIC        protocol_state
  -------         PROC          DVRRECEIVEPASER
  -------         DO            
  X:0106H         SYMBOL        c
  -------         ENDDO         
  C:2B2AH         LINE#         41
  C:2B2AH         LINE#         42
  C:2B2AH         LINE#         44
  C:2B33H         LINE#         45
  C:2B33H         LINE#         46
  C:2B3BH         LINE#         48
  C:2B3FH         LINE#         49
  C:2B3FH         LINE#         51
  C:2B4AH         LINE#         53
  C:2B4CH         LINE#         54
  C:2B52H         LINE#         55
  C:2B58H         LINE#         57
  C:2B58H         LINE#         59
  C:2B61H         LINE#         60
  C:2B61H         LINE#         61
  C:2B64H         LINE#         63
  C:2B64H         LINE#         65
  C:2B67H         LINE#         66
  C:2B67H         LINE#         67
  C:2B69H         LINE#         68
  C:2B70H         LINE#         69
  C:2B70H         LINE#         71
  C:2B79H         LINE#         72
  C:2B79H         LINE#         73
BL51 BANKED LINKER/LOCATER V6.22.2.0                                                  04/12/2021  16:41:58  PAGE 27


  C:2B89H         LINE#         74
  C:2B89H         LINE#         76
  C:2B9EH         LINE#         77
  C:2B9EH         LINE#         78
  C:2B9EH         LINE#         79
  C:2BA6H         LINE#         80
  C:2BBBH         LINE#         81
  C:2BBBH         LINE#         82
  C:2BBBH         LINE#         83
  C:2BBBH         LINE#         84
  C:2BBBH         LINE#         85
  C:2BBBH         LINE#         86
  C:2BBBH         LINE#         87
  C:2BBBH         LINE#         88
  C:2BBBH         LINE#         89
  C:2BBBH         LINE#         90
  C:2BBBH         LINE#         91
  C:2BBBH         LINE#         92
  C:2BBBH         LINE#         93
  C:2BBBH         LINE#         94
  C:2BBBH         LINE#         95
  C:2BBBH         LINE#         96
  C:2BBBH         LINE#         97
  C:2BBBH         LINE#         99
  C:2BC1H         LINE#         100
  C:2BC2H         LINE#         101
  C:2BC2H         LINE#         104
  C:2BC2H         LINE#         105
  C:2BC2H         LINE#         107
  C:2BC2H         LINE#         108
  C:2BCAH         LINE#         109
  C:2BE1H         LINE#         110
  C:2BE1H         LINE#         111
  C:2BE1H         LINE#         112
  C:2BE1H         LINE#         113
  C:2BE1H         LINE#         114
  C:2BE1H         LINE#         115
  C:2BE1H         LINE#         116
  C:2BE1H         LINE#         117
  C:2BE1H         LINE#         118
  C:2BE1H         LINE#         119
  C:2BE1H         LINE#         120
  C:2BE1H         LINE#         121
  C:2BE1H         LINE#         122
  C:2BE1H         LINE#         123
  C:2BE1H         LINE#         124
  C:2BE1H         LINE#         125
  C:2BE1H         LINE#         126
  C:2BE1H         LINE#         128
  C:2BE7H         LINE#         129
  C:2BE7H         LINE#         130
  C:2BEDH         LINE#         131
  C:2BEEH         LINE#         133
  C:2BEEH         LINE#         134
  C:2BF3H         LINE#         135
  C:2BF9H         LINE#         138
  C:2BFFH         LINE#         140
BL51 BANKED LINKER/LOCATER V6.22.2.0                                                  04/12/2021  16:41:58  PAGE 28


  C:2BFFH         LINE#         141
  C:2C01H         LINE#         142
  C:2C01H         LINE#         143
  C:2C01H         LINE#         144
  C:2C04H         LINE#         145
  C:2C04H         LINE#         146
  C:2C04H         LINE#         148
  C:2C04H         LINE#         149
  C:2C1DH         LINE#         150
  C:2C1DH         LINE#         151
  C:2C1DH         LINE#         152
  C:2C1DH         LINE#         153
  C:2C1DH         LINE#         154
  C:2C1DH         LINE#         155
  C:2C1DH         LINE#         156
  C:2C1DH         LINE#         157
  C:2C1DH         LINE#         158
  C:2C1DH         LINE#         159
  C:2C1DH         LINE#         160
  C:2C1DH         LINE#         161
  C:2C1DH         LINE#         162
  C:2C1DH         LINE#         163
  C:2C1DH         LINE#         164
  C:2C1DH         LINE#         165
  C:2C1DH         LINE#         168
  C:2C31H         LINE#         169
  C:2C37H         LINE#         170
  C:2C41H         LINE#         171
  C:2C47H         LINE#         173
  C:2C52H         LINE#         175
  C:2C52H         LINE#         177
  C:2C5DH         LINE#         180
  C:2C5DH         LINE#         181
  C:2C5DH         LINE#         182
  C:2C5DH         LINE#         183
  C:2C60H         LINE#         184
  C:2C60H         LINE#         185
  C:2C60H         LINE#         187
  C:2C60H         LINE#         188
  C:2C6FH         LINE#         189
  C:2C6FH         LINE#         192
  C:2C87H         LINE#         194
  C:2CC2H         LINE#         195
  C:2CC2H         LINE#         196
  C:2CC2H         LINE#         198
  C:2CCDH         LINE#         200
  C:2CD4H         LINE#         201
  C:2CDDH         LINE#         202
  C:2CEAH         LINE#         203
  C:2CEAH         LINE#         204
  C:2CEEH         LINE#         205
  C:2CF3H         LINE#         206
  C:2CF8H         LINE#         207
  C:2CF8H         LINE#         208
  C:2D01H         LINE#         209
  C:2D0AH         LINE#         210
  C:2D0DH         LINE#         211
BL51 BANKED LINKER/LOCATER V6.22.2.0                                                  04/12/2021  16:41:58  PAGE 29


  C:2D10H         LINE#         212
  C:2D10H         LINE#         214
  C:2D1BH         LINE#         216
  C:2D20H         LINE#         217
  C:2D2CH         LINE#         218
  C:2D32H         LINE#         219
  C:2D35H         LINE#         220
  C:2D35H         LINE#         222
  C:2D40H         LINE#         225
  C:2D46H         LINE#         226
  C:2D49H         LINE#         227
  C:2D49H         LINE#         229
  C:2D54H         LINE#         232
  C:2D5AH         LINE#         233
  C:2D5DH         LINE#         234
  C:2D5DH         LINE#         236
  C:2D68H         LINE#         237
  C:2D7EH         LINE#         238
  C:2D94H         LINE#         239
  C:2DAAH         LINE#         240
  C:2DC0H         LINE#         241
  C:2DD6H         LINE#         242
  C:2DECH         LINE#         243
  C:2E02H         LINE#         244
  C:2E18H         LINE#         247
  C:2E39H         LINE#         248
  C:2E5AH         LINE#         250
  C:2E7BH         LINE#         251
  C:2E9CH         LINE#         253
  C:2EBDH         LINE#         254
  C:2EDEH         LINE#         256
  C:2EFFH         LINE#         257
  C:2F20H         LINE#         259
  C:2F2CH         LINE#         260
  C:2F38H         LINE#         262
  C:2F44H         LINE#         263
  C:2F50H         LINE#         265
  C:2F5CH         LINE#         266
  C:2F68H         LINE#         268
  C:2F74H         LINE#         269
  C:2F80H         LINE#         271
  C:2F86H         LINE#         273
  C:2F89H         LINE#         275
  C:2F89H         LINE#         277
  C:2F94H         LINE#         281
  C:2FA1H         LINE#         282
  C:2FA4H         LINE#         284
  C:2FB6H         LINE#         286
  C:2FBFH         LINE#         287
  C:2FC4H         LINE#         289
  C:2FCEH         LINE#         290
  C:2FD7H         LINE#         317
  C:2FDAH         LINE#         319
  C:2FDAH         LINE#         321
  C:2FE5H         LINE#         324
  C:2FEBH         LINE#         325
  C:2FEBH         LINE#         326
BL51 BANKED LINKER/LOCATER V6.22.2.0                                                  04/12/2021  16:41:58  PAGE 30


  C:2FF2H         LINE#         328
  C:2FF8H         LINE#         330
  C:2FFBH         LINE#         331
  C:3006H         LINE#         332
  C:3006H         LINE#         333
  C:300BH         LINE#         334
  C:3012H         LINE#         336
  C:3018H         LINE#         338
  C:3018H         LINE#         339
  C:301BH         LINE#         341
  C:301BH         LINE#         343
  C:3026H         LINE#         345
  C:302CH         LINE#         346
  C:302FH         LINE#         348
  C:302FH         LINE#         350
  C:303AH         LINE#         353
  C:3040H         LINE#         354
  C:3040H         LINE#         355
  C:3047H         LINE#         356
  C:304CH         LINE#         359
  C:3051H         LINE#         360
  C:3056H         LINE#         361
  C:305BH         LINE#         362
  C:3060H         LINE#         363
  C:3065H         LINE#         364
  C:306AH         LINE#         366
  C:3070H         LINE#         368
  C:3073H         LINE#         369
  C:307BH         LINE#         370
  C:307BH         LINE#         371
  C:3081H         LINE#         372
  C:3081H         LINE#         373
  C:3081H         LINE#         374
  C:3083H         LINE#         375
  C:308EH         LINE#         376
  C:308EH         LINE#         377
  C:3095H         LINE#         378
  C:3098H         LINE#         379
  C:30A1H         LINE#         380
  C:30A6H         LINE#         381
  C:30A6H         LINE#         383
  C:30A9H         LINE#         385
  C:30A9H         LINE#         387
  C:30B4H         LINE#         390
  C:30BCH         LINE#         391
  C:30BCH         LINE#         392
  C:30C3H         LINE#         393
  C:30C8H         LINE#         395
  C:30D3H         LINE#         397
  C:30D5H         LINE#         398
  C:30E3H         LINE#         399
  C:30E3H         LINE#         400
  C:30EAH         LINE#         401
  C:30EFH         LINE#         402
  C:30F6H         LINE#         404
  C:3102H         LINE#         405
  C:3106H         LINE#         406
BL51 BANKED LINKER/LOCATER V6.22.2.0                                                  04/12/2021  16:41:58  PAGE 31


  C:3106H         LINE#         407
  C:3116H         LINE#         408
  C:3116H         LINE#         409
  C:311DH         LINE#         410
  C:3124H         LINE#         411
  C:3129H         LINE#         412
  C:3130H         LINE#         413
  C:313AH         LINE#         414
  C:3142H         LINE#         416
  C:314DH         LINE#         418
  C:3159H         LINE#         419
  C:315DH         LINE#         420
  C:315FH         LINE#         421
  C:316FH         LINE#         422
  C:316FH         LINE#         423
  C:3174H         LINE#         425
  C:317EH         LINE#         427
  C:317EH         LINE#         429
  C:3183H         LINE#         431
  C:318EH         LINE#         432
  C:3194H         LINE#         434
  C:3197H         LINE#         436
  C:3197H         LINE#         438
  C:31A2H         LINE#         440
  C:31A8H         LINE#         441
  C:31ABH         LINE#         443
  C:31ABH         LINE#         445
  C:31B3H         LINE#         446
  C:31B3H         LINE#         447
  C:31BBH         LINE#         448
  C:31C1H         LINE#         449
  C:31C3H         LINE#         451
  C:31C3H         LINE#         452
  C:31CBH         LINE#         453
  C:31D0H         LINE#         454
  C:31D0H         LINE#         457
  C:31E5H         LINE#         461
  C:31E8H         LINE#         462
  C:31E8H         LINE#         463
  C:31F3H         LINE#         464
  C:31F8H         LINE#         466
  C:31FBH         LINE#         469
  C:3213H         LINE#         471
  C:321CH         LINE#         474
  C:321EH         LINE#         475
  C:321EH         LINE#         477
  C:3229H         LINE#         479
  C:322FH         LINE#         480
  C:3231H         LINE#         481
  C:3231H         LINE#         483
  C:323CH         LINE#         485
  C:3245H         LINE#         486
  C:3247H         LINE#         487
  C:3247H         LINE#         489
  C:324FH         LINE#         490
  C:3256H         LINE#         492
  C:325BH         LINE#         495
BL51 BANKED LINKER/LOCATER V6.22.2.0                                                  04/12/2021  16:41:58  PAGE 32


  C:3273H         LINE#         497
  C:3275H         LINE#         498
  C:3275H         LINE#         499
  C:3275H         LINE#         500
  C:3275H         LINE#         502
  C:3275H         LINE#         504
  C:3275H         LINE#         506
  C:327EH         LINE#         508
  C:327EH         LINE#         509
  C:3283H         LINE#         510
  C:3283H         LINE#         511
  C:3283H         LINE#         512
  C:3283H         LINE#         513
  C:3283H         LINE#         514
  C:3283H         LINE#         517
  -------         ENDPROC       DVRRECEIVEPASER
  -------         ENDMOD        HS_DVRPROTOCOL

  -------         MODULE        I2C
  C:0000H         SYMBOL        _ICE_DUMMY_
  B:0090H.0       PUBLIC        P1_0
  B:0090H.1       PUBLIC        P1_1
  C:8596H         PUBLIC        I2CReadData
  C:84B8H         PUBLIC        _ReadI2C
  C:7E6BH         PUBLIC        _I2CWriteData
  C:84F1H         PUBLIC        _ReadAD5110
  C:86E5H         PUBLIC        _WriteI2C
  C:8928H         PUBLIC        I2CStart
  C:88DFH         PUBLIC        I2Cdelay
  C:870EH         PUBLIC        _ReadEEP
  C:8777H         PUBLIC        _WriteAD5110
  C:0016H         PUBLIC        I2CStop
  C:8561H         PUBLIC        AD5110_I2CReadData
  C:82F0H         PUBLIC        _WriteEEP
  C:7DEDH         PUBLIC        _AD5110_I2CWriteData
  C:88DBH         SYMBOL        L?0062
  -------         PROC          L?0061
  -------         ENDPROC       L?0061
  C:88DBH         SYMBOL        L?0062
  -------         PROC          I2CDELAY
  -------         DO            
  D:0007H         SYMBOL        i
  -------         ENDDO         
  C:88DFH         LINE#         34
  C:88DFH         LINE#         35
  C:88DFH         LINE#         37
  C:88EBH         LINE#         38
  C:88EEH         LINE#         39
  -------         ENDPROC       I2CDELAY
  -------         PROC          _WRITEEEP
  X:010EH         SYMBOL        index
  X:0110H         SYMBOL        dat
  -------         DO            
  X:0111H         SYMBOL        addr
  -------         ENDDO         
  C:82F0H         LINE#         42
  C:82FBH         LINE#         43
BL51 BANKED LINKER/LOCATER V6.22.2.0                                                  04/12/2021  16:41:58  PAGE 33


  C:82FBH         LINE#         46
  C:8313H         LINE#         48
  C:8316H         LINE#         49
  C:831EH         LINE#         50
  C:8327H         LINE#         51
  C:832FH         LINE#         52
  C:8332H         LINE#         58
  -------         ENDPROC       _WRITEEEP
  -------         PROC          _READEEP
  D:0004H         SYMBOL        index
  -------         DO            
  X:0136H         SYMBOL        val
  D:0007H         SYMBOL        addr
  -------         ENDDO         
  C:870EH         LINE#         61
  C:8712H         LINE#         62
  C:8712H         LINE#         66
  C:8721H         LINE#         68
  C:8729H         LINE#         73
  C:872EH         LINE#         74
  C:8733H         LINE#         75
  -------         ENDPROC       _READEEP
  -------         PROC          _READI2C
  X:0137H         SYMBOL        addr
  X:0138H         SYMBOL        index
  -------         DO            
  X:0139H         SYMBOL        val
  -------         ENDDO         
  C:84B8H         LINE#         77
  C:84C0H         LINE#         78
  C:84C0H         LINE#         81
  C:84C3H         LINE#         82
  C:84CBH         LINE#         83
  C:84D3H         LINE#         84
  C:84D6H         LINE#         85
  C:84E0H         LINE#         86
  C:84E8H         LINE#         87
  C:84EBH         LINE#         89
  C:84F0H         LINE#         90
  -------         ENDPROC       _READI2C
  -------         PROC          _WRITEI2C
  X:010DH         SYMBOL        addr
  X:010EH         SYMBOL        index
  X:010FH         SYMBOL        val
  C:86E5H         LINE#         94
  C:86F0H         LINE#         95
  C:86F0H         LINE#         96
  C:86F3H         LINE#         97
  C:86FBH         LINE#         98
  C:8703H         LINE#         99
  C:870BH         LINE#         100
  -------         ENDPROC       _WRITEI2C
  -------         PROC          I2CSTART
  C:8928H         LINE#         106
  C:8928H         LINE#         107
  C:8928H         LINE#         108
  C:892DH         LINE#         109
BL51 BANKED LINKER/LOCATER V6.22.2.0                                                  04/12/2021  16:41:58  PAGE 34


  C:8932H         LINE#         110
  C:8937H         LINE#         111
  C:8939H         LINE#         112
  -------         ENDPROC       I2CSTART
  -------         PROC          I2CSTOP
  C:0016H         LINE#         114
  C:0016H         LINE#         115
  C:0016H         LINE#         116
  C:001BH         LINE#         117
  C:0020H         LINE#         118
  C:0022H         LINE#         119
  -------         ENDPROC       I2CSTOP
  -------         PROC          _I2CWRITEDATA
  D:0006H         SYMBOL        value
  C:7E6BH         LINE#         121
  C:7E6DH         LINE#         122
  C:7E6DH         LINE#         124
  C:7E7AH         LINE#         125
  C:7E87H         LINE#         126
  C:7E94H         LINE#         127
  C:7EA1H         LINE#         129
  C:7EAEH         LINE#         130
  C:7EBBH         LINE#         131
  C:7EC8H         LINE#         132
  C:7ED5H         LINE#         135
  C:7ED7H         LINE#         136
  C:7ED9H         LINE#         137
  C:7EDBH         LINE#         138
  C:7EDDH         LINE#         140
  C:7EDFH         LINE#         141
  C:7EE1H         LINE#         142
  C:7EE3H         LINE#         143
  C:7EE5H         LINE#         144
  -------         ENDPROC       _I2CWRITEDATA
  -------         PROC          I2CREADDATA
  -------         DO            
  D:0004H         SYMBOL        i
  D:0006H         SYMBOL        value
  -------         ENDDO         
  C:8596H         LINE#         146
  C:8596H         LINE#         147
  C:8596H         LINE#         149
  C:8598H         LINE#         151
  C:859DH         LINE#         152
  C:859FH         LINE#         154
  C:85A2H         LINE#         155
  C:85A4H         LINE#         156
  C:85A8H         LINE#         157
  C:85AEH         LINE#         158
  C:85B0H         LINE#         159
  C:85BBH         LINE#         160
  C:85BEH         LINE#         162
  C:85C0H         LINE#         163
  C:85C2H         LINE#         164
  C:85C4H         LINE#         165
  C:85C6H         LINE#         167
  C:85C8H         LINE#         169
BL51 BANKED LINKER/LOCATER V6.22.2.0                                                  04/12/2021  16:41:58  PAGE 35


  -------         ENDPROC       I2CREADDATA
  -------         PROC          _AD5110_I2CWRITEDATA
  D:0006H         SYMBOL        value
  C:7DEDH         LINE#         172
  C:7DEFH         LINE#         173
  C:7DEFH         LINE#         175
  C:7DFCH         LINE#         176
  C:7E09H         LINE#         177
  C:7E16H         LINE#         178
  C:7E23H         LINE#         180
  C:7E30H         LINE#         181
  C:7E3DH         LINE#         182
  C:7E4AH         LINE#         183
  C:7E57H         LINE#         186
  C:7E59H         LINE#         187
  C:7E5BH         LINE#         188
  C:7E5DH         LINE#         189
  C:7E5FH         LINE#         190
  C:7E62H         LINE#         191
  C:7E64H         LINE#         192
  C:7E66H         LINE#         193
  C:7E68H         LINE#         194
  C:7E6AH         LINE#         196
  -------         ENDPROC       _AD5110_I2CWRITEDATA
  -------         PROC          AD5110_I2CREADDATA
  -------         DO            
  D:0004H         SYMBOL        i
  D:0006H         SYMBOL        value
  -------         ENDDO         
  C:8561H         LINE#         199
  C:8561H         LINE#         200
  C:8561H         LINE#         202
  C:8563H         LINE#         204
  C:8568H         LINE#         205
  C:856AH         LINE#         207
  C:856DH         LINE#         208
  C:856FH         LINE#         209
  C:8573H         LINE#         210
  C:8579H         LINE#         212
  C:857BH         LINE#         213
  C:8586H         LINE#         215
  C:8588H         LINE#         217
  C:858AH         LINE#         218
  C:858CH         LINE#         219
  C:858EH         LINE#         220
  C:8591H         LINE#         221
  C:8593H         LINE#         224
  C:8595H         LINE#         226
  -------         ENDPROC       AD5110_I2CREADDATA
  -------         PROC          _WRITEAD5110
  D:0002H         SYMBOL        index
  D:0005H         SYMBOL        dat
  -------         DO            
  D:0006H         SYMBOL        addr
  -------         ENDDO         
  C:8777H         LINE#         229
  C:877BH         LINE#         230
BL51 BANKED LINKER/LOCATER V6.22.2.0                                                  04/12/2021  16:41:58  PAGE 36


  C:877BH         LINE#         233
  C:877DH         LINE#         235
  C:8780H         LINE#         236
  C:8785H         LINE#         237
  C:878AH         LINE#         238
  C:878FH         LINE#         239
  C:8792H         LINE#         245
  -------         ENDPROC       _WRITEAD5110
  -------         PROC          _READAD5110
  D:0004H         SYMBOL        index
  -------         DO            
  X:0108H         SYMBOL        val
  D:0003H         SYMBOL        addr
  -------         ENDDO         
  C:84F1H         LINE#         249
  C:84F5H         LINE#         250
  C:84F5H         LINE#         254
  C:84F7H         LINE#         256
  C:84FAH         LINE#         257
  C:84FFH         LINE#         258
  C:8504H         LINE#         260
  C:8509H         LINE#         262
  C:850CH         LINE#         263
  C:8514H         LINE#         264
  C:851CH         LINE#         265
  C:851FH         LINE#         270
  C:8524H         LINE#         271
  C:8529H         LINE#         272
  -------         ENDPROC       _READAD5110
  -------         ENDMOD        I2C

  -------         MODULE        KEYREMO
  C:0000H         SYMBOL        _ICE_DUMMY_
  C:884BH         PUBLIC        _GetKey
  C:8127H         PUBLIC        Scankey
  -------         PROC          SCANKEY
  C:8127H         LINE#         33
  C:8127H         LINE#         34
  C:8127H         LINE#         36
  C:812FH         LINE#         37
  C:812FH         LINE#         39
  C:813FH         LINE#         40
  C:813FH         LINE#         41
  C:8143H         LINE#         42
  C:8149H         LINE#         43
  C:814BH         LINE#         44
  C:815BH         LINE#         45
  C:815BH         LINE#         46
  C:815FH         LINE#         47
  C:8163H         LINE#         48
  C:8167H         LINE#         49
  C:816EH         LINE#         50
  C:816EH         LINE#         52
  C:8177H         LINE#         53
  C:8177H         LINE#         55
  -------         ENDPROC       SCANKEY
  -------         PROC          _GETKEY
BL51 BANKED LINKER/LOCATER V6.22.2.0                                                  04/12/2021  16:41:58  PAGE 37


  D:0007H         SYMBOL        repeat
  -------         DO            
  B:0021H.3       SYMBOL        ready
  -------         ENDDO         
  C:884BH         LINE#         60
  C:884BH         LINE#         61
  C:884BH         LINE#         65
  C:884FH         LINE#         66
  C:8851H         LINE#         68
  C:8857H         LINE#         69
  C:885DH         LINE#         70
  C:8863H         LINE#         72
  C:8865H         LINE#         73
  -------         ENDPROC       _GETKEY
  -------         ENDMOD        KEYREMO

  -------         MODULE        MAIN
  C:0000H         SYMBOL        _ICE_DUMMY_
  C:6C23H         PUBLIC        _Mapping1
  C:7B46H         PUBLIC        _mcuLib_ProtocolSendCmdWithParamNum
  D:00B2H         PUBLIC        P3M1
  C:7249H         PUBLIC        GetRotateNumber
  D:00E7H         PUBLIC        ISPCR
  D:00E8H         PUBLIC        P4
  X:01A8H         PUBLIC        ulongRotateNumber
  C:3284H         PUBLIC        EncorderHandler_TELI
  X:01ACH         PUBLIC        PowerFlag
  X:01ADH         PUBLIC        Battery_Voltage_Temp
  B:0080H.0       PUBLIC        P0_0
  X:01AFH         PUBLIC        LowBatteryFlag
  B:0080H.1       PUBLIC        P0_1
  X:01B0H         PUBLIC        UserRange
  B:00B0H.4       PUBLIC        P3_4
  B:00B0H.5       PUBLIC        P3_5
  C:8401H         PUBLIC        _SetAD5110Step
  C:4E29H         PUBLIC        _MCU_SendCmdToDVR
  X:01B6H         PUBLIC        g_stBatteryInfo
  D:00C6H         PUBLIC        ADCV
  X:01BCH         PUBLIC        DVRChangeCurrent
  X:01BDH         PUBLIC        EncorderLen_Offset
  X:01BFH         PUBLIC        EncorderLenint
  C:7D6BH         PUBLIC        main
  D:00E6H         PUBLIC        SCMD
  X:01C0H         PUBLIC        g_stDVRInfo
  X:01C2H         PUBLIC        PowerOffToOnFlag
  X:01C3H         PUBLIC        bytFastEncoderMode
  D:00E3H         PUBLIC        IFADRH
  D:00E5H         PUBLIC        IFMT
  X:01C4H         PUBLIC        Power_down_mode
  D:00E4H         PUBLIC        IFADRL
  X:01C5H         PUBLIC        AD5110Range
  C:5876H         SYMBOL        _?ix1000
  C:8024H         PUBLIC        main_loop
  C:6162H         PUBLIC        LoadEEPROM
  X:01CBH         PUBLIC        EncorderCountPN_offset
  C:8756H         PUBLIC        enter_isp
  D:00E2H         PUBLIC        IFD
BL51 BANKED LINKER/LOCATER V6.22.2.0                                                  04/12/2021  16:41:58  PAGE 38


  X:01CCH         PUBLIC        EncorderLenfloaat
  X:01CEH         PUBLIC        BTH_Temp
  X:01D0H         PUBLIC        EncorderLen
  C:899CH         PUBLIC        GetBatteryVoltage
  C:7FC9H         PUBLIC        InitialTimerEvent
  C:85C9H         PUBLIC        _isp_write
  C:8995H         PUBLIC        GetBatteryBTH
  X:01D4H         PUBLIC        EncorderCountPN
  C:000EH         PUBLIC        isp_init
  X:01D5H         PUBLIC        Decimal1
  X:01D9H         PUBLIC        DebugLevel
  X:01DAH         PUBLIC        Decimal2
  X:01DEH         PUBLIC        Decimal3
  C:7030H         PUBLIC        WaitPowerOn
  X:01E2H         PUBLIC        Decimal4
  X:01E6H         PUBLIC        PWR_START_flag
  X:01E7H         PUBLIC        Encorder1
  X:01EBH         PUBLIC        Encorder2
  D:00C5H         PUBLIC        ADCTL
  X:01EFH         PUBLIC        Encorder3
  C:8797H         PUBLIC        _GetADCValue
  X:01F3H         PUBLIC        Encorder4
  D:00E8H         PUBLIC        ADCVL
  X:01F7H         PUBLIC        AD5110_setp
  C:6A78H         PUBLIC        _SaveRotateNumber
  X:0220H         PUBLIC        CameraVolt
  C:781EH         PUBLIC        _mcuLib_ProtocolAppend
  C:39ABH         PUBLIC        EncorderHandler
  -------         PROC          _ISP_WRITE
  D:0001H         SYMBOL        buf
  D:0005H         SYMBOL        addr_high
  X:010FH         SYMBOL        addr_low
  X:0110H         SYMBOL        len
  C:85C9H         LINE#         87
  C:85C9H         LINE#         88
  C:85C9H         LINE#         89
  C:85CCH         LINE#         90
  C:85CEH         LINE#         92
  C:85CEH         LINE#         93
  C:85D4H         LINE#         94
  C:85D9H         LINE#         95
  C:85DCH         LINE#         96
  C:85DFH         LINE#         98
  C:85E6H         LINE#         99
  C:85ECH         LINE#         100
  C:85EFH         LINE#         101
  C:85EFH         LINE#         102
  C:85F0H         LINE#         103
  C:85F2H         LINE#         104
  C:85F2H         LINE#         105
  C:85F8H         LINE#         106
  C:85F8H         LINE#         107
  C:85FBH         LINE#         108
  -------         ENDPROC       _ISP_WRITE
  -------         PROC          ISP_INIT
  C:000EH         LINE#         110
  C:000EH         LINE#         111
BL51 BANKED LINKER/LOCATER V6.22.2.0                                                  04/12/2021  16:41:58  PAGE 39


  C:000EH         LINE#         112
  C:0011H         LINE#         113
  -------         ENDPROC       ISP_INIT
  -------         PROC          ENTER_ISP
  -------         DO            
  X:010AH         SYMBOL        mark
  -------         ENDDO         
  C:8756H         LINE#         115
  C:8756H         LINE#         116
  C:8756H         LINE#         118
  C:875BH         LINE#         119
  C:875EH         LINE#         120
  C:8773H         LINE#         121
  C:8776H         LINE#         122
  -------         ENDPROC       ENTER_ISP
  C:7806H         SYMBOL        L?0135
  C:7816H         SYMBOL        L?0136
  -------         PROC          L?0134
  -------         ENDPROC       L?0134
  C:7806H         SYMBOL        L?0135
  C:7816H         SYMBOL        L?0136
  -------         PROC          _MCULIB_PROTOCOLAPPEND
  X:014DH         SYMBOL        pucBuf
  X:0150H         SYMBOL        piLen
  X:0153H         SYMBOL        ucByte
  C:781EH         LINE#         125
  C:7829H         LINE#         126
  C:7837H         LINE#         127
  C:785BH         LINE#         128
  C:786BH         LINE#         129
  C:7874H         LINE#         130
  C:7874H         LINE#         131
  C:7876H         LINE#         132
  C:789EH         LINE#         133
  C:78AEH         LINE#         134
  C:78AEH         LINE#         135
  C:78B0H         LINE#         136
  -------         ENDPROC       _MCULIB_PROTOCOLAPPEND
  -------         PROC          _MCULIB_PROTOCOLSENDCMDWITHPARAMNUM
  D:0007H         SYMBOL        ucType
  X:0137H         SYMBOL        pucParam
  X:013AH         SYMBOL        ucSize
  -------         DO            
  D:0005H         SYMBOL        ucChecksum
  X:013BH         SYMBOL        pucBuf
  X:014BH         SYMBOL        iLen
  X:014CH         SYMBOL        i
  -------         ENDDO         
  C:7B46H         LINE#         138
  C:7B51H         LINE#         139
  C:7B51H         LINE#         144
  C:7B57H         LINE#         145
  C:7B5DH         LINE#         146
  C:7B5EH         LINE#         147
  C:7B61H         LINE#         148
  C:7B65H         LINE#         149
  C:7B68H         LINE#         151
BL51 BANKED LINKER/LOCATER V6.22.2.0                                                  04/12/2021  16:41:58  PAGE 40


  C:7B7BH         LINE#         152
  C:7B8EH         LINE#         153
  C:7B91H         LINE#         154
  C:7B99H         LINE#         156
  C:7BABH         LINE#         158
  C:7BBCH         LINE#         159
  C:7BCBH         LINE#         160
  C:7BD3H         LINE#         163
  C:7BD5H         LINE#         164
  -------         ENDPROC       _MCULIB_PROTOCOLSENDCMDWITHPARAMNUM
  -------         PROC          _MCU_SENDCMDTODVR
  X:012AH         SYMBOL        ucType
  -------         DO            
  X:012BH         SYMBOL        buf
  D:0002H         SYMBOL        val
  X:0132H         SYMBOL        encoder
  -------         ENDDO         
  C:4E29H         LINE#         167
  C:4E2EH         LINE#         168
  C:4E2EH         LINE#         169
  C:4E41H         LINE#         172
  C:4E69H         LINE#         173
  C:4E69H         LINE#         174
  C:4E69H         LINE#         175
  C:4E75H         LINE#         176
  C:4E81H         LINE#         177
  C:4E8DH         LINE#         178
  C:4E9BH         LINE#         179
  C:4E9EH         LINE#         181
  C:4E9EH         LINE#         186
  C:4ED5H         LINE#         188
  C:4EE9H         LINE#         189
  C:4EF2H         LINE#         191
  C:4EF7H         LINE#         221
  C:4EFCH         LINE#         232
  C:4F09H         LINE#         234
  C:4F0CH         LINE#         236
  C:4F25H         LINE#         239
  C:4F4EH         LINE#         243
  C:4F56H         LINE#         245
  C:4F63H         LINE#         246
  C:4F6AH         LINE#         248
  C:4F77H         LINE#         249
  C:4F7EH         LINE#         251
  C:4F84H         LINE#         252
  C:4F8BH         LINE#         254
  C:4F93H         LINE#         255
  C:4F9AH         LINE#         257
  C:4FA2H         LINE#         258
  C:4FA9H         LINE#         260
  C:4FAFH         LINE#         261
  C:4FB6H         LINE#         263
  C:4FC1H         LINE#         264
  C:4FC8H         LINE#         266
  C:5006H         LINE#         267
  C:500DH         LINE#         270
  C:501BH         LINE#         271
BL51 BANKED LINKER/LOCATER V6.22.2.0                                                  04/12/2021  16:41:58  PAGE 41


  C:501EH         LINE#         273
  C:501EH         LINE#         274
  C:502CH         LINE#         275
  C:502CH         LINE#         276
  C:5032H         LINE#         277
  C:5039H         LINE#         279
  C:5044H         LINE#         281
  C:5044H         LINE#         282
  C:5052H         LINE#         283
  C:5055H         LINE#         285
  C:5055H         LINE#         286
  C:5063H         LINE#         287
  C:5066H         LINE#         289
  C:5066H         LINE#         290
  C:5074H         LINE#         291
  C:5077H         LINE#         292
  C:5077H         LINE#         293
  C:508BH         LINE#         295
  C:50A9H         LINE#         296
  C:50AEH         LINE#         297
  C:50D5H         LINE#         298
  C:50FBH         LINE#         299
  C:5121H         LINE#         301
  C:513EH         LINE#         302
  C:5143H         LINE#         303
  C:5169H         LINE#         304
  C:518EH         LINE#         305
  C:51B3H         LINE#         307
  C:51CFH         LINE#         308
  C:51D4H         LINE#         309
  C:51F9H         LINE#         310
  C:520CH         LINE#         312
  C:521DH         LINE#         313
  C:521DH         LINE#         314
  C:521DH         LINE#         315
  C:521DH         LINE#         317
  C:521DH         LINE#         319
  -------         ENDPROC       _MCU_SENDCMDTODVR
  -------         PROC          INITIALTIMEREVENT
  C:7FC9H         LINE#         322
  C:7FC9H         LINE#         323
  C:7FC9H         LINE#         324
  C:7FCCH         LINE#         325
  C:7FD5H         LINE#         326
  C:7FDEH         LINE#         327
  C:7FE7H         LINE#         328
  C:7FF0H         LINE#         329
  C:7FF9H         LINE#         330
  C:8002H         LINE#         331
  C:800BH         LINE#         332
  C:8014H         LINE#         333
  C:801BH         LINE#         336
  -------         ENDPROC       INITIALTIMEREVENT
  -------         PROC          _MAPPING1
  X:010CH         SYMBOL        fromValue
  X:010EH         SYMBOL        fromRange
  X:0111H         SYMBOL        toValue
BL51 BANKED LINKER/LOCATER V6.22.2.0                                                  04/12/2021  16:41:58  PAGE 42


  X:0114H         SYMBOL        toRange
  -------         DO            
  X:0117H         SYMBOL        a
  X:0119H         SYMBOL        b
  -------         ENDDO         
  C:6C23H         LINE#         341
  C:6C34H         LINE#         342
  C:6C34H         LINE#         349
  C:6C4CH         LINE#         350
  C:6C72H         LINE#         351
  C:6C9AH         LINE#         353
  C:6C9FH         LINE#         355
  C:6CD4H         LINE#         356
  C:6CD7H         LINE#         357
  C:6CD7H         LINE#         358
  C:6CFEH         LINE#         359
  C:6D26H         LINE#         361
  C:6D2BH         LINE#         363
  C:6D96H         LINE#         364
  C:6D96H         LINE#         366
  C:6D98H         LINE#         368
  -------         ENDPROC       _MAPPING1
  -------         PROC          _SETAD5110STEP
  D:0007H         SYMBOL        newv
  -------         DO            
  X:010AH         SYMBOL        regv
  -------         ENDDO         
  C:8401H         LINE#         370
  C:8401H         LINE#         371
  C:8401H         LINE#         375
  C:8426H         LINE#         376
  -------         ENDPROC       _SETAD5110STEP
  -------         PROC          GETROTATENUMBER
  -------         DO            
  X:0106H         SYMBOL        ret
  -------         ENDDO         
  C:7249H         LINE#         380
  C:7249H         LINE#         381
  C:7249H         LINE#         382
  C:7253H         LINE#         383
  C:7264H         LINE#         384
  C:727DH         LINE#         386
  C:72B1H         LINE#         387
  C:72CAH         LINE#         389
  C:72FEH         LINE#         392
  C:7333H         LINE#         395
  C:7341H         LINE#         396
  -------         ENDPROC       GETROTATENUMBER
  -------         PROC          _SAVEROTATENUMBER
  X:0106H         SYMBOL        val
  -------         DO            
  X:010AH         SYMBOL        temp
  -------         ENDDO         
  C:6A78H         LINE#         398
  C:6A7EH         LINE#         399
  C:6A7EH         LINE#         400
  C:6A88H         LINE#         402
BL51 BANKED LINKER/LOCATER V6.22.2.0                                                  04/12/2021  16:41:58  PAGE 43


  C:6A99H         LINE#         403
  C:6AB2H         LINE#         404
  C:6AE6H         LINE#         405
  C:6AFFH         LINE#         406
  C:6B33H         LINE#         408
  C:6B56H         LINE#         409
  C:6B56H         LINE#         411
  C:6B72H         LINE#         412
  C:6B72H         LINE#         413
  C:6B94H         LINE#         416
  C:6B9DH         LINE#         418
  C:6B9DH         LINE#         419
  C:6BB0H         LINE#         420
  C:6BC9H         LINE#         421
  C:6BDCH         LINE#         422
  C:6BF5H         LINE#         423
  C:6C08H         LINE#         426
  C:6C22H         LINE#         428
  C:6C22H         LINE#         430
  -------         ENDPROC       _SAVEROTATENUMBER
  -------         PROC          LOADEEPROM
  C:6162H         LINE#         432
  C:6162H         LINE#         433
  C:6162H         LINE#         434
  C:616EH         LINE#         435
  C:617AH         LINE#         436
  C:6186H         LINE#         437
  C:6192H         LINE#         439
  C:61C5H         LINE#         440
  C:61F8H         LINE#         442
  C:622BH         LINE#         443
  C:625EH         LINE#         445
  C:6291H         LINE#         446
  C:62C4H         LINE#         448
  C:62F7H         LINE#         449
  C:632AH         LINE#         452
  C:633BH         LINE#         453
  C:6354H         LINE#         454
  C:6388H         LINE#         455
  C:63A1H         LINE#         456
  C:63D5H         LINE#         458
  C:63DFH         LINE#         459
  C:63E6H         LINE#         461
  C:63EEH         LINE#         462
  C:63EEH         LINE#         463
  C:63F4H         LINE#         464
  C:63F4H         LINE#         465
  C:63FCH         LINE#         466
  C:6402H         LINE#         467
  C:6402H         LINE#         469
  C:640AH         LINE#         470
  C:640AH         LINE#         471
  C:640AH         LINE#         472
  C:640AH         LINE#         473
  C:640AH         LINE#         475
  C:640CH         LINE#         477
  C:640CH         LINE#         479
BL51 BANKED LINKER/LOCATER V6.22.2.0                                                  04/12/2021  16:41:58  PAGE 44


  C:6414H         LINE#         480
  C:6414H         LINE#         481
  C:641CH         LINE#         482
  C:6422H         LINE#         485
  C:642AH         LINE#         486
  C:642FH         LINE#         487
  C:6430H         LINE#         488
  C:6438H         LINE#         489
  C:6438H         LINE#         490
  C:643FH         LINE#         491
  C:6444H         LINE#         492
  C:6444H         LINE#         493
  C:6444H         LINE#         495
  -------         ENDPROC       LOADEEPROM
  -------         PROC          _GETADCVALUE
  D:0007H         SYMBOL        sel
  C:8797H         LINE#         497
  C:8797H         LINE#         498
  C:8797H         LINE#         500
  C:879CH         LINE#         502
  C:87A1H         LINE#         504
  C:87B6H         LINE#         506
  -------         ENDPROC       _GETADCVALUE
  -------         PROC          GETBATTERYBTH
  -------         DO            
  D:0006H         SYMBOL        max
  -------         ENDDO         
  C:8995H         LINE#         508
  C:8995H         LINE#         509
  C:8995H         LINE#         510
  C:8997H         LINE#         511
  -------         ENDPROC       GETBATTERYBTH
  -------         PROC          GETBATTERYVOLTAGE
  -------         DO            
  D:0006H         SYMBOL        max
  -------         ENDDO         
  C:899CH         LINE#         519
  C:899CH         LINE#         520
  C:899CH         LINE#         521
  C:899EH         LINE#         522
  -------         ENDPROC       GETBATTERYVOLTAGE
  -------         PROC          ENCORDERHANDLER
  -------         DO            
  X:0106H         SYMBOL        EncorderCountTemp
  X:0108H         SYMBOL        temp_val
  X:010AH         SYMBOL        temp_EncorderCountTemp
  X:010CH         SYMBOL        EncorderParaTemp1
  X:0110H         SYMBOL        EncorderParaTemp2
  X:0114H         SYMBOL        EncorderParaTemp3
  X:0118H         SYMBOL        EncorderParaTemp4
  X:011CH         SYMBOL        EncorderOffset1
  X:0120H         SYMBOL        EncorderOffset2
  X:0124H         SYMBOL        EncorderOffset3
  -------         ENDDO         
  C:39ABH         LINE#         532
  C:39ABH         LINE#         533
  C:39ABH         LINE#         543
BL51 BANKED LINKER/LOCATER V6.22.2.0                                                  04/12/2021  16:41:58  PAGE 45


  C:39B1H         LINE#         544
  C:39B1H         LINE#         546
  C:39C9H         LINE#         555
  C:39F9H         LINE#         556
  C:3A29H         LINE#         557
  C:3A59H         LINE#         558
  C:3A89H         LINE#         589
  C:3AB2H         LINE#         590
  C:3AECH         LINE#         591
  C:3B26H         LINE#         600
  C:3B36H         LINE#         601
  C:3B36H         LINE#         602
  C:3B3BH         LINE#         603
  C:3B3CH         LINE#         604
  C:3B3EH         LINE#         606
  C:3B3EH         LINE#         607
  C:3B44H         LINE#         608
  C:3B62H         LINE#         609
  C:3B62H         LINE#         630
  C:3B7DH         LINE#         631
  C:3B7DH         LINE#         634
  C:3B94H         LINE#         635
  C:3BACH         LINE#         636
  C:3BC2H         LINE#         642
  C:3C09H         LINE#         647
  C:3C4BH         LINE#         648
  C:3C6CH         LINE#         652
  C:3C9AH         LINE#         653
  C:3CA9H         LINE#         666
  C:3CACH         LINE#         667
  C:3CCBH         LINE#         668
  C:3CCBH         LINE#         673
  C:3D2AH         LINE#         677
  C:3D56H         LINE#         678
  C:3D6EH         LINE#         679
  C:3D86H         LINE#         680
  C:3DA8H         LINE#         682
  C:3DC0H         LINE#         684
  C:3DE1H         LINE#         686
  C:3DF4H         LINE#         690
  C:3DF4H         LINE#         691
  C:3DF4H         LINE#         698
  C:3DF4H         LINE#         700
  C:3DF7H         LINE#         702
  C:3E16H         LINE#         703
  C:3E16H         LINE#         707
  C:3E75H         LINE#         711
  C:3E8DH         LINE#         714
  C:3EAEH         LINE#         718
  C:3EDCH         LINE#         719
  C:3EDCH         LINE#         726
  C:3EDCH         LINE#         728
  C:3EDFH         LINE#         757
  C:3EF1H         LINE#         758
  C:3EF1H         LINE#         762
  C:3F50H         LINE#         766
  C:3F68H         LINE#         768
BL51 BANKED LINKER/LOCATER V6.22.2.0                                                  04/12/2021  16:41:58  PAGE 46


  C:3F8AH         LINE#         770
  C:3FABH         LINE#         772
  C:3FBEH         LINE#         776
  C:3FECH         LINE#         778
  C:3FFDH         LINE#         780
  C:4014H         LINE#         782
  C:4030H         LINE#         794
  C:4030H         LINE#         796
  C:4032H         LINE#         802
  C:4039H         LINE#         803
  C:4039H         LINE#         804
  C:403EH         LINE#         805
  C:4043H         LINE#         806
  C:404CH         LINE#         807
  C:404CH         LINE#         809
  C:4062H         LINE#         810
  C:407AH         LINE#         812
  C:407AH         LINE#         814
  -------         ENDPROC       ENCORDERHANDLER
  -------         PROC          ENCORDERHANDLER_TELI
  -------         DO            
  X:0106H         SYMBOL        EncorderCountTemp
  X:0108H         SYMBOL        temp_val
  X:010AH         SYMBOL        temp_EncorderCountTemp
  X:010CH         SYMBOL        EncorderCount_T
  X:010EH         SYMBOL        EncorderParaTemp1
  X:0112H         SYMBOL        EncorderParaTemp2
  X:0116H         SYMBOL        EncorderParaTemp3
  X:011AH         SYMBOL        EncorderParaTemp4
  X:011EH         SYMBOL        EncorderOffset1
  X:0122H         SYMBOL        EncorderOffset2
  X:0126H         SYMBOL        EncorderOffset3
  -------         ENDDO         
  C:3284H         LINE#         816
  C:3284H         LINE#         817
  C:3284H         LINE#         830
  C:328AH         LINE#         831
  C:328AH         LINE#         833
  C:32ACH         LINE#         836
  C:32C4H         LINE#         837
  C:32F9H         LINE#         846
  C:3329H         LINE#         847
  C:3359H         LINE#         848
  C:3389H         LINE#         849
  C:33B9H         LINE#         880
  C:33E2H         LINE#         881
  C:341CH         LINE#         882
  C:3456H         LINE#         891
  C:3466H         LINE#         892
  C:3466H         LINE#         893
  C:346BH         LINE#         894
  C:346CH         LINE#         895
  C:346EH         LINE#         897
  C:346EH         LINE#         898
  C:3474H         LINE#         899
  C:3492H         LINE#         900
  C:3492H         LINE#         922
BL51 BANKED LINKER/LOCATER V6.22.2.0                                                  04/12/2021  16:41:58  PAGE 47


  C:34ADH         LINE#         923
  C:34ADH         LINE#         926
  C:34C4H         LINE#         927
  C:34DCH         LINE#         928
  C:34F2H         LINE#         934
  C:3539H         LINE#         939
  C:357BH         LINE#         940
  C:359CH         LINE#         944
  C:35CAH         LINE#         945
  C:35D9H         LINE#         958
  C:35DCH         LINE#         959
  C:35FBH         LINE#         960
  C:35FBH         LINE#         965
  C:365AH         LINE#         969
  C:3686H         LINE#         970
  C:369EH         LINE#         971
  C:36B6H         LINE#         972
  C:36D8H         LINE#         974
  C:36F0H         LINE#         976
  C:3711H         LINE#         978
  C:3724H         LINE#         982
  C:3724H         LINE#         983
  C:3724H         LINE#         990
  C:3724H         LINE#         992
  C:3727H         LINE#         994
  C:3746H         LINE#         995
  C:3746H         LINE#         999
  C:37A5H         LINE#         1003
  C:37BDH         LINE#         1006
  C:37DEH         LINE#         1010
  C:380CH         LINE#         1011
  C:380CH         LINE#         1018
  C:380CH         LINE#         1020
  C:380FH         LINE#         1049
  C:3821H         LINE#         1050
  C:3821H         LINE#         1054
  C:3880H         LINE#         1058
  C:3898H         LINE#         1060
  C:38BAH         LINE#         1062
  C:38DBH         LINE#         1064
  C:38EEH         LINE#         1068
  C:391CH         LINE#         1070
  C:392DH         LINE#         1072
  C:3944H         LINE#         1074
  C:3960H         LINE#         1086
  C:3960H         LINE#         1088
  C:3962H         LINE#         1094
  C:3969H         LINE#         1095
  C:3969H         LINE#         1096
  C:396EH         LINE#         1097
  C:3973H         LINE#         1098
  C:397CH         LINE#         1099
  C:397CH         LINE#         1101
  C:3992H         LINE#         1102
  C:39AAH         LINE#         1104
  C:39AAH         LINE#         1106
  -------         ENDPROC       ENCORDERHANDLER_TELI
BL51 BANKED LINKER/LOCATER V6.22.2.0                                                  04/12/2021  16:41:58  PAGE 48


  -------         PROC          MAIN_LOOP
  C:8024H         LINE#         1109
  C:8024H         LINE#         1110
  C:8024H         LINE#         1112
  C:802DH         LINE#         1114
  C:8035H         LINE#         1115
  C:8035H         LINE#         1116
  C:803EH         LINE#         1117
  C:8044H         LINE#         1118
  C:8046H         LINE#         1120
  C:804FH         LINE#         1125
  C:804FH         LINE#         1126
  C:804FH         LINE#         1129
  C:8055H         LINE#         1130
  C:805AH         LINE#         1133
  C:805DH         LINE#         1134
  C:8060H         LINE#         1136
  C:8063H         LINE#         1137
  C:8066H         LINE#         1139
  C:806EH         LINE#         1140
  C:8073H         LINE#         1142
  C:8076H         LINE#         1146
  C:807CH         LINE#         1147
  C:807CH         LINE#         1149
  C:807CH         LINE#         1151
  -------         ENDPROC       MAIN_LOOP
  -------         PROC          MAIN
  C:7D6BH         LINE#         1153
  C:7D6BH         LINE#         1154
  C:7D6BH         LINE#         1156
  C:7D6EH         LINE#         1158
  C:7D71H         LINE#         1160
  C:7D7AH         LINE#         1162
  C:7D7DH         LINE#         1166
  C:7D7FH         LINE#         1168
  C:7D81H         LINE#         1171
  C:7D84H         LINE#         1174
  C:7D87H         LINE#         1177
  C:7D8AH         LINE#         1179
  C:7D92H         LINE#         1180
  C:7DA8H         LINE#         1185
  C:7DBAH         LINE#         1186
  C:7DBEH         LINE#         1188
  C:7DC8H         LINE#         1189
  C:7DD0H         LINE#         1191
  C:7DD0H         LINE#         1193
  C:7DD6H         LINE#         1194
  C:7DDBH         LINE#         1196
  C:7DDBH         LINE#         1197
  C:7DDDH         LINE#         1200
  C:7DDDH         LINE#         1201
  C:7DE5H         LINE#         1202
  C:7DE8H         LINE#         1204
  C:7DEBH         LINE#         1205
  -------         ENDPROC       MAIN
  -------         PROC          WAITPOWERON
  C:7030H         LINE#         1208
BL51 BANKED LINKER/LOCATER V6.22.2.0                                                  04/12/2021  16:41:58  PAGE 49


  C:7030H         LINE#         1209
  C:7030H         LINE#         1211
  C:7039H         LINE#         1212
  C:7041H         LINE#         1214
  C:704DH         LINE#         1215
  C:7051H         LINE#         1217
  C:7058H         LINE#         1218
  C:705DH         LINE#         1219
  C:7064H         LINE#         1220
  C:7069H         LINE#         1223
  C:706EH         LINE#         1224
  C:7070H         LINE#         1225
  C:7074H         LINE#         1227
  C:707CH         LINE#         1228
  C:708DH         LINE#         1230
  C:708DH         LINE#         1231
  C:708DH         LINE#         1235
  C:7093H         LINE#         1236
  C:7098H         LINE#         1239
  C:709BH         LINE#         1240
  C:709EH         LINE#         1241
  C:70A1H         LINE#         1243
  C:70A9H         LINE#         1244
  C:70A9H         LINE#         1248
  C:70C7H         LINE#         1249
  C:70C7H         LINE#         1250
  C:70CDH         LINE#         1251
  C:70D6H         LINE#         1252
  C:70D8H         LINE#         1253
  C:70ECH         LINE#         1254
  C:70ECH         LINE#         1255
  C:70F1H         LINE#         1256
  C:70F6H         LINE#         1257
  C:70F8H         LINE#         1258
  C:7100H         LINE#         1259
  C:7103H         LINE#         1263
  C:7105H         LINE#         1266
  C:710EH         LINE#         1267
  C:7115H         LINE#         1268
  C:7119H         LINE#         1269
  C:711FH         LINE#         1270
  C:7123H         LINE#         1271
  C:7125H         LINE#         1272
  C:7127H         LINE#         1274
  C:712EH         LINE#         1275
  C:7135H         LINE#         1276
  C:713DH         LINE#         1277
  C:7146H         LINE#         1279
  C:7149H         LINE#         1281
  -------         ENDPROC       WAITPOWERON
  -------         ENDMOD        MAIN

  -------         MODULE        MONITOR
  C:0000H         SYMBOL        _ICE_DUMMY_
  D:00A0H         PUBLIC        P2
  C:7699H         PUBLIC        Prompt
  C:7F78H         PUBLIC        _stricmp
BL51 BANKED LINKER/LOCATER V6.22.2.0                                                  04/12/2021  16:41:58  PAGE 50


  X:0280H         PUBLIC        Monitor_I2C
  C:8178H         PUBLIC        MonTxDump
  C:6445H         PUBLIC        MonGetCommand
  C:004FH         PUBLIC        _toupper
  C:7750H         PUBLIC        _MonIncDecI2C
  B:00B0H.4       PUBLIC        P3_4
  B:0080H.7       PUBLIC        P0_7
  B:00B0H.7       PUBLIC        P3_7
  X:0281H         PUBLIC        MonRdata
  X:0282H         PUBLIC        argc
  X:0283H         PUBLIC        MonWdata
  B:0020H.6       PUBLIC        AccessEnable
  B:0020H.7       PUBLIC        echo
  X:0284H         PUBLIC        monstr
  X:02A2H         PUBLIC        MonIndex
  D:0087H         PUBLIC        PCON
  X:02A3H         PUBLIC        argv
  C:78B1H         PUBLIC        MonHelp
  B:0021H.0       SYMBOL        indirect
  C:6D99H         PUBLIC        MonWriteBit
  D:00C7H         PUBLIC        PCON2
  C:852AH         PUBLIC        _Asc1Bin
  C:838DH         PUBLIC        _Asc2Bin
  C:101AH         PUBLIC        Monitor
  D:0010H         PUBLIC        MonAddress
  C:8992H         PUBLIC        _Mon_tx
  C:7A07H         PUBLIC        _a2i
  -------         PROC          PROMPT
  C:7699H         LINE#         59
  C:7699H         LINE#         60
  C:7699H         LINE#         62
  C:76A0H         LINE#         63
  C:76A0H         LINE#         64
  C:76D7H         LINE#         65
  C:76D9H         LINE#         66
  C:76E0H         LINE#         67
  C:76E0H         LINE#         68
  C:770AH         LINE#         69
  C:770CH         LINE#         70
  C:7715H         LINE#         71
  C:7715H         LINE#         72
  C:7730H         LINE#         73
  C:7732H         LINE#         75
  C:7732H         LINE#         76
  C:774FH         LINE#         77
  C:774FH         LINE#         80
  -------         ENDPROC       PROMPT
  C:898DH         SYMBOL        L?0289
  -------         PROC          L?0288
  -------         ENDPROC       L?0288
  C:898DH         SYMBOL        L?0289
  -------         PROC          _MON_TX
  D:0007H         SYMBOL        ch
  C:8992H         LINE#         84
  C:8992H         LINE#         85
  C:8992H         LINE#         86
  -------         ENDPROC       _MON_TX
BL51 BANKED LINKER/LOCATER V6.22.2.0                                                  04/12/2021  16:41:58  PAGE 51


  -------         PROC          _A2I
  X:010AH         SYMBOL        str
  -------         DO            
  X:010DH         SYMBOL        num
  X:0111H         SYMBOL        i
  -------         ENDDO         
  C:7A07H         LINE#         94
  C:7A12H         LINE#         95
  C:7A12H         LINE#         96
  C:7A1AH         LINE#         99
  C:7A1FH         LINE#         100
  C:7A33H         LINE#         101
  C:7A8DH         LINE#         102
  C:7A9FH         LINE#         103
  C:7AADH         LINE#         104
  -------         ENDPROC       _A2I
  -------         PROC          _ASC1BIN
  D:0007H         SYMBOL        asc
  C:852AH         LINE#         106
  C:852AH         LINE#         107
  C:852AH         LINE#         108
  C:853CH         LINE#         109
  C:854DH         LINE#         110
  C:855EH         LINE#         112
  C:8560H         LINE#         113
  -------         ENDPROC       _ASC1BIN
  C:8382H         SYMBOL        L?0285
  C:8385H         SYMBOL        L?0286
  -------         PROC          L?0284
  -------         ENDPROC       L?0284
  C:8382H         SYMBOL        L?0285
  C:8385H         SYMBOL        L?0286
  -------         PROC          _ASC2BIN
  D:0001H         SYMBOL        s
  -------         DO            
  D:0004H         SYMBOL        bin
  -------         ENDDO         
  C:838DH         LINE#         115
  C:838DH         LINE#         116
  C:838DH         LINE#         119
  C:8390H         LINE#         120
  C:8399H         LINE#         121
  C:83A7H         LINE#         122
  C:83B4H         LINE#         123
  C:83BBH         LINE#         124
  C:83BDH         LINE#         125
  C:83BFH         LINE#         126
  -------         ENDPROC       _ASC2BIN
  -------         PROC          L?0287
  -------         ENDPROC       L?0287
  -------         PROC          _TOUPPER
  D:0007H         SYMBOL        ch
  C:004FH         LINE#         133
  C:004FH         LINE#         134
  C:004FH         LINE#         135
  C:005BH         LINE#         136
  C:0060H         LINE#         138
BL51 BANKED LINKER/LOCATER V6.22.2.0                                                  04/12/2021  16:41:58  PAGE 52


  C:0060H         LINE#         139
  -------         ENDPROC       _TOUPPER
  C:7F6BH         SYMBOL        L?0281
  C:7F6CH         SYMBOL        L?0282
  C:7F70H         SYMBOL        L?0283
  -------         PROC          L?0280
  -------         ENDPROC       L?0280
  C:7F6BH         SYMBOL        L?0281
  C:7F6CH         SYMBOL        L?0282
  C:7F70H         SYMBOL        L?0283
  -------         PROC          _STRICMP
  X:0108H         SYMBOL        ptr1
  X:010BH         SYMBOL        ptr2
  -------         DO            
  X:010EH         SYMBOL        i
  D:0006H         SYMBOL        ret
  -------         ENDDO         
  C:7F78H         LINE#         141
  C:7F83H         LINE#         142
  C:7F83H         LINE#         146
  C:7F9AH         LINE#         147
  C:7FB1H         LINE#         148
  C:7FB5H         LINE#         149
  C:7FC5H         LINE#         150
  C:7FC8H         LINE#         151
  -------         ENDPROC       _STRICMP
  -------         PROC          _MONINCDECI2C
  D:0007H         SYMBOL        inc
  C:7750H         LINE#         218
  C:7750H         LINE#         219
  C:7750H         LINE#         221
  C:775FH         LINE#         222
  C:7767H         LINE#         223
  C:776FH         LINE#         224
  C:7778H         LINE#         225
  C:777FH         LINE#         226
  C:777FH         LINE#         229
  C:7788H         LINE#         230
  C:7794H         LINE#         231
  C:779BH         LINE#         232
  C:779DH         LINE#         233
  C:779DH         LINE#         234
  C:77A9H         LINE#         235
  C:77B8H         LINE#         236
  C:77B8H         LINE#         238
  C:77BBH         LINE#         239
  C:77DEH         LINE#         240
  C:7801H         LINE#         241
  C:7801H         LINE#         243
  -------         ENDPROC       _MONINCDECI2C
  -------         PROC          MONWRITEBIT
  -------         DO            
  X:0108H         SYMBOL        mask
  D:0006H         SYMBOL        i
  X:0109H         SYMBOL        FromBit
  X:010AH         SYMBOL        ToBit
  X:010BH         SYMBOL        MonMask
BL51 BANKED LINKER/LOCATER V6.22.2.0                                                  04/12/2021  16:41:58  PAGE 53


  D:0004H         SYMBOL        val
  X:010CH         SYMBOL        Slave
  -------         ENDDO         
  C:6D99H         LINE#         382
  C:6D99H         LINE#         383
  C:6D99H         LINE#         388
  C:6DA6H         LINE#         389
  C:6DAFH         LINE#         391
  C:6DAFH         LINE#         392
  C:6DB7H         LINE#         394
  C:6DC2H         LINE#         395
  C:6DD0H         LINE#         396
  C:6DDDH         LINE#         397
  C:6DE8H         LINE#         399
  C:6E09H         LINE#         400
  C:6E12H         LINE#         402
  C:6E12H         LINE#         404
  C:6E18H         LINE#         405
  C:6E1AH         LINE#         406
  C:6E26H         LINE#         407
  C:6E2CH         LINE#         408
  C:6E2FH         LINE#         409
  C:6E32H         LINE#         411
  C:6E34H         LINE#         412
  C:6E40H         LINE#         413
  C:6E46H         LINE#         414
  C:6E4AH         LINE#         415
  C:6E4DH         LINE#         417
  C:6E55H         LINE#         418
  C:6E64H         LINE#         419
  C:6E77H         LINE#         421
  C:6E81H         LINE#         422
  C:6E88H         LINE#         423
  C:6E8AH         LINE#         424
  C:6E8AH         LINE#         425
  C:6E9CH         LINE#         426
  C:6EAFH         LINE#         428
  C:6EBCH         LINE#         429
  C:6ECEH         LINE#         430
  C:6ECEH         LINE#         432
  C:6ED1H         LINE#         433
  C:6F01H         LINE#         435
  -------         ENDPROC       MONWRITEBIT
  -------         PROC          MONTXDUMP
  -------         DO            
  X:0108H         SYMBOL        count
  -------         ENDDO         
  C:8178H         LINE#         460
  C:8178H         LINE#         461
  C:8178H         LINE#         464
  C:8185H         LINE#         465
  C:818EH         LINE#         467
  C:818EH         LINE#         468
  C:81A4H         LINE#         469
  C:81A4H         LINE#         470
  C:81B1H         LINE#         471
  C:81BFH         LINE#         472
BL51 BANKED LINKER/LOCATER V6.22.2.0                                                  04/12/2021  16:41:58  PAGE 54


  C:81C6H         LINE#         473
  -------         ENDPROC       MONTXDUMP
  -------         PROC          MONHELP
  C:78B1H         LINE#         479
  C:78B1H         LINE#         480
  C:78B1H         LINE#         481
  C:78BAH         LINE#         482
  C:78C3H         LINE#         483
  C:78CCH         LINE#         484
  C:78D5H         LINE#         485
  C:78DEH         LINE#         486
  C:78E7H         LINE#         487
  C:78F0H         LINE#         488
  C:78F9H         LINE#         489
  C:7902H         LINE#         490
  C:790BH         LINE#         491
  C:7914H         LINE#         492
  C:791DH         LINE#         493
  C:7926H         LINE#         494
  C:792FH         LINE#         495
  C:7938H         LINE#         496
  C:7941H         LINE#         497
  C:794AH         LINE#         498
  C:7953H         LINE#         499
  -------         ENDPROC       MONHELP
  -------         PROC          MONGETCOMMAND
  -------         DO            
  X:027DH         SYMBOL        comment
  X:027EH         SYMBOL        incnt
  X:027FH         SYMBOL        last_argc
  X:0108H         SYMBOL        i
  X:0109H         SYMBOL        ch
  X:010AH         SYMBOL        ret
  -------         ENDDO         
  C:6445H         LINE#         505
  C:6445H         LINE#         506
  C:6445H         LINE#         510
  C:644AH         LINE#         512
  C:6452H         LINE#         514
  C:645AH         LINE#         518
  C:645CH         LINE#         520
  C:6465H         LINE#         523
  C:646BH         LINE#         524
  C:6480H         LINE#         525
  C:6480H         LINE#         526
  C:6485H         LINE#         527
  C:6487H         LINE#         528
  C:6487H         LINE#         529
  C:6487H         LINE#         530
  C:648FH         LINE#         531
  C:6495H         LINE#         532
  C:6498H         LINE#         533
  C:649BH         LINE#         534
  C:649BH         LINE#         537
  C:64D3H         LINE#         539
  C:64D3H         LINE#         540
  C:64D8H         LINE#         541
BL51 BANKED LINKER/LOCATER V6.22.2.0                                                  04/12/2021  16:41:58  PAGE 55


  C:64D8H         LINE#         542
  C:64D8H         LINE#         543
  C:64D8H         LINE#         544
  C:64DAH         LINE#         547
  C:64DAH         LINE#         549
  C:64E0H         LINE#         550
  C:64E3H         LINE#         551
  C:64E6H         LINE#         552
  C:64E6H         LINE#         554
  C:64F9H         LINE#         555
  C:64FDH         LINE#         557
  C:6525H         LINE#         559
  C:6532H         LINE#         560
  C:6536H         LINE#         561
  C:653AH         LINE#         562
  C:653DH         LINE#         563
  C:6540H         LINE#         564
  C:6540H         LINE#         565
  C:6557H         LINE#         566
  C:6565H         LINE#         567
  C:6578H         LINE#         568
  C:6584H         LINE#         570
  C:6586H         LINE#         571
  C:65A0H         LINE#         572
  C:65A6H         LINE#         573
  C:65A9H         LINE#         574
  C:65CEH         LINE#         575
  C:65CEH         LINE#         576
  C:65CEH         LINE#         577
  C:65D6H         LINE#         579
  C:65DCH         LINE#         580
  C:65E4H         LINE#         581
  C:65E9H         LINE#         583
  C:65ECH         LINE#         586
  C:65ECH         LINE#         587
  C:65F4H         LINE#         588
  C:65FAH         LINE#         589
  C:65FCH         LINE#         592
  C:65FCH         LINE#         593
  C:6602H         LINE#         594
  C:6604H         LINE#         595
  C:6607H         LINE#         596
  C:660CH         LINE#         597
  C:660FH         LINE#         598
  C:660FH         LINE#         599
  C:6611H         LINE#         602
  C:6611H         LINE#         603
  C:6617H         LINE#         604
  C:6617H         LINE#         605
  C:6617H         LINE#         606
  C:6619H         LINE#         608
  C:661BH         LINE#         609
  C:661DH         LINE#         611
  C:661DH         LINE#         612
  C:6623H         LINE#         613
  C:6623H         LINE#         614
  C:6623H         LINE#         615
BL51 BANKED LINKER/LOCATER V6.22.2.0                                                  04/12/2021  16:41:58  PAGE 56


  C:6625H         LINE#         617
  C:6627H         LINE#         618
  C:6629H         LINE#         620
  C:6629H         LINE#         621
  C:662FH         LINE#         622
  C:662FH         LINE#         623
  C:662FH         LINE#         624
  C:6631H         LINE#         626
  C:6633H         LINE#         627
  C:6635H         LINE#         629
  C:6635H         LINE#         630
  C:663BH         LINE#         631
  C:663BH         LINE#         632
  C:663BH         LINE#         633
  C:663DH         LINE#         635
  C:6642H         LINE#         636
  C:6644H         LINE#         638
  C:6644H         LINE#         639
  C:6647H         LINE#         640
  C:665FH         LINE#         641
  C:665FH         LINE#         642
  C:665FH         LINE#         644
  C:6666H         LINE#         645
  C:666BH         LINE#         646
  C:6673H         LINE#         647
  C:6674H         LINE#         648
  C:6674H         LINE#         649
  C:6674H         LINE#         650
  C:6679H         LINE#         651
  C:6679H         LINE#         652
  -------         ENDPROC       MONGETCOMMAND
  -------         PROC          MONITOR
  -------         DO            
  X:0106H         SYMBOL        ret
  -------         DO            
  X:0107H         SYMBOL        mode
  -------         ENDDO         
  -------         ENDDO         
  C:101AH         LINE#         659
  C:101AH         LINE#         660
  C:101AH         LINE#         664
  C:1023H         LINE#         678
  C:1025H         LINE#         723
  C:103BH         LINE#         724
  C:1044H         LINE#         725
  C:1050H         LINE#         726
  C:1063H         LINE#         727
  C:106FH         LINE#         728
  C:1082H         LINE#         730
  C:108BH         LINE#         735
  C:10A3H         LINE#         736
  C:10BBH         LINE#         737
  C:10D3H         LINE#         739
  C:10EBH         LINE#         740
  C:1103H         LINE#         742
  C:111BH         LINE#         743
  C:1133H         LINE#         745
BL51 BANKED LINKER/LOCATER V6.22.2.0                                                  04/12/2021  16:41:58  PAGE 57


  C:114BH         LINE#         746
  C:1163H         LINE#         748
  C:117BH         LINE#         749
  C:1193H         LINE#         751
  C:11C1H         LINE#         754
  C:11C4H         LINE#         762
  C:11D8H         LINE#         763
  C:11DBH         LINE#         764
  C:11DEH         LINE#         767
  C:11F2H         LINE#         768
  C:11FAH         LINE#         769
  C:1201H         LINE#         770
  C:1210H         LINE#         771
  C:1210H         LINE#         772
  C:1213H         LINE#         775
  C:1227H         LINE#         789
  C:123BH         LINE#         790
  C:1265H         LINE#         791
  C:126DH         LINE#         792
  C:1287H         LINE#         795
  C:128AH         LINE#         796
  C:129EH         LINE#         800
  C:12A6H         LINE#         801
  C:12C0H         LINE#         803
  C:12C3H         LINE#         888
  C:12D7H         LINE#         889
  C:12DCH         LINE#         890
  C:12DFH         LINE#         893
  C:131BH         LINE#         894
  C:131EH         LINE#         896
  C:1321H         LINE#         898
  C:1335H         LINE#         900
  C:133DH         LINE#         901
  C:1346H         LINE#         902
  C:134FH         LINE#         903
  C:1355H         LINE#         904
  C:1358H         LINE#         905
  C:1358H         LINE#         907
  C:1360H         LINE#         909
  C:1360H         LINE#         910
  C:1363H         LINE#         920
  C:137AH         LINE#         922
  C:137AH         LINE#         978
  C:138EH         LINE#         979
  C:1396H         LINE#         980
  C:139EH         LINE#         981
  C:13A1H         LINE#         982
  C:13A1H         LINE#         983
  C:13B4H         LINE#         984
  C:13B7H         LINE#         987
  C:13CBH         LINE#         988
  C:13E3H         LINE#         989
  C:13E5H         LINE#         990
  C:13EBH         LINE#         991
  C:13EEH         LINE#         992
  C:13EEH         LINE#         993
  C:13F0H         LINE#         994
BL51 BANKED LINKER/LOCATER V6.22.2.0                                                  04/12/2021  16:41:58  PAGE 58


  C:13F6H         LINE#         995
  C:13F6H         LINE#         996
  C:13F9H         LINE#         998
  C:140DH         LINE#         999
  C:1425H         LINE#         1000
  C:1427H         LINE#         1001
  C:142DH         LINE#         1002
  C:1430H         LINE#         1003
  C:1448H         LINE#         1004
  C:144AH         LINE#         1005
  C:1450H         LINE#         1006
  C:1453H         LINE#         1007
  C:1453H         LINE#         1008
  C:1466H         LINE#         1009
  C:1466H         LINE#         1010
  C:1469H         LINE#         1011
  C:147DH         LINE#         1012
  C:1495H         LINE#         1014
  C:149BH         LINE#         1015
  C:149EH         LINE#         1016
  C:14B8H         LINE#         1018
  C:14BCH         LINE#         1019
  C:14BFH         LINE#         1020
  C:14BFH         LINE#         1021
  C:14D0H         LINE#         1022
  C:14D0H         LINE#         1023
  C:14D3H         LINE#         1024
  C:14E7H         LINE#         1025
  C:14FFH         LINE#         1026
  C:1501H         LINE#         1027
  C:1507H         LINE#         1028
  C:150AH         LINE#         1029
  C:1522H         LINE#         1030
  C:1524H         LINE#         1031
  C:152AH         LINE#         1032
  C:152DH         LINE#         1033
  C:152DH         LINE#         1034
  C:1540H         LINE#         1035
  C:1540H         LINE#         1036
  C:1543H         LINE#         1038
  C:155AH         LINE#         1039
  C:1575H         LINE#         1041
  C:1575H         LINE#         1042
  C:158DH         LINE#         1043
  C:1596H         LINE#         1044
  C:159FH         LINE#         1045
  C:15A8H         LINE#         1046
  C:15AAH         LINE#         1047
  C:15AAH         LINE#         1048
  C:15C5H         LINE#         1050
  C:15C5H         LINE#         1051
  C:15DBH         LINE#         1053
  C:15DBH         LINE#         1196
  C:15DEH         LINE#         1198
  C:15F2H         LINE#         1199
  C:15FCH         LINE#         1200
  C:1602H         LINE#         1214
BL51 BANKED LINKER/LOCATER V6.22.2.0                                                  04/12/2021  16:41:58  PAGE 59


  C:1602H         LINE#         1215
  C:1604H         LINE#         1216
  C:1618H         LINE#         1217
  C:1622H         LINE#         1218
  C:162BH         LINE#         1219
  C:162DH         LINE#         1220
  C:1630H         LINE#         1221
  C:1644H         LINE#         1222
  C:164AH         LINE#         1223
  C:164AH         LINE#         1224
  C:1651H         LINE#         1225
  C:1657H         LINE#         1226
  C:1659H         LINE#         1228
  C:1659H         LINE#         1229
  C:165FH         LINE#         1230
  C:1668H         LINE#         1231
  C:1668H         LINE#         1232
  C:166AH         LINE#         1233
  C:166DH         LINE#         1234
  C:1674H         LINE#         1235
  C:1696H         LINE#         1236
  C:16A0H         LINE#         1237
  C:16A0H         LINE#         1238
  C:16A3H         LINE#         1239
  C:16B7H         LINE#         1240
  C:16D9H         LINE#         1241
  C:16E3H         LINE#         1242
  C:16E3H         LINE#         1243
  C:16E6H         LINE#         1244
  C:16FAH         LINE#         1245
  C:16FCH         LINE#         1246
  C:16FFH         LINE#         1247
  C:1713H         LINE#         1250
  C:171BH         LINE#         1251
  C:171BH         LINE#         1252
  C:1723H         LINE#         1253
  C:1729H         LINE#         1254
  C:172FH         LINE#         1255
  C:1731H         LINE#         1256
  C:1737H         LINE#         1257
  C:1737H         LINE#         1258
  C:173EH         LINE#         1259
  C:1743H         LINE#         1260
  C:174CH         LINE#         1261
  C:174CH         LINE#         1262
  C:174EH         LINE#         1264
  C:1751H         LINE#         1265
  C:1765H         LINE#         1267
  C:176AH         LINE#         1268
  C:1772H         LINE#         1269
  C:1772H         LINE#         1270
  C:1774H         LINE#         1271
  C:1788H         LINE#         1273
  C:178DH         LINE#         1274
  C:179CH         LINE#         1275
  C:179CH         LINE#         1276
  C:179FH         LINE#         1278
BL51 BANKED LINKER/LOCATER V6.22.2.0                                                  04/12/2021  16:41:58  PAGE 60


  C:17B6H         LINE#         1282
  C:17B6H         LINE#         1284
  C:17CDH         LINE#         1288
  C:17CDH         LINE#         1289
  C:17D7H         LINE#         1291
  C:17F4H         LINE#         1292
  C:1800H         LINE#         1293
  C:181FH         LINE#         1294
  C:182AH         LINE#         1295
  C:1849H         LINE#         1296
  C:1855H         LINE#         1297
  C:1877H         LINE#         1298
  C:187FH         LINE#         1300
  C:1885H         LINE#         1302
  C:189DH         LINE#         1303
  C:189FH         LINE#         1305
  C:18A2H         LINE#         1306
  C:18B9H         LINE#         1308
  C:18BFH         LINE#         1309
  C:18BFH         LINE#         1310
  C:18C7H         LINE#         1311
  C:18CDH         LINE#         1312
  C:18D0H         LINE#         1313
  C:18D8H         LINE#         1314
  C:18D8H         LINE#         1315
  C:18E2H         LINE#         1316
  C:18E8H         LINE#         1317
  C:18EBH         LINE#         1318
  C:190AH         LINE#         1319
  C:190AH         LINE#         1320
  C:1914H         LINE#         1321
  C:191AH         LINE#         1322
  C:191CH         LINE#         1323
  C:193BH         LINE#         1324
  C:193BH         LINE#         1325
  C:1945H         LINE#         1326
  C:194BH         LINE#         1327
  C:194DH         LINE#         1328
  C:196FH         LINE#         1329
  C:196FH         LINE#         1330
  C:1976H         LINE#         1331
  C:197CH         LINE#         1332
  C:197EH         LINE#         1334
  C:197EH         LINE#         1335
  C:1985H         LINE#         1336
  C:198EH         LINE#         1337
  C:198EH         LINE#         1342
  C:1990H         LINE#         1344
  C:1993H         LINE#         1345
  C:19A7H         LINE#         1346
  C:19B0H         LINE#         1347
  C:19B2H         LINE#         1349
  C:19B5H         LINE#         1351
  C:19C9H         LINE#         1352
  C:19CCH         LINE#         1353
  C:19CEH         LINE#         1355
  C:19E2H         LINE#         1356
BL51 BANKED LINKER/LOCATER V6.22.2.0                                                  04/12/2021  16:41:58  PAGE 61


  C:19FAH         LINE#         1358
  C:19FAH         LINE#         1359
  C:1A12H         LINE#         1361
  C:1A12H         LINE#         1362
  C:1A12H         LINE#         1363
  C:1A1BH         LINE#         1364
  C:1A1BH         LINE#         1365
  C:1A1DH         LINE#         1390
  C:1A1DH         LINE#         1391
  C:1A26H         LINE#         1392
  C:1A26H         LINE#         1395
  C:1A29H         LINE#         1398
  -------         ENDPROC       MONITOR
  -------         ENDMOD        MONITOR

  -------         MODULE        PRINTF
  C:0000H         SYMBOL        _ICE_DUMMY_
  C:8204H         PUBLIC        Hex
  C:85FCH         PUBLIC        _Puts
  D:0099H         PUBLIC        SBUF
  C:4083H         PUBLIC        _DoPrint
  C:807DH         PUBLIC        _GraphicsPrint
  C:833FH         PUBLIC        _DEBUG_MESSAGE
  X:02D3H         SYMBOL        _PrintColor
  C:843FH         PUBLIC        _Printf
  C:407BH         SYMBOL        L?0098
  -------         PROC          L?0097
  -------         ENDPROC       L?0097
  C:407BH         SYMBOL        L?0098
  -------         PROC          _DOPRINT
  X:0193H         SYMBOL        fmt
  X:0196H         SYMBOL        ap
  -------         DO            
  X:0199H         SYMBOL        ch
  X:019AH         SYMBOL        i
  X:019BH         SYMBOL        value
  B:0021H.3       SYMBOL        fl_zero
  B:0021H.4       SYMBOL        fl_num
  X:019FH         SYMBOL        fl_len
  X:01A0H         SYMBOL        cnt
  X:01A1H         SYMBOL        mask
  X:01A5H         SYMBOL        ptr
  -------         ENDDO         
  C:4083H         LINE#         39
  C:408EH         LINE#         40
  C:408EH         LINE#         48
  C:4098H         LINE#         54
  C:4098H         LINE#         58
  C:40B8H         LINE#         59
  C:40B8H         LINE#         60
  C:40C9H         LINE#         61
  C:40D3H         LINE#         62
  C:40DCH         LINE#         63
  C:40DCH         LINE#         64
  C:40DCH         LINE#         68
  C:40DEH         LINE#         69
  C:40E0H         LINE#         70
BL51 BANKED LINKER/LOCATER V6.22.2.0                                                  04/12/2021  16:41:58  PAGE 62


  C:40E5H         LINE#         72
  C:40FCH         LINE#         74
  C:4101H         LINE#         75
  C:4103H         LINE#         76
  C:411AH         LINE#         77
  C:411AH         LINE#         78
  C:411AH         LINE#         79
  C:411CH         LINE#         80
  C:4138H         LINE#         81
  C:4142H         LINE#         82
  C:4159H         LINE#         83
  C:4159H         LINE#         87
  C:415FH         LINE#         89
  C:4173H         LINE#         90
  C:4173H         LINE#         91
  C:4192H         LINE#         92
  C:4192H         LINE#         93
  C:41AFH         LINE#         94
  C:41AFH         LINE#         98
  C:41DBH         LINE#         100
  C:41DBH         LINE#         101
  C:41DBH         LINE#         103
  C:41EEH         LINE#         104
  C:41EEH         LINE#         105
  C:420EH         LINE#         106
  C:4223H         LINE#         107
  C:4225H         LINE#         109
  C:4225H         LINE#         110
  C:424AH         LINE#         111
  C:4260H         LINE#         112
  C:4262H         LINE#         114
  C:4262H         LINE#         115
  C:4266H         LINE#         116
  C:427FH         LINE#         117
  C:427FH         LINE#         118
  C:427FH         LINE#         120
  C:4291H         LINE#         121
  C:4299H         LINE#         122
  C:42B6H         LINE#         123
  C:42B6H         LINE#         125
  C:42BFH         LINE#         126
  C:42DEH         LINE#         128
  C:42F8H         LINE#         129
  C:4322H         LINE#         130
  C:433DH         LINE#         131
  C:4345H         LINE#         132
  C:4345H         LINE#         134
  C:439AH         LINE#         136
  C:439AH         LINE#         137
  C:43C1H         LINE#         138
  C:43E9H         LINE#         139
  C:43EBH         LINE#         140
  C:43F6H         LINE#         142
  C:4423H         LINE#         143
  C:4440H         LINE#         145
  C:445CH         LINE#         146
  C:445FH         LINE#         147
BL51 BANKED LINKER/LOCATER V6.22.2.0                                                  04/12/2021  16:41:58  PAGE 63


  C:445FH         LINE#         148
  C:445FH         LINE#         150
  C:445FH         LINE#         151
  C:445FH         LINE#         153
  C:446FH         LINE#         154
  C:4489H         LINE#         155
  C:44A4H         LINE#         156
  C:44BDH         LINE#         157
  C:44BDH         LINE#         159
  C:44CBH         LINE#         161
  C:44EBH         LINE#         162
  C:4526H         LINE#         163
  C:452EH         LINE#         164
  C:452EH         LINE#         166
  C:452EH         LINE#         177
  C:454CH         LINE#         178
  C:455FH         LINE#         179
  C:457BH         LINE#         180
  C:457BH         LINE#         185
  C:457BH         LINE#         186
  C:459DH         LINE#         187
  C:45AEH         LINE#         188
  C:45AEH         LINE#         190
  C:45AEH         LINE#         191
  C:45CDH         LINE#         192
  C:45D0H         LINE#         193
  C:45D0H         LINE#         194
  C:45D0H         LINE#         195
  -------         ENDPROC       _DOPRINT
  -------         PROC          _PRINTF
  X:012AH         SYMBOL        fmt
  -------         DO            
  X:012DH         SYMBOL        ellipsis_40
  X:0155H         SYMBOL        ap
  -------         ENDDO         
  C:843FH         LINE#         202
  C:844AH         LINE#         203
  C:844AH         LINE#         206
  C:8458H         LINE#         207
  C:8473H         LINE#         208
  C:847CH         LINE#         209
  -------         ENDPROC       _PRINTF
  -------         PROC          L?0099
  -------         ENDPROC       L?0099
  -------         PROC          _DEBUG_MESSAGE
  X:0165H         SYMBOL        fmt
  -------         DO            
  X:0168H         SYMBOL        ellipsis_40
  X:0190H         SYMBOL        ap
  -------         ENDDO         
  C:833FH         LINE#         211
  C:834AH         LINE#         212
  C:834AH         LINE#         214
  C:8358H         LINE#         216
  C:8373H         LINE#         218
  C:837CH         LINE#         220
  -------         ENDPROC       _DEBUG_MESSAGE
BL51 BANKED LINKER/LOCATER V6.22.2.0                                                  04/12/2021  16:41:58  PAGE 64


  -------         PROC          _PUTS
  X:010AH         SYMBOL        ptr
  C:85FCH         LINE#         223
  C:8607H         LINE#         224
  C:8607H         LINE#         225
  C:8617H         LINE#         226
  C:862EH         LINE#         227
  -------         ENDPROC       _PUTS
  -------         PROC          _GRAPHICSPRINT
  D:0007H         SYMBOL        mode
  X:0137H         SYMBOL        Message
  -------         DO            
  X:013AH         SYMBOL        ellipsis_40
  X:0162H         SYMBOL        ap
  -------         ENDDO         
  C:807DH         LINE#         280
  C:8088H         LINE#         281
  C:8088H         LINE#         287
  C:808BH         LINE#         291
  C:808BH         LINE#         293
  C:809CH         LINE#         294
  C:80AAH         LINE#         295
  C:80C5H         LINE#         296
  C:80CEH         LINE#         297
  C:80D4H         LINE#         298
  C:80D4H         LINE#         307
  -------         ENDPROC       _GRAPHICSPRINT
  -------         ENDMOD        PRINTF

  -------         MODULE        SYSPOWER
  C:0000H         SYMBOL        _ICE_DUMMY_
  D:00B2H         PUBLIC        P3M1
  B:00A0H.0       PUBLIC        P2_0
  B:0080H.2       PUBLIC        P0_2
  B:00A0H.1       PUBLIC        P2_1
  B:0080H.3       PUBLIC        P0_3
  B:00E8H.0       PUBLIC        P4_0
  B:00A0H.2       PUBLIC        P2_2
  B:0080H.4       PUBLIC        P0_4
  C:7CE7H         PUBLIC        SysPowerHandler
  B:00E8H.1       PUBLIC        P4_1
  B:00E8H.2       PUBLIC        P4_2
  B:0080H.6       PUBLIC        P0_6
  B:00A0H.6       PUBLIC        P2_6
  B:00B0H.6       PUBLIC        P3_6
  B:00B0H.7       PUBLIC        P3_7
  C:868DH         PUBLIC        SysPowerInitial
  C:7505H         PUBLIC        _UserInterfacePowerSwitch
  C:86B9H         PUBLIC        _SysPowerSwitch
  I:0011H         PUBLIC        g_stPowerInfo
  C:5E76H         PUBLIC        _UserInterfaceBatteryChargeMode
  -------         PROC          SYSPOWERINITIAL
  C:868DH         LINE#         66
  C:868DH         LINE#         67
  C:868DH         LINE#         68
  C:868FH         LINE#         69
  C:8691H         LINE#         70
BL51 BANKED LINKER/LOCATER V6.22.2.0                                                  04/12/2021  16:41:58  PAGE 65


  C:8693H         LINE#         71
  C:8695H         LINE#         72
  C:8697H         LINE#         73
  C:8699H         LINE#         74
  C:869BH         LINE#         75
  C:869DH         LINE#         76
  C:869FH         LINE#         77
  C:86A1H         LINE#         78
  C:86A3H         LINE#         79
  C:86A5H         LINE#         80
  C:86A7H         LINE#         81
  C:86A9H         LINE#         83
  C:86B0H         LINE#         85
  -------         ENDPROC       SYSPOWERINITIAL
  -------         PROC          SYSPOWERHANDLER
  C:7CE7H         LINE#         94
  C:7CE7H         LINE#         95
  C:7CE7H         LINE#         97
  C:7CF8H         LINE#         98
  C:7CF8H         LINE#         99
  C:7CF8H         LINE#         101
  C:7D06H         LINE#         102
  C:7D06H         LINE#         103
  C:7D06H         LINE#         104
  C:7D08H         LINE#         105
  C:7D0AH         LINE#         107
  C:7D0AH         LINE#         108
  C:7D0CH         LINE#         109
  C:7D0EH         LINE#         111
  C:7D0EH         LINE#         112
  C:7D13H         LINE#         113
  C:7D13H         LINE#         115
  C:7D13H         LINE#         116
  C:7D13H         LINE#         117
  C:7D13H         LINE#         118
  C:7D13H         LINE#         119
  C:7D13H         LINE#         120
  C:7D13H         LINE#         121
  C:7D13H         LINE#         123
  C:7D1BH         LINE#         125
  C:7D1DH         LINE#         127
  C:7D1DH         LINE#         129
  C:7D2DH         LINE#         130
  C:7D2DH         LINE#         131
  C:7D2DH         LINE#         132
  C:7D2FH         LINE#         133
  C:7D31H         LINE#         135
  C:7D31H         LINE#         136
  C:7D33H         LINE#         137
  C:7D35H         LINE#         140
  C:7D35H         LINE#         141
  C:7D3AH         LINE#         142
  C:7D3AH         LINE#         144
  C:7D3AH         LINE#         145
  C:7D3AH         LINE#         146
  C:7D3AH         LINE#         148
  C:7D42H         LINE#         150
BL51 BANKED LINKER/LOCATER V6.22.2.0                                                  04/12/2021  16:41:58  PAGE 66


  C:7D44H         LINE#         152
  C:7D44H         LINE#         154
  C:7D4EH         LINE#         155
  C:7D4EH         LINE#         156
  C:7D4EH         LINE#         157
  C:7D53H         LINE#         158
  C:7D53H         LINE#         160
  C:7D53H         LINE#         161
  C:7D53H         LINE#         162
  C:7D53H         LINE#         164
  C:7D5BH         LINE#         166
  C:7D5BH         LINE#         167
  C:7D5BH         LINE#         168
  C:7D5BH         LINE#         169
  C:7D5BH         LINE#         172
  C:7D6AH         LINE#         174
  -------         ENDPROC       SYSPOWERHANDLER
  -------         PROC          _USERINTERFACEBATTERYCHARGEMODE
  X:010AH         SYMBOL        enumSwitch
  C:5E76H         LINE#         176
  C:5E7BH         LINE#         177
  C:5E7BH         LINE#         179
  C:5E80H         LINE#         180
  C:5E85H         LINE#         181
  C:5E8AH         LINE#         182
  C:5E8FH         LINE#         183
  C:5E94H         LINE#         184
  C:5E99H         LINE#         186
  C:5ECBH         LINE#         187
  C:5ECBH         LINE#         188
  C:5ECBH         LINE#         189
  C:5ED2H         LINE#         191
  C:5EDDH         LINE#         194
  C:5EE6H         LINE#         196
  C:5EF5H         LINE#         197
  C:5EF8H         LINE#         198
  C:5F02H         LINE#         199
  C:5F02H         LINE#         200
  C:5F0EH         LINE#         201
  C:5F10H         LINE#         203
  C:5F10H         LINE#         204
  C:5F16H         LINE#         205
  C:5F1BH         LINE#         206
  C:5F25H         LINE#         207
  C:5F2AH         LINE#         209
  C:5F2CH         LINE#         210
  C:5F2CH         LINE#         211
  C:5F2FH         LINE#         212
  C:5F39H         LINE#         213
  C:5F39H         LINE#         214
  C:5F43H         LINE#         215
  C:5F48H         LINE#         217
  C:5F4AH         LINE#         218
  C:5F4DH         LINE#         220
  C:5F4DH         LINE#         222
  C:5F50H         LINE#         223
  C:5F50H         LINE#         224
BL51 BANKED LINKER/LOCATER V6.22.2.0                                                  04/12/2021  16:41:58  PAGE 67


  C:5F57H         LINE#         226
  C:5F62H         LINE#         228
  C:5F6BH         LINE#         230
  C:5F7AH         LINE#         231
  C:5F7FH         LINE#         232
  C:5F89H         LINE#         233
  C:5F95H         LINE#         234
  C:5F99H         LINE#         236
  C:5F9BH         LINE#         238
  C:5F9EH         LINE#         240
  C:5F9EH         LINE#         241
  C:5FB2H         LINE#         242
  C:5FB7H         LINE#         243
  C:5FC5H         LINE#         244
  C:5FCAH         LINE#         246
  C:5FCAH         LINE#         248
  C:5FCAH         LINE#         249
  C:5FCDH         LINE#         250
  C:5FCDH         LINE#         251
  C:5FD4H         LINE#         253
  C:5FDFH         LINE#         256
  C:5FE8H         LINE#         259
  C:5FF7H         LINE#         260
  C:5FFCH         LINE#         261
  C:6006H         LINE#         262
  C:6012H         LINE#         263
  C:6016H         LINE#         265
  C:6018H         LINE#         266
  C:601BH         LINE#         268
  C:601BH         LINE#         269
  C:6029H         LINE#         270
  C:602EH         LINE#         272
  C:602EH         LINE#         274
  C:602EH         LINE#         275
  C:6031H         LINE#         276
  C:6031H         LINE#         277
  C:6038H         LINE#         279
  C:6043H         LINE#         281
  C:604CH         LINE#         283
  C:605BH         LINE#         284
  C:6060H         LINE#         285
  C:606AH         LINE#         286
  C:606AH         LINE#         287
  C:6076H         LINE#         288
  C:607AH         LINE#         290
  C:607CH         LINE#         292
  C:607FH         LINE#         294
  C:607FH         LINE#         295
  C:6093H         LINE#         296
  C:6097H         LINE#         297
  C:60A5H         LINE#         298
  C:60A9H         LINE#         300
  C:60ABH         LINE#         302
  C:60ABH         LINE#         303
  C:60ADH         LINE#         304
  C:60ADH         LINE#         305
  C:60B4H         LINE#         307
BL51 BANKED LINKER/LOCATER V6.22.2.0                                                  04/12/2021  16:41:58  PAGE 68


  C:60BFH         LINE#         309
  C:60C8H         LINE#         311
  C:60D7H         LINE#         312
  C:60DBH         LINE#         313
  C:60E5H         LINE#         314
  C:60E9H         LINE#         315
  C:60F3H         LINE#         316
  C:60FAH         LINE#         318
  C:60FAH         LINE#         319
  C:6100H         LINE#         320
  C:6100H         LINE#         321
  C:6102H         LINE#         322
  C:6102H         LINE#         324
  C:610DH         LINE#         327
  C:6117H         LINE#         328
  C:611EH         LINE#         330
  C:6120H         LINE#         332
  C:6126H         LINE#         333
  C:6128H         LINE#         335
  C:6128H         LINE#         337
  C:6133H         LINE#         340
  C:613DH         LINE#         341
  C:613DH         LINE#         342
  C:6142H         LINE#         343
  C:6149H         LINE#         344
  C:614BH         LINE#         346
  C:614DH         LINE#         348
  C:6154H         LINE#         349
  C:6158H         LINE#         351
  C:6161H         LINE#         353
  C:6161H         LINE#         354
  C:6161H         LINE#         356
  -------         ENDPROC       _USERINTERFACEBATTERYCHARGEMODE
  -------         PROC          _USERINTERFACEPOWERSWITCH
  X:010BH         SYMBOL        enumSwitch
  C:7505H         LINE#         358
  C:750AH         LINE#         359
  C:750AH         LINE#         360
  C:751BH         LINE#         363
  C:754CH         LINE#         364
  C:754CH         LINE#         365
  C:754CH         LINE#         366
  C:754CH         LINE#         367
  C:754CH         LINE#         370
  C:754EH         LINE#         371
  C:7550H         LINE#         372
  C:7552H         LINE#         373
  C:7554H         LINE#         374
  C:7556H         LINE#         375
  C:7558H         LINE#         376
  C:755FH         LINE#         377
  C:7561H         LINE#         379
  C:756AH         LINE#         380
  C:7570H         LINE#         396
  C:7572H         LINE#         397
  C:7572H         LINE#         398
  C:7574H         LINE#         399
BL51 BANKED LINKER/LOCATER V6.22.2.0                                                  04/12/2021  16:41:58  PAGE 69


  C:7576H         LINE#         400
  C:757DH         LINE#         401
  C:757FH         LINE#         402
  C:7581H         LINE#         404
  C:758DH         LINE#         405
  C:758DH         LINE#         406
  C:7591H         LINE#         407
  C:7596H         LINE#         408
  C:7596H         LINE#         410
  C:7599H         LINE#         411
  C:759BH         LINE#         413
  C:759BH         LINE#         414
  C:759BH         LINE#         415
  C:759BH         LINE#         417
  C:759DH         LINE#         418
  C:759FH         LINE#         419
  C:75A1H         LINE#         420
  C:75A3H         LINE#         421
  C:75A5H         LINE#         422
  C:75A7H         LINE#         423
  C:75A9H         LINE#         424
  C:75ABH         LINE#         425
  C:75ADH         LINE#         426
  C:75AFH         LINE#         431
  C:75B1H         LINE#         435
  C:75B3H         LINE#         438
  C:75BAH         LINE#         439
  C:75C3H         LINE#         440
  C:75C5H         LINE#         442
  C:75C5H         LINE#         446
  C:75C7H         LINE#         447
  C:75C9H         LINE#         448
  C:75CBH         LINE#         449
  C:75CDH         LINE#         451
  C:75CFH         LINE#         452
  C:75D1H         LINE#         457
  C:75D4H         LINE#         458
  C:75D4H         LINE#         460
  C:75D4H         LINE#         462
  C:75D4H         LINE#         463
  C:75D4H         LINE#         466
  C:75DDH         LINE#         468
  -------         ENDPROC       _USERINTERFACEPOWERSWITCH
  -------         PROC          _SYSPOWERSWITCH
  X:0106H         SYMBOL        enumSwitch
  C:86B9H         LINE#         475
  C:86BEH         LINE#         476
  C:86BEH         LINE#         479
  C:86DCH         LINE#         480
  C:86DCH         LINE#         481
  C:86DCH         LINE#         485
  C:86DCH         LINE#         486
  C:86DCH         LINE#         487
  C:86DCH         LINE#         488
  C:86DCH         LINE#         489
  C:86DCH         LINE#         490
  C:86DCH         LINE#         495
BL51 BANKED LINKER/LOCATER V6.22.2.0                                                  04/12/2021  16:41:58  PAGE 70


  C:86DCH         LINE#         496
  C:86DCH         LINE#         497
  C:86DCH         LINE#         498
  C:86DCH         LINE#         499
  C:86DCH         LINE#         500
  C:86E4H         LINE#         503
  C:86E4H         LINE#         505
  C:86E4H         LINE#         506
  C:86E4H         LINE#         507
  C:86E4H         LINE#         509
  -------         ENDPROC       _SYSPOWERSWITCH
  -------         ENDMOD        SYSPOWER

  -------         MODULE        SYSTIMER
  C:0000H         SYMBOL        _ICE_DUMMY_
  X:0221H         PUBLIC        BATERY_STAT_TEMP
  D:00B2H         PUBLIC        P3M1
  X:0222H         PUBLIC        BattDetectHighStop_COUNT
  C:8903H         PUBLIC        _MCUTimerClrEventValid
  X:0223H         PUBLIC        BattDetect1_COUNT
  X:0224H         PUBLIC        STAT1_temp
  X:0225H         PUBLIC        BattDetect2_COUNT
  X:0226H         PUBLIC        STAT2_temp
  C:7C62H         PUBLIC        SysTimerHandler
  X:0227H         PUBLIC        BattDetect3_COUNT
  B:0021H.1       PUBLIC        g_bNotifyTimer0Int
  X:0228H         PUBLIC        BattDetect4_COUNT
  X:0229H         PUBLIC        BattDetect5_COUNT
  X:022AH         PUBLIC        PWM_TEMP
  B:0080H.0       PUBLIC        P0_0
  X:022BH         PUBLIC        TEMP_LOW_WARN_COUNT
  B:0080H.1       PUBLIC        P0_1
  B:00E8H.2       PUBLIC        P4_2
  C:8883H         PUBLIC        _MCUTimerDelayXms
  B:00A0H.6       PUBLIC        P2_6
  B:00B0H.7       PUBLIC        P3_7
  X:022CH         PUBLIC        g_usTimerCounter
  C:88C6H         PUBLIC        _MCUTimerGetEventID
  C:88EFH         PUBLIC        _MCUTimerGetEventTime
  X:022EH         PUBLIC        TEMP_HIGH_COUNT
  X:022FH         PUBLIC        BattDetectStartUp_COUNT
  C:7427H         PUBLIC        _MCUTimerReactiveTimerEvent
  X:0230H         PUBLIC        BatteryVoltage
  X:0232H         PUBLIC        g_stTimerEvent
  X:026EH         PUBLIC        WDT_Echo_Count
  X:026FH         PUBLIC        TEMP_HIGH_WARN_COUNT
  X:0270H         PUBLIC        BatteryBTH
  C:83C0H         PUBLIC        _MCUTimerCancelTimerEvent
  C:8734H         PUBLIC        MCUTimerInitialTimerEvent
  C:893AH         PUBLIC        _MCUTimerCheckEventValid
  X:0272H         PUBLIC        STAT1_Flag
  X:0273H         PUBLIC        STAT2_Flag
  X:0274H         PUBLIC        TEMP_NORMAL_COUNT
  X:0275H         PUBLIC        TEMP_STAT
  C:7348H         PUBLIC        _MCUTimerActiveTimerEvent
  C:6F02H         PUBLIC        _MCUTimerCheckTimerEvent
  X:0276H         PUBLIC        BattDetectHigh_COUNT
BL51 BANKED LINKER/LOCATER V6.22.2.0                                                  04/12/2021  16:41:58  PAGE 71


  C:667AH         PUBLIC        _UserInterfaceTimerEventProc
  C:0066H         PUBLIC        _SysTimerEventProc
  X:0277H         PUBLIC        BATERY_STAT
  B:0021H.2       PUBLIC        Monitor_flag
  X:0278H         PUBLIC        BattDetectNoStartUp_COUNT
  X:0279H         PUBLIC        CHARGE_TEMP_NORMAL
  X:027AH         PUBLIC        CHARGE_TEMP_ABNORMAL
  X:027BH         PUBLIC        TEMP_LOW_COUNT
  C:825FH         PUBLIC        MCUTimerGetTimerCounter
  X:027CH         PUBLIC        BattDetectMin_COUNT
  C:887FH         SYMBOL        L?0386
  -------         PROC          L?0385
  -------         ENDPROC       L?0385
  C:887FH         SYMBOL        L?0386
  -------         PROC          _MCUTIMERDELAYXMS
  D:0006H         SYMBOL        usNum
  C:8883H         LINE#         116
  C:8883H         LINE#         117
  C:8883H         LINE#         118
  C:8887H         LINE#         119
  C:8887H         LINE#         120
  C:8889H         LINE#         122
  C:8889H         LINE#         123
  C:8889H         LINE#         124
  C:888CH         LINE#         125
  C:888CH         LINE#         126
  C:888EH         LINE#         128
  C:8897H         LINE#         129
  C:8897H         LINE#         130
  C:8897H         LINE#         132
  C:8897H         LINE#         134
  C:8897H         LINE#         135
  C:8897H         LINE#         136
  C:8897H         LINE#         137
  C:8897H         LINE#         138
  -------         ENDPROC       _MCUTIMERDELAYXMS
  -------         PROC          _MCUTIMERGETEVENTTIME
  D:0007H         SYMBOL        ucEventIndex
  C:88EFH         LINE#         145
  C:88EFH         LINE#         146
  C:88EFH         LINE#         147
  C:8902H         LINE#         148
  -------         ENDPROC       _MCUTIMERGETEVENTTIME
  -------         PROC          _MCUTIMERGETEVENTID
  D:0007H         SYMBOL        ucEventIndex
  C:88C6H         LINE#         155
  C:88C6H         LINE#         156
  C:88C6H         LINE#         157
  C:88DAH         LINE#         158
  -------         ENDPROC       _MCUTIMERGETEVENTID
  -------         PROC          _MCUTIMERCLREVENTVALID
  D:0007H         SYMBOL        ucEventIndex
  C:8903H         LINE#         167
  C:8903H         LINE#         168
  C:8903H         LINE#         169
  C:8915H         LINE#         170
  -------         ENDPROC       _MCUTIMERCLREVENTVALID
BL51 BANKED LINKER/LOCATER V6.22.2.0                                                  04/12/2021  16:41:58  PAGE 72


  -------         PROC          _MCUTIMERCHECKEVENTVALID
  D:0007H         SYMBOL        ucEventIndex
  C:893AH         LINE#         177
  C:893AH         LINE#         178
  C:893AH         LINE#         179
  C:894AH         LINE#         180
  -------         ENDPROC       _MCUTIMERCHECKEVENTVALID
  -------         PROC          MCUTIMERGETTIMERCOUNTER
  -------         DO            
  X:0133H         SYMBOL        usPresentTime
  -------         ENDDO         
  C:825FH         LINE#         187
  C:825FH         LINE#         188
  C:825FH         LINE#         189
  C:826EH         LINE#         193
  C:8291H         LINE#         194
  C:8291H         LINE#         195
  C:82A0H         LINE#         196
  C:82A0H         LINE#         198
  C:82A8H         LINE#         199
  -------         ENDPROC       MCUTIMERGETTIMERCOUNTER
  -------         PROC          _MCUTIMERCHECKTIMEREVENT
  X:012EH         SYMBOL        usTime
  -------         DO            
  X:0130H         SYMBOL        ucTimerEventCnt
  X:0131H         SYMBOL        usPresentTime
  -------         ENDDO         
  C:6F02H         LINE#         205
  C:6F0AH         LINE#         206
  C:6F0AH         LINE#         207
  C:6F0DH         LINE#         208
  C:6F11H         LINE#         210
  C:6F1CH         LINE#         212
  C:6F33H         LINE#         213
  C:6F33H         LINE#         214
  C:6F3DH         LINE#         215
  C:6F3DH         LINE#         217
  C:6F7FH         LINE#         219
  C:6F7FH         LINE#         220
  C:6F86H         LINE#         223
  C:6F9BH         LINE#         224
  C:6F9BH         LINE#         225
  C:6FB0H         LINE#         226
  C:6FB0H         LINE#         227
  C:6FD6H         LINE#         228
  C:6FD6H         LINE#         229
  C:7000H         LINE#         230
  C:7002H         LINE#         232
  C:7002H         LINE#         233
  C:7017H         LINE#         234
  C:7017H         LINE#         235
  C:7017H         LINE#         236
  C:7020H         LINE#         238
  C:7027H         LINE#         239
  C:7027H         LINE#         241
  C:702FH         LINE#         242
  -------         ENDPROC       _MCUTIMERCHECKTIMEREVENT
BL51 BANKED LINKER/LOCATER V6.22.2.0                                                  04/12/2021  16:41:58  PAGE 73


  -------         PROC          MCUTIMERINITIALTIMEREVENT
  -------         DO            
  D:0007H         SYMBOL        ucTimerEventCnt
  -------         ENDDO         
  C:8734H         LINE#         249
  C:8734H         LINE#         250
  C:8734H         LINE#         251
  C:8736H         LINE#         253
  C:8740H         LINE#         254
  C:8740H         LINE#         255
  C:8752H         LINE#         256
  C:8755H         LINE#         259
  -------         ENDPROC       MCUTIMERINITIALTIMEREVENT
  C:7344H         SYMBOL        L?0384
  -------         PROC          L?0383
  -------         ENDPROC       L?0383
  C:7344H         SYMBOL        L?0384
  -------         PROC          _MCUTIMERACTIVETIMEREVENT
  X:012AH         SYMBOL        usTime
  X:012CH         SYMBOL        ucEventID
  -------         DO            
  X:012DH         SYMBOL        ucEventIndex
  -------         ENDDO         
  C:7348H         LINE#         267
  C:7353H         LINE#         268
  C:7353H         LINE#         269
  C:7356H         LINE#         272
  C:7365H         LINE#         273
  C:7365H         LINE#         274
  C:737BH         LINE#         275
  C:737BH         LINE#         276
  C:738BH         LINE#         277
  C:738BH         LINE#         279
  C:738BH         LINE#         280
  C:738BH         LINE#         281
  C:7393H         LINE#         284
  C:73A9H         LINE#         285
  C:73A9H         LINE#         286
  C:73BDH         LINE#         287
  C:73BDH         LINE#         288
  C:73D3H         LINE#         289
  C:73EFH         LINE#         290
  C:741DH         LINE#         292
  C:741DH         LINE#         293
  C:7426H         LINE#         296
  -------         ENDPROC       _MCUTIMERACTIVETIMEREVENT
  -------         PROC          _MCUTIMERCANCELTIMEREVENT
  D:0007H         SYMBOL        ucEventID
  -------         DO            
  D:0006H         SYMBOL        ucEventIndex
  -------         ENDDO         
  C:83C0H         LINE#         303
  C:83C0H         LINE#         304
  C:83C0H         LINE#         305
  C:83C2H         LINE#         308
  C:83CCH         LINE#         309
  C:83CCH         LINE#         310
BL51 BANKED LINKER/LOCATER V6.22.2.0                                                  04/12/2021  16:41:58  PAGE 74


  C:83E2H         LINE#         311
  C:83E2H         LINE#         312
  C:83EAH         LINE#         313
  C:83EAH         LINE#         314
  C:83FDH         LINE#         316
  C:83FDH         LINE#         317
  C:83FDH         LINE#         318
  C:8400H         LINE#         319
  -------         ENDPROC       _MCUTIMERCANCELTIMEREVENT
  -------         PROC          _MCUTIMERREACTIVETIMEREVENT
  X:010BH         SYMBOL        usTime
  X:010DH         SYMBOL        ucEventID
  -------         DO            
  X:010EH         SYMBOL        ucEventIndex
  -------         ENDDO         
  C:7427H         LINE#         328
  C:7432H         LINE#         329
  C:7432H         LINE#         330
  C:7435H         LINE#         333
  C:7444H         LINE#         334
  C:7444H         LINE#         335
  C:745AH         LINE#         336
  C:745AH         LINE#         337
  C:7467H         LINE#         338
  C:7467H         LINE#         339
  C:7469H         LINE#         341
  C:7469H         LINE#         342
  C:7469H         LINE#         343
  C:7471H         LINE#         346
  C:7487H         LINE#         347
  C:7487H         LINE#         348
  C:749BH         LINE#         349
  C:749BH         LINE#         350
  C:74B1H         LINE#         351
  C:74CDH         LINE#         352
  C:74FBH         LINE#         354
  C:74FBH         LINE#         355
  C:7504H         LINE#         356
  -------         ENDPROC       _MCUTIMERREACTIVETIMEREVENT
  -------         PROC          _USERINTERFACETIMEREVENTPROC
  D:0007H         SYMBOL        ucEventID
  C:667AH         LINE#         359
  C:667AH         LINE#         360
  C:667AH         LINE#         362
  C:66C2H         LINE#         363
  C:66C2H         LINE#         365
  C:66C2H         LINE#         366
  C:66CAH         LINE#         367
  C:66D6H         LINE#         369
  C:66DCH         LINE#         371
  C:66DEH         LINE#         373
  C:66DEH         LINE#         374
  C:66E6H         LINE#         375
  C:66F2H         LINE#         377
  C:6704H         LINE#         379
  C:6707H         LINE#         380
  C:6707H         LINE#         381
BL51 BANKED LINKER/LOCATER V6.22.2.0                                                  04/12/2021  16:41:58  PAGE 75


  C:670FH         LINE#         382
  C:671BH         LINE#         384
  C:6730H         LINE#         386
  C:6733H         LINE#         387
  C:6733H         LINE#         388
  C:6738H         LINE#         390
  C:6740H         LINE#         392
  C:6743H         LINE#         393
  C:6743H         LINE#         394
  C:6748H         LINE#         396
  C:6750H         LINE#         398
  C:6753H         LINE#         399
  C:6753H         LINE#         401
  C:675EH         LINE#         403
  C:6766H         LINE#         404
  C:676EH         LINE#         405
  C:6776H         LINE#         406
  C:6780H         LINE#         407
  C:6781H         LINE#         408
  C:6781H         LINE#         410
  C:678DH         LINE#         411
  C:678DH         LINE#         412
  C:6792H         LINE#         414
  C:6798H         LINE#         416
  C:679AH         LINE#         419
  C:679AH         LINE#         420
  C:67A2H         LINE#         421
  C:67A2H         LINE#         424
  C:67A5H         LINE#         426
  C:67A5H         LINE#         428
  C:67B4H         LINE#         429
  C:67B4H         LINE#         430
  C:67BCH         LINE#         431
  C:67C0H         LINE#         433
  C:67C8H         LINE#         435
  C:67C8H         LINE#         436
  C:67CBH         LINE#         438
  C:67CBH         LINE#         439
  C:67D2H         LINE#         440
  C:67D6H         LINE#         441
  C:67DCH         LINE#         442
  C:67E0H         LINE#         444
  C:67ECH         LINE#         447
  C:67EFH         LINE#         449
  C:67EFH         LINE#         451
  C:67FAH         LINE#         453
  C:6807H         LINE#         454
  C:6807H         LINE#         455
  C:680BH         LINE#         456
  C:680EH         LINE#         457
  C:6813H         LINE#         458
  C:681CH         LINE#         460
  C:681FH         LINE#         461
  C:6820H         LINE#         463
  C:6820H         LINE#         464
  C:6825H         LINE#         465
  C:6825H         LINE#         466
BL51 BANKED LINKER/LOCATER V6.22.2.0                                                  04/12/2021  16:41:58  PAGE 76


  C:6825H         LINE#         468
  C:6825H         LINE#         470
  C:6830H         LINE#         472
  C:6837H         LINE#         473
  C:683CH         LINE#         474
  C:6845H         LINE#         475
  C:6845H         LINE#         477
  C:6845H         LINE#         479
  C:6850H         LINE#         481
  C:6853H         LINE#         482
  C:6853H         LINE#         484
  C:6853H         LINE#         486
  C:685BH         LINE#         488
  C:685DH         LINE#         490
  C:685DH         LINE#         491
  C:685FH         LINE#         493
  C:686AH         LINE#         495
  C:686FH         LINE#         496
  C:686FH         LINE#         498
  C:686FH         LINE#         500
  C:687AH         LINE#         502
  C:687AH         LINE#         505
  C:687AH         LINE#         506
  C:687CH         LINE#         507
  C:687CH         LINE#         510
  C:687CH         LINE#         513
  C:687CH         LINE#         515
  -------         ENDPROC       _USERINTERFACETIMEREVENTPROC
  -------         PROC          SYSTIMERHANDLER
  -------         DO            
  X:0106H         SYMBOL        ucTimerEventIndex
  X:0107H         SYMBOL        ucTimerEventID
  X:0108H         SYMBOL        usPresentTime
  -------         ENDDO         
  C:7C62H         LINE#         522
  C:7C62H         LINE#         523
  C:7C62H         LINE#         524
  C:7C67H         LINE#         525
  C:7C69H         LINE#         526
  C:7C6DH         LINE#         528
  C:7C7EH         LINE#         529
  C:7C7EH         LINE#         530
  C:7C89H         LINE#         532
  C:7C93H         LINE#         533
  C:7C93H         LINE#         534
  C:7C93H         LINE#         535
  C:7C93H         LINE#         537
  C:7CA8H         LINE#         538
  C:7CA8H         LINE#         539
  C:7CB0H         LINE#         542
  C:7CBDH         LINE#         544
  C:7CC6H         LINE#         545
  C:7CC6H         LINE#         546
  C:7CCBH         LINE#         548
  C:7CCDH         LINE#         549
  C:7CCDH         LINE#         551
  C:7CDBH         LINE#         552
BL51 BANKED LINKER/LOCATER V6.22.2.0                                                  04/12/2021  16:41:58  PAGE 77


  C:7CDBH         LINE#         553
  C:7CDEH         LINE#         555
  C:7CDEH         LINE#         556
  C:7CDEH         LINE#         559
  C:7CDEH         LINE#         560
  C:7CE6H         LINE#         562
  -------         ENDPROC       SYSTIMERHANDLER
  -------         PROC          _SYSTIMEREVENTPROC
  D:0007H         SYMBOL        enumEventID
  C:0066H         LINE#         569
  C:0066H         LINE#         570
  C:0066H         LINE#         572
  C:00DCH         LINE#         573
  C:00DCH         LINE#         574
  C:00DCH         LINE#         575
  C:00DEH         LINE#         576
  C:00E0H         LINE#         578
  C:00E0H         LINE#         579
  C:00E2H         LINE#         580
  C:00E4H         LINE#         582
  C:00E4H         LINE#         583
  C:00E6H         LINE#         584
  C:00E8H         LINE#         586
  C:00E8H         LINE#         587
  C:00EDH         LINE#         588
  C:00EDH         LINE#         590
  C:00EDH         LINE#         591
  C:00F2H         LINE#         592
  C:00F6H         LINE#         593
  C:00F9H         LINE#         595
  C:00F9H         LINE#         596
  C:00FEH         LINE#         597
  C:0100H         LINE#         598
  C:0103H         LINE#         600
  C:0103H         LINE#         601
  C:0108H         LINE#         602
  C:010AH         LINE#         604
  C:010DH         LINE#         606
  C:010DH         LINE#         607
  C:0112H         LINE#         608
  C:0114H         LINE#         610
  C:0117H         LINE#         612
  C:0117H         LINE#         613
  C:011CH         LINE#         614
  C:011EH         LINE#         615
  C:0121H         LINE#         616
  C:0121H         LINE#         618
  C:0121H         LINE#         619
  C:0126H         LINE#         620
  C:0128H         LINE#         621
  C:012BH         LINE#         622
  C:012BH         LINE#         623
  C:0130H         LINE#         624
  C:0135H         LINE#         625
  C:0138H         LINE#         626
  C:013DH         LINE#         627
  C:0140H         LINE#         629
BL51 BANKED LINKER/LOCATER V6.22.2.0                                                  04/12/2021  16:41:58  PAGE 78


  C:0145H         LINE#         630
  C:0148H         LINE#         631
  C:014DH         LINE#         632
  C:0150H         LINE#         634
  C:0155H         LINE#         635
  C:0158H         LINE#         636
  C:015DH         LINE#         637
  C:0160H         LINE#         639
  C:0169H         LINE#         640
  C:016AH         LINE#         642
  C:016AH         LINE#         644
  C:0172H         LINE#         645
  C:0172H         LINE#         647
  C:017EH         LINE#         648
  C:017EH         LINE#         650
  C:0185H         LINE#         651
  C:0185H         LINE#         653
  C:0190H         LINE#         656
  C:0195H         LINE#         657
  C:019AH         LINE#         658
  C:019AH         LINE#         660
  C:01A1H         LINE#         661
  C:01A1H         LINE#         662
  C:01A4H         LINE#         663
  C:01A9H         LINE#         665
  C:01B4H         LINE#         667
  C:01B4H         LINE#         669
  C:01B4H         LINE#         671
  C:01B6H         LINE#         673
  C:01B6H         LINE#         674
  C:01C2H         LINE#         675
  C:01C2H         LINE#         676
  C:01C9H         LINE#         677
  C:01C9H         LINE#         678
  C:01CCH         LINE#         679
  C:01D1H         LINE#         681
  C:01DCH         LINE#         683
  C:01DCH         LINE#         685
  C:01E3H         LINE#         686
  C:01E3H         LINE#         688
  C:01EEH         LINE#         690
  C:01F3H         LINE#         691
  C:01F8H         LINE#         692
  C:01F8H         LINE#         693
  C:01F8H         LINE#         694
  C:01F8H         LINE#         696
  C:01FAH         LINE#         697
  C:01FDH         LINE#         698
  C:01FDH         LINE#         700
  C:0204H         LINE#         701
  C:0209H         LINE#         703
  C:020BH         LINE#         705
  C:020EH         LINE#         706
  C:020EH         LINE#         708
  C:0219H         LINE#         710
  C:0220H         LINE#         711
  C:0221H         LINE#         712
BL51 BANKED LINKER/LOCATER V6.22.2.0                                                  04/12/2021  16:41:58  PAGE 79


  C:0221H         LINE#         715
  C:022CH         LINE#         717
  C:0237H         LINE#         720
  C:0247H         LINE#         721
  C:0250H         LINE#         722
  C:0262H         LINE#         723
  C:026BH         LINE#         724
  C:027DH         LINE#         725
  C:0286H         LINE#         726
  C:0298H         LINE#         727
  C:02A1H         LINE#         728
  C:02B3H         LINE#         729
  C:02BBH         LINE#         730
  C:02CDH         LINE#         731
  C:02D5H         LINE#         732
  C:02E7H         LINE#         733
  C:02EEH         LINE#         734
  C:0308H         LINE#         735
  C:030AH         LINE#         736
  C:0329H         LINE#         737
  C:0331H         LINE#         739
  C:0337H         LINE#         741
  C:0346H         LINE#         743
  C:0355H         LINE#         746
  C:036DH         LINE#         747
  C:0375H         LINE#         748
  C:0387H         LINE#         749
  C:038FH         LINE#         750
  C:03A1H         LINE#         751
  C:03A3H         LINE#         752
  C:03B5H         LINE#         753
  C:03BDH         LINE#         754
  C:03CFH         LINE#         755
  C:03D7H         LINE#         756
  C:03D7H         LINE#         757
  C:03DEH         LINE#         758
  C:03E3H         LINE#         759
  C:03E9H         LINE#         760
  C:03E9H         LINE#         762
  C:03F3H         LINE#         763
  C:03F9H         LINE#         765
  C:0408H         LINE#         767
  C:0410H         LINE#         768
  C:0419H         LINE#         769
  C:041BH         LINE#         771
  C:0423H         LINE#         772
  C:042FH         LINE#         773
  C:0431H         LINE#         785
  C:0432H         LINE#         786
  C:0432H         LINE#         790
  C:043DH         LINE#         794
  C:0445H         LINE#         805
  C:0445H         LINE#         806
  C:0450H         LINE#         807
  C:0450H         LINE#         808
  C:0455H         LINE#         809
  C:0459H         LINE#         810
BL51 BANKED LINKER/LOCATER V6.22.2.0                                                  04/12/2021  16:41:58  PAGE 80


  C:045DH         LINE#         811
  C:045FH         LINE#         812
  C:0461H         LINE#         813
  C:0465H         LINE#         814
  C:0469H         LINE#         815
  C:046DH         LINE#         816
  C:0471H         LINE#         817
  C:0475H         LINE#         818
  C:0475H         LINE#         822
  C:0485H         LINE#         823
  C:0485H         LINE#         824
  C:048AH         LINE#         825
  C:048EH         LINE#         826
  C:0492H         LINE#         827
  C:0494H         LINE#         828
  C:0496H         LINE#         829
  C:049CH         LINE#         830
  C:049DH         LINE#         831
  C:049DH         LINE#         832
  C:049DH         LINE#         833
  C:04A0H         LINE#         834
  C:04B2H         LINE#         835
  C:04B2H         LINE#         837
  C:04B7H         LINE#         838
  C:04BBH         LINE#         839
  C:04BFH         LINE#         840
  C:04C1H         LINE#         841
  C:04C3H         LINE#         842
  C:04C7H         LINE#         843
  C:04CBH         LINE#         844
  C:04CFH         LINE#         845
  C:04D5H         LINE#         846
  C:04D8H         LINE#         847
  C:04EAH         LINE#         848
  C:04EAH         LINE#         850
  C:04F0H         LINE#         851
  C:04F5H         LINE#         852
  C:04F9H         LINE#         853
  C:04FBH         LINE#         854
  C:04FDH         LINE#         855
  C:0501H         LINE#         856
  C:0501H         LINE#         857
  C:0501H         LINE#         858
  C:0501H         LINE#         859
  C:0503H         LINE#         860
  C:0515H         LINE#         861
  C:0515H         LINE#         863
  C:051AH         LINE#         864
  C:0520H         LINE#         865
  C:0525H         LINE#         866
  C:0527H         LINE#         867
  C:0529H         LINE#         868
  C:052DH         LINE#         869
  C:0530H         LINE#         870
  C:0530H         LINE#         872
  C:0533H         LINE#         873
  C:0545H         LINE#         874
BL51 BANKED LINKER/LOCATER V6.22.2.0                                                  04/12/2021  16:41:58  PAGE 81


  C:0545H         LINE#         876
  C:054AH         LINE#         877
  C:054EH         LINE#         878
  C:0554H         LINE#         879
  C:0557H         LINE#         880
  C:0559H         LINE#         881
  C:055DH         LINE#         882
  C:0561H         LINE#         883
  C:0564H         LINE#         884
  C:0564H         LINE#         886
  C:0567H         LINE#         887
  C:0579H         LINE#         888
  C:0579H         LINE#         890
  C:057EH         LINE#         891
  C:0582H         LINE#         892
  C:0586H         LINE#         893
  C:058AH         LINE#         894
  C:058DH         LINE#         895
  C:0591H         LINE#         896
  C:0595H         LINE#         897
  C:0598H         LINE#         898
  C:0598H         LINE#         900
  C:059BH         LINE#         901
  C:05ADH         LINE#         902
  C:05ADH         LINE#         904
  C:05B2H         LINE#         905
  C:05B6H         LINE#         906
  C:05BAH         LINE#         907
  C:05BCH         LINE#         908
  C:05C0H         LINE#         909
  C:05C5H         LINE#         910
  C:05C9H         LINE#         911
  C:05CCH         LINE#         912
  C:05CCH         LINE#         915
  C:05CEH         LINE#         916
  C:05E8H         LINE#         917
  C:05E8H         LINE#         918
  C:05ECH         LINE#         919
  C:05F0H         LINE#         920
  C:05F4H         LINE#         921
  C:05F6H         LINE#         922
  C:05F8H         LINE#         923
  C:05FCH         LINE#         924
  C:0602H         LINE#         925
  C:0606H         LINE#         926
  C:0606H         LINE#         928
  C:0608H         LINE#         929
  C:0627H         LINE#         930
  C:0627H         LINE#         931
  C:062BH         LINE#         932
  C:062FH         LINE#         933
  C:0633H         LINE#         934
  C:0635H         LINE#         935
  C:0637H         LINE#         936
  C:063BH         LINE#         937
  C:0641H         LINE#         938
  C:0646H         LINE#         939
BL51 BANKED LINKER/LOCATER V6.22.2.0                                                  04/12/2021  16:41:58  PAGE 82


  C:0646H         LINE#         941
  C:0648H         LINE#         943
  C:0648H         LINE#         944
  C:064DH         LINE#         945
  C:0651H         LINE#         946
  C:0655H         LINE#         947
  C:0657H         LINE#         948
  C:0659H         LINE#         949
  C:065DH         LINE#         950
  C:0661H         LINE#         951
  C:0667H         LINE#         952
  C:066CH         LINE#         953
  C:066CH         LINE#         955
  C:067BH         LINE#         956
  C:0683H         LINE#         958
  C:0688H         LINE#         960
  C:0690H         LINE#         961
  C:0690H         LINE#         962
  C:0696H         LINE#         963
  C:069BH         LINE#         964
  C:069BH         LINE#         965
  C:06A3H         LINE#         966
  C:06A3H         LINE#         967
  C:06A9H         LINE#         968
  C:06AEH         LINE#         969
  C:06AEH         LINE#         970
  C:06B6H         LINE#         971
  C:06B6H         LINE#         972
  C:06BCH         LINE#         973
  C:06C1H         LINE#         974
  C:06C1H         LINE#         975
  C:06C9H         LINE#         976
  C:06C9H         LINE#         977
  C:06CEH         LINE#         978
  C:06D3H         LINE#         979
  C:06D3H         LINE#         980
  C:06DBH         LINE#         981
  C:06DBH         LINE#         982
  C:06DFH         LINE#         983
  C:06E3H         LINE#         984
  C:06E3H         LINE#         986
  C:06EBH         LINE#         987
  C:06EBH         LINE#         988
  C:06F1H         LINE#         989
  C:06F6H         LINE#         990
  C:06F6H         LINE#         992
  C:06FEH         LINE#         993
  C:06FEH         LINE#         994
  C:0702H         LINE#         995
  C:0707H         LINE#         996
  C:0707H         LINE#         998
  C:070FH         LINE#         999
  C:070FH         LINE#         1000
  C:0715H         LINE#         1001
  C:0718H         LINE#         1002
  C:0718H         LINE#         1004
  C:0720H         LINE#         1005
BL51 BANKED LINKER/LOCATER V6.22.2.0                                                  04/12/2021  16:41:58  PAGE 83


  C:0720H         LINE#         1006
  C:0724H         LINE#         1007
  C:0729H         LINE#         1008
  C:0729H         LINE#         1010
  C:0731H         LINE#         1011
  C:0731H         LINE#         1012
  C:0737H         LINE#         1013
  C:073CH         LINE#         1014
  C:073CH         LINE#         1016
  C:0748H         LINE#         1017
  C:0748H         LINE#         1018
  C:074AH         LINE#         1019
  C:0753H         LINE#         1020
  C:0753H         LINE#         1022
  C:075BH         LINE#         1023
  C:075BH         LINE#         1024
  C:0766H         LINE#         1025
  C:0766H         LINE#         1027
  C:0771H         LINE#         1029
  C:0778H         LINE#         1030
  C:0781H         LINE#         1032
  C:078BH         LINE#         1033
  C:0793H         LINE#         1034
  C:0793H         LINE#         1036
  C:0798H         LINE#         1037
  C:0798H         LINE#         1039
  C:07A7H         LINE#         1040
  C:07A7H         LINE#         1044
  C:07AFH         LINE#         1045
  C:07B2H         LINE#         1047
  C:07B6H         LINE#         1077
  C:07B9H         LINE#         1079
  C:07B9H         LINE#         1081
  C:07C4H         LINE#         1084
  C:07CFH         LINE#         1085
  C:07CFH         LINE#         1086
  C:07D7H         LINE#         1090
  C:07DDH         LINE#         1093
  C:07DFH         LINE#         1102
  C:07E7H         LINE#         1103
  C:07EFH         LINE#         1106
  C:07EFH         LINE#         1107
  C:07FAH         LINE#         1108
  C:07FAH         LINE#         1109
  C:080EH         LINE#         1110
  C:080EH         LINE#         1111
  C:0814H         LINE#         1112
  C:081CH         LINE#         1113
  C:081EH         LINE#         1115
  C:081EH         LINE#         1117
  C:0829H         LINE#         1119
  C:0832H         LINE#         1120
  C:0832H         LINE#         1123
  C:083DH         LINE#         1124
  C:0848H         LINE#         1126
  C:0848H         LINE#         1128
  C:084EH         LINE#         1130
BL51 BANKED LINKER/LOCATER V6.22.2.0                                                  04/12/2021  16:41:58  PAGE 84


  C:084EH         LINE#         1132
  C:0851H         LINE#         1133
  C:0851H         LINE#         1134
  C:085CH         LINE#         1135
  C:0861H         LINE#         1136
  C:0864H         LINE#         1137
  C:0864H         LINE#         1141
  C:086FH         LINE#         1153
  C:0882H         LINE#         1154
  C:0882H         LINE#         1155
  C:0887H         LINE#         1156
  C:088BH         LINE#         1157
  C:088FH         LINE#         1158
  C:0895H         LINE#         1159
  C:0896H         LINE#         1160
  C:0899H         LINE#         1161
  C:08B2H         LINE#         1162
  C:08B2H         LINE#         1163
  C:08B7H         LINE#         1164
  C:08BBH         LINE#         1165
  C:08BFH         LINE#         1166
  C:08C3H         LINE#         1167
  C:08C9H         LINE#         1168
  C:08CCH         LINE#         1169
  C:08DEH         LINE#         1170
  C:08DEH         LINE#         1171
  C:08E4H         LINE#         1172
  C:08E9H         LINE#         1173
  C:08EDH         LINE#         1174
  C:08F1H         LINE#         1175
  C:08F1H         LINE#         1176
  C:08F3H         LINE#         1177
  C:0905H         LINE#         1178
  C:0905H         LINE#         1179
  C:090AH         LINE#         1180
  C:090EH         LINE#         1181
  C:0914H         LINE#         1182
  C:0919H         LINE#         1183
  C:0919H         LINE#         1185
  C:091BH         LINE#         1186
  C:092DH         LINE#         1187
  C:092DH         LINE#         1188
  C:0932H         LINE#         1189
  C:0938H         LINE#         1190
  C:093DH         LINE#         1191
  C:0941H         LINE#         1192
  C:0941H         LINE#         1193
  C:0943H         LINE#         1195
  C:0943H         LINE#         1198
  C:094AH         LINE#         1199
  C:094FH         LINE#         1201
  C:0955H         LINE#         1202
  C:095AH         LINE#         1203
  C:095EH         LINE#         1204
  C:0962H         LINE#         1205
  C:0966H         LINE#         1206
  C:096AH         LINE#         1207
BL51 BANKED LINKER/LOCATER V6.22.2.0                                                  04/12/2021  16:41:58  PAGE 85


  C:096AH         LINE#         1209
  C:09C0H         LINE#         1211
  C:09C6H         LINE#         1214
  C:09CEH         LINE#         1215
  C:09CEH         LINE#         1216
  C:09D4H         LINE#         1217
  C:09D9H         LINE#         1218
  C:09E0H         LINE#         1219
  C:09E3H         LINE#         1220
  C:09EAH         LINE#         1221
  C:09EAH         LINE#         1223
  C:09F2H         LINE#         1224
  C:09F2H         LINE#         1225
  C:09F8H         LINE#         1226
  C:09FDH         LINE#         1227
  C:0A04H         LINE#         1228
  C:0A07H         LINE#         1229
  C:0A0EH         LINE#         1230
  C:0A0EH         LINE#         1232
  C:0A16H         LINE#         1233
  C:0A16H         LINE#         1234
  C:0A1AH         LINE#         1235
  C:0A1FH         LINE#         1236
  C:0A26H         LINE#         1237
  C:0A29H         LINE#         1238
  C:0A30H         LINE#         1239
  C:0A30H         LINE#         1241
  C:0A38H         LINE#         1242
  C:0A38H         LINE#         1243
  C:0A3EH         LINE#         1244
  C:0A43H         LINE#         1245
  C:0A4AH         LINE#         1246
  C:0A4DH         LINE#         1247
  C:0A54H         LINE#         1248
  C:0A54H         LINE#         1250
  C:0A5CH         LINE#         1251
  C:0A5CH         LINE#         1252
  C:0A62H         LINE#         1253
  C:0A67H         LINE#         1254
  C:0A6EH         LINE#         1255
  C:0A71H         LINE#         1256
  C:0A78H         LINE#         1257
  C:0A78H         LINE#         1267
  C:0A87H         LINE#         1270
  C:0AA0H         LINE#         1271
  C:0AA0H         LINE#         1272
  C:0AA6H         LINE#         1273
  C:0AABH         LINE#         1274
  C:0AADH         LINE#         1276
  C:0AADH         LINE#         1277
  C:0AB2H         LINE#         1278
  C:0AB8H         LINE#         1280
  C:0AB8H         LINE#         1282
  C:0AC0H         LINE#         1283
  C:0AC0H         LINE#         1284
  C:0AC1H         LINE#         1285
  C:0AD6H         LINE#         1286
BL51 BANKED LINKER/LOCATER V6.22.2.0                                                  04/12/2021  16:41:58  PAGE 86


  C:0ADDH         LINE#         1290
  C:0ADFH         LINE#         1291
  C:0AE7H         LINE#         1292
  C:0AE7H         LINE#         1293
  C:0AE8H         LINE#         1294
  C:0AEFH         LINE#         1295
  C:0AEFH         LINE#         1327
  C:0AF7H         LINE#         1328
  C:0AFDH         LINE#         1330
  C:0B01H         LINE#         1331
  C:0B04H         LINE#         1333
  C:0B04H         LINE#         1336
  C:0B10H         LINE#         1337
  C:0B10H         LINE#         1339
  C:0B1BH         LINE#         1341
  C:0B22H         LINE#         1342
  C:0B25H         LINE#         1343
  C:0B2BH         LINE#         1344
  C:0B2BH         LINE#         1345
  C:0B2EH         LINE#         1347
  C:0B2EH         LINE#         1350
  C:0B39H         LINE#         1351
  C:0B3EH         LINE#         1352
  C:0B44H         LINE#         1354
  C:0B4DH         LINE#         1356
  C:0B52H         LINE#         1357
  C:0B58H         LINE#         1359
  C:0B61H         LINE#         1363
  C:0B6CH         LINE#         1364
  C:0B6CH         LINE#         1365
  C:0B79H         LINE#         1366
  C:0B79H         LINE#         1367
  C:0B7DH         LINE#         1369
  C:0B7FH         LINE#         1374
  C:0B87H         LINE#         1375
  C:0B90H         LINE#         1376
  C:0B92H         LINE#         1378
  C:0B9AH         LINE#         1379
  C:0BA3H         LINE#         1380
  C:0BA5H         LINE#         1382
  C:0BA5H         LINE#         1384
  C:0BB0H         LINE#         1385
  C:0BB0H         LINE#         1386
  C:0BB2H         LINE#         1387
  C:0BB5H         LINE#         1389
  C:0BB5H         LINE#         1391
  C:0BBFH         LINE#         1392
  C:0BBFH         LINE#         1394
  C:0BE2H         LINE#         1395
  C:0BE2H         LINE#         1396
  C:0BEDH         LINE#         1397
  C:0BF1H         LINE#         1399
  C:0BF3H         LINE#         1400
  C:0BF6H         LINE#         1401
  C:0C00H         LINE#         1402
  C:0C03H         LINE#         1406
  C:0C0DH         LINE#         1407
BL51 BANKED LINKER/LOCATER V6.22.2.0                                                  04/12/2021  16:41:58  PAGE 87


  C:0C0DH         LINE#         1409
  C:0C30H         LINE#         1410
  C:0C30H         LINE#         1411
  C:0C3BH         LINE#         1412
  C:0C3FH         LINE#         1414
  C:0C41H         LINE#         1415
  C:0C43H         LINE#         1416
  C:0C4DH         LINE#         1417
  C:0C4FH         LINE#         1419
  C:0C4FH         LINE#         1420
  C:0C51H         LINE#         1421
  C:0C5BH         LINE#         1422
  C:0C5BH         LINE#         1424
  C:0C7EH         LINE#         1425
  C:0C7EH         LINE#         1426
  C:0C89H         LINE#         1427
  C:0C8DH         LINE#         1429
  C:0C8FH         LINE#         1430
  C:0C91H         LINE#         1431
  C:0C9BH         LINE#         1432
  C:0CA2H         LINE#         1434
  C:0CABH         LINE#         1435
  C:0CABH         LINE#         1438
  C:0CABH         LINE#         1440
  C:0CB1H         LINE#         1443
  C:0CB3H         LINE#         1445
  C:0CB3H         LINE#         1446
  C:0CBAH         LINE#         1447
  C:0CBCH         LINE#         1448
  C:0CBFH         LINE#         1449
  C:0CC4H         LINE#         1450
  C:0CD4H         LINE#         1451
  C:0CD9H         LINE#         1452
  C:0CE2H         LINE#         1453
  C:0CEBH         LINE#         1454
  C:0CEBH         LINE#         1456
  C:0CEDH         LINE#         1458
  C:0CEEH         LINE#         1459
  C:0CEEH         LINE#         1461
  C:0CF6H         LINE#         1462
  C:0CFEH         LINE#         1465
  C:0D16H         LINE#         1468
  C:0D2EH         LINE#         1471
  C:0D46H         LINE#         1472
  C:0D46H         LINE#         1473
  C:0D4BH         LINE#         1474
  C:0D54H         LINE#         1475
  C:0D54H         LINE#         1477
  C:0D6CH         LINE#         1478
  C:0D6CH         LINE#         1479
  C:0D71H         LINE#         1480
  C:0D7AH         LINE#         1481
  C:0D7AH         LINE#         1484
  C:0D81H         LINE#         1485
  C:0D81H         LINE#         1486
  C:0D8FH         LINE#         1487
  C:0D8FH         LINE#         1489
BL51 BANKED LINKER/LOCATER V6.22.2.0                                                  04/12/2021  16:41:58  PAGE 88


  C:0D9AH         LINE#         1491
  C:0DA1H         LINE#         1492
  C:0DA4H         LINE#         1493
  C:0DA4H         LINE#         1495
  C:0DA4H         LINE#         1497
  C:0DCAH         LINE#         1498
  C:0DCAH         LINE#         1500
  C:0DCAH         LINE#         1502
  C:0DD6H         LINE#         1503
  C:0DD6H         LINE#         1505
  C:0DE1H         LINE#         1507
  C:0DE8H         LINE#         1508
  C:0DE8H         LINE#         1510
  C:0DF3H         LINE#         1511
  C:0DF3H         LINE#         1513
  C:0DFEH         LINE#         1515
  C:0E05H         LINE#         1516
  C:0E0EH         LINE#         1517
  C:0E18H         LINE#         1518
  C:0E20H         LINE#         1519
  C:0E20H         LINE#         1520
  C:0E27H         LINE#         1521
  C:0E2AH         LINE#         1522
  C:0E2AH         LINE#         1523
  C:0E2AH         LINE#         1524
  C:0E4AH         LINE#         1525
  C:0E4AH         LINE#         1526
  C:0E4FH         LINE#         1528
  C:0E59H         LINE#         1529
  C:0E61H         LINE#         1532
  C:0E6CH         LINE#         1534
  C:0E6FH         LINE#         1535
  C:0E71H         LINE#         1536
  C:0E8DH         LINE#         1537
  C:0E8DH         LINE#         1538
  C:0E8FH         LINE#         1539
  C:0E96H         LINE#         1541
  C:0EA2H         LINE#         1542
  C:0EA6H         LINE#         1543
  C:0EA6H         LINE#         1545
  C:0EB1H         LINE#         1546
  C:0EB1H         LINE#         1547
  C:0EB9H         LINE#         1549
  C:0EC4H         LINE#         1551
  C:0EC4H         LINE#         1553
  C:0ECBH         LINE#         1554
  C:0ED0H         LINE#         1555
  C:0ED2H         LINE#         1557
  C:0ED2H         LINE#         1558
  C:0ED9H         LINE#         1560
  C:0EE4H         LINE#         1561
  C:0EE4H         LINE#         1562
  C:0EECH         LINE#         1564
  C:0EF7H         LINE#         1566
  C:0EF7H         LINE#         1567
  C:0EF9H         LINE#         1568
  C:0EF9H         LINE#         1569
BL51 BANKED LINKER/LOCATER V6.22.2.0                                                  04/12/2021  16:41:58  PAGE 89


  C:0EF9H         LINE#         1570
  C:0EF9H         LINE#         1571
  C:0EF9H         LINE#         1572
  C:0EF9H         LINE#         1574
  C:0F00H         LINE#         1585
  C:0F07H         LINE#         1586
  C:0F07H         LINE#         1591
  C:0F07H         LINE#         1651
  C:0F0DH         LINE#         1652
  C:0F10H         LINE#         1653
  C:0F10H         LINE#         1655
  C:0F1BH         LINE#         1656
  C:0F20H         LINE#         1657
  C:0F28H         LINE#         1659
  C:0F31H         LINE#         1661
  C:0F36H         LINE#         1662
  C:0F3EH         LINE#         1664
  C:0F47H         LINE#         1667
  C:0F4FH         LINE#         1668
  C:0F4FH         LINE#         1670
  C:0F5DH         LINE#         1671
  C:0F5DH         LINE#         1672
  C:0F65H         LINE#         1673
  C:0F65H         LINE#         1675
  C:0F6EH         LINE#         1676
  C:0F74H         LINE#         1677
  C:0F76H         LINE#         1679
  C:0F76H         LINE#         1680
  C:0F79H         LINE#         1681
  C:0F79H         LINE#         1685
  C:0F7BH         LINE#         1686
  C:0F7BH         LINE#         1691
  C:0F80H         LINE#         1694
  C:0F89H         LINE#         1695
  C:0F89H         LINE#         1697
  C:0F8BH         LINE#         1699
  C:0F8CH         LINE#         1701
  C:0F8CH         LINE#         1702
  C:0F99H         LINE#         1703
  C:0F9BH         LINE#         1704
  C:0F9DH         LINE#         1706
  C:0F9DH         LINE#         1707
  C:0FA7H         LINE#         1708
  C:0FA9H         LINE#         1709
  C:0FABH         LINE#         1710
  C:0FABH         LINE#         1711
  C:0FB5H         LINE#         1712
  C:0FB7H         LINE#         1713
  C:0FB9H         LINE#         1715
  C:0FB9H         LINE#         1716
  C:0FC3H         LINE#         1717
  C:0FC5H         LINE#         1718
  C:0FC7H         LINE#         1721
  C:0FC7H         LINE#         1722
  C:0FD1H         LINE#         1723
  C:0FD6H         LINE#         1724
  C:0FD6H         LINE#         1727
BL51 BANKED LINKER/LOCATER V6.22.2.0                                                  04/12/2021  16:41:58  PAGE 90


  C:0FD6H         LINE#         1729
  C:0FDDH         LINE#         1731
  C:0FE2H         LINE#         1732
  C:0FE2H         LINE#         1733
  C:0FE3H         LINE#         1734
  C:0FE9H         LINE#         1735
  C:0FE9H         LINE#         1737
  C:0FF1H         LINE#         1738
  C:0FF1H         LINE#         1739
  C:0FF2H         LINE#         1740
  C:0FF8H         LINE#         1741
  C:0FF8H         LINE#         1743
  C:1000H         LINE#         1744
  C:1000H         LINE#         1745
  C:1001H         LINE#         1746
  C:1007H         LINE#         1747
  C:1007H         LINE#         1749
  C:100AH         LINE#         1751
  C:1013H         LINE#         1752
  C:1013H         LINE#         1754
  C:1013H         LINE#         1756
  C:1019H         LINE#         1758
  C:1019H         LINE#         1760
  C:1019H         LINE#         1761
  C:1019H         LINE#         1762
  C:1019H         LINE#         1763
  -------         ENDPROC       _SYSTIMEREVENTPROC
  -------         ENDMOD        SYSTIMER

  -------         MODULE        ?C?FPADD
  C:1A31H         PUBLIC        ?C?FPADD
  C:1A2DH         PUBLIC        ?C?FPSUB
  -------         ENDMOD        ?C?FPADD

  -------         MODULE        ?C?FPMUL
  C:1B22H         PUBLIC        ?C?FPMUL
  -------         ENDMOD        ?C?FPMUL

  -------         MODULE        ?C?FPDIV
  C:1C2BH         PUBLIC        ?C?FPDIV
  -------         ENDMOD        ?C?FPDIV

  -------         MODULE        ?C?FCAST
  C:1CD2H         PUBLIC        ?C?FCASTC
  C:1CCDH         PUBLIC        ?C?FCASTI
  C:1CC8H         PUBLIC        ?C?FCASTL
  -------         ENDMOD        ?C?FCAST

  -------         MODULE        ?C?CASTF
  C:1D06H         PUBLIC        ?C?CASTF
  -------         ENDMOD        ?C?CASTF

  -------         MODULE        ?C?COPY
  C:1E57H         PUBLIC        ?C?COPY
  -------         ENDMOD        ?C?COPY

  -------         MODULE        ?C?CLDPTR
BL51 BANKED LINKER/LOCATER V6.22.2.0                                                  04/12/2021  16:41:58  PAGE 91


  C:1E7DH         PUBLIC        ?C?CLDPTR
  -------         ENDMOD        ?C?CLDPTR

  -------         MODULE        ?C?CLDOPTR
  C:1E96H         PUBLIC        ?C?CLDOPTR
  -------         ENDMOD        ?C?CLDOPTR

  -------         MODULE        ?C?CILDPTR
  C:1EC3H         PUBLIC        ?C?CILDPTR
  -------         ENDMOD        ?C?CILDPTR

  -------         MODULE        ?C?CSTOPTR
  C:1EE5H         PUBLIC        ?C?CSTOPTR
  -------         ENDMOD        ?C?CSTOPTR

  -------         MODULE        ?C?IMUL
  C:1F07H         PUBLIC        ?C?IMUL
  -------         ENDMOD        ?C?IMUL

  -------         MODULE        ?C?UIDIV
  C:1F19H         PUBLIC        ?C?UIDIV
  -------         ENDMOD        ?C?UIDIV

  -------         MODULE        ?C?SIDIV
  C:1F6EH         PUBLIC        ?C?SIDIV
  -------         ENDMOD        ?C?SIDIV

  -------         MODULE        ?C?IILDX
  C:1FA4H         PUBLIC        ?C?IILDX
  -------         ENDMOD        ?C?IILDX

  -------         MODULE        ?C?ILDIX
  C:1FBAH         PUBLIC        ?C?ILDIX
  -------         ENDMOD        ?C?ILDIX

  -------         MODULE        ?C?ILDPTR
  C:1FD0H         PUBLIC        ?C?ILDPTR
  -------         ENDMOD        ?C?ILDPTR

  -------         MODULE        ?C?ILDOPTR
  C:1FFBH         PUBLIC        ?C?ILDOPTR
  -------         ENDMOD        ?C?ILDOPTR

  -------         MODULE        ?C?ISTPTR
  C:2033H         PUBLIC        ?C?ISTPTR
  -------         ENDMOD        ?C?ISTPTR

  -------         MODULE        ?C?LMUL
  C:2052H         PUBLIC        ?C?LMUL
  -------         ENDMOD        ?C?LMUL

  -------         MODULE        ?C?ULDIV
  C:20DDH         PUBLIC        ?C?ULDIV
  -------         ENDMOD        ?C?ULDIV

  -------         MODULE        ?C?LNEG
  C:216FH         PUBLIC        ?C?LNEG
BL51 BANKED LINKER/LOCATER V6.22.2.0                                                  04/12/2021  16:41:58  PAGE 92


  -------         ENDMOD        ?C?LNEG

  -------         MODULE        ?C?SLCMP
  C:217DH         PUBLIC        ?C?SLCMP
  -------         ENDMOD        ?C?SLCMP

  -------         MODULE        ?C?ULCMP
  C:2193H         PUBLIC        ?C?ULCMP
  -------         ENDMOD        ?C?ULCMP

  -------         MODULE        ?C?ULSHR
  C:21A4H         PUBLIC        ?C?ULSHR
  -------         ENDMOD        ?C?ULSHR

  -------         MODULE        ?C?SLSHR
  C:21B7H         PUBLIC        ?C?SLSHR
  -------         ENDMOD        ?C?SLSHR

  -------         MODULE        ?C?LSHL
  C:21CBH         PUBLIC        ?C?LSHL
  -------         ENDMOD        ?C?LSHL

  -------         MODULE        ?C?LLDPTR
  C:21DEH         PUBLIC        ?C?LLDPTR
  -------         ENDMOD        ?C?LLDPTR

  -------         MODULE        ?C?LSTXDATA
  C:21FEH         PUBLIC        ?C?LSTXDATA
  -------         ENDMOD        ?C?LSTXDATA

  -------         MODULE        ?C?LSTKXDATA
  C:220AH         PUBLIC        ?C?LSTKXDATA
  -------         ENDMOD        ?C?LSTKXDATA

  -------         MODULE        ?C?PLDPTR
  C:223BH         PUBLIC        ?C?PLDPTR
  -------         ENDMOD        ?C?PLDPTR

  -------         MODULE        ?C?CCASE
  C:225BH         PUBLIC        ?C?CCASE
  -------         ENDMOD        ?C?CCASE

  -------         MODULE        ABS
  C:895AH         PUBLIC        _ABS
  -------         ENDMOD        ABS

  -------         MODULE        ?C?LLDIDATA
  C:2281H         PUBLIC        ?C?LLDIDATA
  -------         ENDMOD        ?C?LLDIDATA

  -------         MODULE        ?C?LLDXDATA
  C:228DH         PUBLIC        ?C?LLDXDATA
  -------         ENDMOD        ?C?LLDXDATA

  -------         MODULE        ?C?LLDPDATA
  C:2299H         PUBLIC        ?C?LLDPDATA
  -------         ENDMOD        ?C?LLDPDATA
BL51 BANKED LINKER/LOCATER V6.22.2.0                                                  04/12/2021  16:41:58  PAGE 93



  -------         MODULE        ?C?LLDCODE
  C:22A5H         PUBLIC        ?C?LLDCODE
  -------         ENDMOD        ?C?LLDCODE

  -------         MODULE        ?C?PLDIDATA
  C:22B5H         PUBLIC        ?C?PLDIDATA
  -------         ENDMOD        ?C?PLDIDATA

  -------         MODULE        ?C?PLDXDATA
  C:22BEH         PUBLIC        ?C?PLDXDATA
  -------         ENDMOD        ?C?PLDXDATA

  -------         MODULE        ?C?PLDPDATA
  C:22C7H         PUBLIC        ?C?PLDPDATA
  -------         ENDMOD        ?C?PLDPDATA

  -------         MODULE        ?C?PLDCODE
  C:22D0H         PUBLIC        ?C?PLDCODE
  -------         ENDMOD        ?C?PLDCODE

Program Size: data=109.6 xdata=747 code=35220
LINK/LOCATE RUN COMPLETE.  0 WARNING(S),  0 ERROR(S)
