BL51 BANKED LINKER/LOCATER V6.22.2.0                                                    08/24/2021  10:37:20  PAGE 1


BL51 BANKED LINKER/LOCATER V6.22.2.0, INVOKED BY:
C:\KEIL_V5\C51\BIN\BL51.EXE .\Output\STARTUP.obj, .\Output\CPU.obj, .\Output\etc_eep.obj, .\Output\HS_DVRProtocol.obj, .
>> \Output\i2c.obj, .\Output\keyremo.obj, .\Output\main.obj, .\Output\monitor.obj, .\Output\Printf.obj, .\Output\SysPowe
>> r.obj, .\Output\SysTimer.obj TO .\Output\ml070i_MRMCU PRINT (.\Listings\ml070i_MRMCU.m51) RAMSIZE (256)


MEMORY MODEL: LARGE WITH FLOATING POINT ARITHMETIC


INPUT MODULES INCLUDED:
  .\Output\STARTUP.obj (?C_STARTUP)
  .\Output\CPU.obj (CPU)
  .\Output\etc_eep.obj (ETC_EEP)
  .\Output\HS_DVRProtocol.obj (HS_DVRPROTOCOL)
  .\Output\i2c.obj (I2C)
  .\Output\keyremo.obj (KEYREMO)
  .\Output\main.obj (MAIN)
  .\Output\monitor.obj (MONITOR)
  .\Output\Printf.obj (PRINTF)
  .\Output\SysPower.obj (SYSPOWER)
  .\Output\SysTimer.obj (SYSTIMER)
  C:\KEIL_V5\C51\LIB\C51FPL.LIB (?C?FPADD)
  C:\KEIL_V5\C51\LIB\C51FPL.LIB (?C?FPMUL)
  C:\KEIL_V5\C51\LIB\C51FPL.LIB (?C?FPDIV)
  C:\KEIL_V5\C51\LIB\C51FPL.LIB (?C?FPCMP)
  C:\KEIL_V5\C51\LIB\C51FPL.LIB (?C?FCAST)
  C:\KEIL_V5\C51\LIB\C51FPL.LIB (?C?CASTF)
  C:\KEIL_V5\C51\LIB\C51FPL.LIB (?C?FPGETOPN)
  C:\KEIL_V5\C51\LIB\C51L.LIB (?C_INIT)
  C:\KEIL_V5\C51\LIB\C51L.LIB (?C?COPY)
  C:\KEIL_V5\C51\LIB\C51L.LIB (?C?CLDPTR)
  C:\KEIL_V5\C51\LIB\C51L.LIB (?C?CLDOPTR)
  C:\KEIL_V5\C51\LIB\C51L.LIB (?C?CILDPTR)
  C:\KEIL_V5\C51\LIB\C51L.LIB (?C?CSTOPTR)
  C:\KEIL_V5\C51\LIB\C51L.LIB (?C?IMUL)
  C:\KEIL_V5\C51\LIB\C51L.LIB (?C?UIDIV)
  C:\KEIL_V5\C51\LIB\C51L.LIB (?C?SIDIV)
  C:\KEIL_V5\C51\LIB\C51L.LIB (?C?IILDX)
  C:\KEIL_V5\C51\LIB\C51L.LIB (?C?ILDIX)
  C:\KEIL_V5\C51\LIB\C51L.LIB (?C?ILDPTR)
  C:\KEIL_V5\C51\LIB\C51L.LIB (?C?ILDOPTR)
  C:\KEIL_V5\C51\LIB\C51L.LIB (?C?ISTPTR)
  C:\KEIL_V5\C51\LIB\C51L.LIB (?C?LMUL)
  C:\KEIL_V5\C51\LIB\C51L.LIB (?C?ULDIV)
  C:\KEIL_V5\C51\LIB\C51L.LIB (?C?SLDIV)
  C:\KEIL_V5\C51\LIB\C51L.LIB (?C?LNEG)
  C:\KEIL_V5\C51\LIB\C51L.LIB (?C?SLCMP)
  C:\KEIL_V5\C51\LIB\C51L.LIB (?C?ULCMP)
  C:\KEIL_V5\C51\LIB\C51L.LIB (?C?ULSHR)
  C:\KEIL_V5\C51\LIB\C51L.LIB (?C?SLSHR)
  C:\KEIL_V5\C51\LIB\C51L.LIB (?C?LSHL)
  C:\KEIL_V5\C51\LIB\C51L.LIB (?C?LLDPTR)
  C:\KEIL_V5\C51\LIB\C51L.LIB (?C?LSTXDATA)
  C:\KEIL_V5\C51\LIB\C51L.LIB (?C?LSTKXDATA)
  C:\KEIL_V5\C51\LIB\C51L.LIB (?C?PLDPTR)
  C:\KEIL_V5\C51\LIB\C51L.LIB (?C?CCASE)
  C:\KEIL_V5\C51\LIB\C51L.LIB (ABS)
  C:\KEIL_V5\C51\LIB\C51L.LIB (?C?LLDIDATA)
BL51 BANKED LINKER/LOCATER V6.22.2.0                                                  08/24/2021  10:37:20  PAGE 2


  C:\KEIL_V5\C51\LIB\C51L.LIB (?C?LLDXDATA)
  C:\KEIL_V5\C51\LIB\C51L.LIB (?C?LLDPDATA)
  C:\KEIL_V5\C51\LIB\C51L.LIB (?C?LLDCODE)
  C:\KEIL_V5\C51\LIB\C51L.LIB (?C?PLDIDATA)
  C:\KEIL_V5\C51\LIB\C51L.LIB (?C?PLDXDATA)
  C:\KEIL_V5\C51\LIB\C51L.LIB (?C?PLDPDATA)
  C:\KEIL_V5\C51\LIB\C51L.LIB (?C?PLDCODE)


LINK MAP OF MODULE:  .\Output\ml070i_MRMCU (?C_STARTUP)


            TYPE    BASE      LENGTH    RELOCATION   SEGMENT NAME
            -----------------------------------------------------

            * * * * * * *   D A T A   M E M O R Y   * * * * * * *
            REG     0000H     0008H     ABSOLUTE     "REG BANK 0"
            REG     0008H     0008H     ABSOLUTE     "REG BANK 1"
            DATA    0010H     0001H     UNIT         ?DT?MONITOR
            IDATA   0011H     0002H     UNIT         ?ID?SYSPOWER
                    0013H     000DH                  *** GAP ***
            BIT     0020H.0   0000H.6   UNIT         ?BI?CPU
            BIT     0020H.6   0000H.3   UNIT         ?BI?MONITOR
            BIT     0021H.1   0000H.2   UNIT         _BIT_GROUP_
            BIT     0021H.3   0000H.1   UNIT         ?BI?HS_DVRPROTOCOL
            BIT     0021H.4   0000H.1   UNIT         ?BI?SYSTIMER
                    0021H.5   0000H.3                *** GAP ***
            DATA    0022H     0058H     UNIT         ?DT?CPU
            IDATA   007AH     0001H     UNIT         ?STACK

            * * * * * * *  X D A T A   M E M O R Y  * * * * * * *
            XDATA   0000H     0106H     UNIT         ?XD?HS_DVRPROTOCOL
            XDATA   0106H     009DH     UNIT         ?XD?MAIN
            XDATA   01A3H     005DH     UNIT         ?XD?SYSTIMER
            XDATA   0200H     0052H     UNIT         _XDATA_GROUP_
            XDATA   0252H     0038H     UNIT         ?XD?MONITOR
            XDATA   028AH     0024H     UNIT         ?XD?CPU
            XDATA   02AEH     0018H     UNIT         ?XD?PRINTF

            * * * * * * *   C O D E   M E M O R Y   * * * * * * *
            CODE    0000H     0003H     ABSOLUTE     
            CODE    0003H     0003H     ABSOLUTE     
            CODE    0006H     0004H     UNIT         ?PR?ISP_INIT?MAIN
                    000AH     0001H                  *** GAP ***
            CODE    000BH     0003H     ABSOLUTE     
            CODE    000EH     0003H     UNIT         ?PR?EXT1_INT?CPU
                    0011H     0002H                  *** GAP ***
            CODE    0013H     0003H     ABSOLUTE     
            CODE    0016H     000DH     UNIT         ?PR?I2CSTOP?I2C
            CODE    0023H     0003H     ABSOLUTE     
                    0026H     0005H                  *** GAP ***
            CODE    002BH     0003H     ABSOLUTE     
                    002EH     0005H                  *** GAP ***
            CODE    0033H     0003H     ABSOLUTE     
                    0036H     0005H                  *** GAP ***
            CODE    003BH     0003H     ABSOLUTE     
            CODE    003EH     0022H     UNIT         ?PR?MCUTIMERINITIALTIMEREVENT?SYSTIMER
BL51 BANKED LINKER/LOCATER V6.22.2.0                                                  08/24/2021  10:37:20  PAGE 3


                    0060H     0003H                  *** GAP ***
            CODE    0063H     0003H     ABSOLUTE     
            CODE    0066H     0F84H     UNIT         ?PR?_SYSTIMEREVENTPROC?SYSTIMER
            CODE    0FEAH     092BH     UNIT         ?C?LIB_CODE
            CODE    1915H     07FFH     UNIT         ?PR?LOADEEPROM?MAIN
            CODE    2114H     07C9H     UNIT         ?PR?DVRRECEIVEPASER?HS_DVRPROTOCOL
            CODE    28DDH     0556H     UNIT         ?PR?_DOPRINT?PRINTF
            CODE    2E33H     0543H     UNIT         ?PR?TIMER0_INT?CPU
            CODE    3376H     0461H     UNIT         ?PR?ENCORDERHANDLER_TELI?MAIN
            CODE    37D7H     044CH     UNIT         ?PR?ENCORDERHANDLER?MAIN
            CODE    3C23H     043DH     UNIT         ?CO?CPU
            CODE    4060H     0423H     UNIT         ?PR?_MCU_SENDCMDTODVR?MAIN
            CODE    4483H     041BH     UNIT         ?PR?SHOWWORKINGTIMER?CPU
            CODE    489EH     0325H     UNIT         ?PR?SAVEROTATENUMBER?MAIN
            CODE    4BC3H     030CH     UNIT         ?PR?_USERINTERFACEBATTERYCHARGEMODE?SYSPOWER
            CODE    4ECFH     023EH     UNIT         ?C_INITSEG
            CODE    510DH     0176H     UNIT         ?PR?_MAPPING1?MAIN
            CODE    5283H     015FH     UNIT         ?PR?_GETROTATENUMBER?MAIN
            CODE    53E2H     015BH     UNIT         ?PR?_USERINTERFACETIMEREVENTPROC?SYSTIMER
            CODE    553DH     012EH     UNIT         ?PR?_MCUTIMERCHECKTIMEREVENT?SYSTIMER
            CODE    566BH     011FH     UNIT         ?PR?CLEARBASICEE?ETC_EEP
            CODE    578AH     0112H     UNIT         ?PR?WAITPOWERON?MAIN
            CODE    589CH     00FFH     UNIT         ?PR?MAIN_INIT?CPU
            CODE    599BH     00E5H     UNIT         ?PR?_MCUTIMERACTIVETIMEREVENT?SYSTIMER
            CODE    5A80H     00DEH     UNIT         ?PR?_MCUTIMERREACTIVETIMEREVENT?SYSTIMER
            CODE    5B5EH     00D9H     UNIT         ?PR?_USERINTERFACEPOWERSWITCH?SYSPOWER
            CODE    5C37H     00ADH     UNIT         ?PR?_MCULIB_PROTOCOLAPPEND?MAIN
            CODE    5CE4H     00A5H     UNIT         ?PR?_SET_PWM?CPU
            CODE    5D89H     009CH     UNIT         ?PR?EXT0_INT?CPU
            CODE    5E25H     0090H     UNIT         ?PR?_MCULIB_PROTOCOLSENDCMDWITHPARAMNUM?MAIN
            CODE    5EB5H     008CH     UNIT         ?C_C51STARTUP
            CODE    5F41H     0085H     UNIT         ?PR?SYSTIMERHANDLER?SYSTIMER
            CODE    5FC6H     0084H     UNIT         ?PR?SYSPOWERHANDLER?SYSPOWER
            CODE    604AH     0082H     UNIT         ?PR?MAIN?MAIN
            CODE    60CCH     007EH     UNIT         ?PR?_AD5110_I2CWRITEDATA?I2C
            CODE    614AH     007BH     UNIT         ?PR?_I2CWRITEDATA?I2C
            CODE    61C5H     0079H     UNIT         ?PR?_POWERLED?CPU
            CODE    623EH     0077H     UNIT         ?CO?MAIN
            CODE    62B5H     005CH     UNIT         ?PR?INITIALTIMEREVENT?MAIN
            CODE    6311H     0052H     UNIT         ?PR?INITCPU?CPU
            CODE    6363H     0051H     UNIT         ?PR?SCANKEY?KEYREMO
            CODE    63B4H     004EH     UNIT         ?CO?PRINTF
            CODE    6402H     004AH     UNIT         ?PR?GETFWREVEE?ETC_EEP
            CODE    644CH     004AH     UNIT         ?PR?MCUTIMERGETTIMERCOUNTER?SYSTIMER
            CODE    6496H     0047H     UNIT         ?PR?GETPROJECTNAMEEE?ETC_EEP
            CODE    64DDH     0047H     UNIT         ?PR?_WRITEEEP?I2C
            CODE    6524H     0046H     UNIT         ?PR?_GRAPHICSPRINT?PRINTF
            CODE    656AH     0044H     UNIT         ?C?LDIV
            CODE    65AEH     0042H     UNIT         ?PR?MAIN_LOOP?MAIN
            CODE    65F0H     0041H     UNIT         ?PR?_MCUTIMERCANCELTIMEREVENT?SYSTIMER
            CODE    6631H     003EH     UNIT         ?PR?_SETAD5110STEP?MAIN
            CODE    666FH     003EH     UNIT         ?PR?_PRINTF?PRINTF
            CODE    66ADH     003EH     UNIT         ?PR?_DEBUG_MESSAGE?PRINTF
            CODE    66EBH     003BH     UNIT         ?PR?SERIAL2_INT?CPU
            CODE    6726H     0039H     UNIT         ?PR?_READI2C?I2C
            CODE    675FH     0033H     UNIT         ?PR?I2CREADDATA?I2C
            CODE    6792H     0033H     UNIT         ?PR?_ISP_WRITE?MAIN
BL51 BANKED LINKER/LOCATER V6.22.2.0                                                  08/24/2021  10:37:20  PAGE 4


            CODE    67C5H     002FH     UNIT         ?PR?SET_MCU_POWER_DOWN_MODE?CPU
            CODE    67F4H     002FH     UNIT         ?PR?SERIAL_INT?CPU
            CODE    6823H     002DH     UNIT         ?CO?SYSPOWER
            CODE    6850H     002CH     UNIT         ?PR?SYSPOWERINITIAL?SYSPOWER
            CODE    687CH     002CH     UNIT         ?PR?_SYSPOWERSWITCH?SYSPOWER
            CODE    68A8H     0026H     UNIT         ?PR?_READEEP?I2C
            CODE    68CEH     0021H     UNIT         ?PR?ENTER_ISP?MAIN
            CODE    68EFH     0020H     UNIT         ?PR?_WRITEAD5110?I2C
            CODE    690FH     0020H     UNIT         ?PR?_GETADCVALUE?MAIN
            CODE    692FH     001FH     UNIT         ?PR?INT2_INT?CPU
            CODE    694EH     001FH     UNIT         ?PR?INT3_INT?CPU
            CODE    696DH     001EH     UNIT         ?PR?RS2_RX?CPU
            CODE    698BH     001CH     UNIT         ?PR?CHECK_ADAP_IN?CPU
            CODE    69A7H     001BH     UNIT         ?PR?_GETKEY?KEYREMO
            CODE    69C2H     0019H     UNIT         ?PR?SAVEFWREVEE?ETC_EEP
            CODE    69DBH     0019H     UNIT         ?PR?_MCUTIMERDELAYXMS?SYSTIMER
            CODE    69F4H     0018H     UNIT         ?PR?_DELAY?CPU
            CODE    6A0CH     0016H     UNIT         ?PR?INITVARS?CPU
            CODE    6A22H     0015H     UNIT         ?PR?_MCUTIMERGETEVENTID?SYSTIMER
            CODE    6A37H     0014H     UNIT         ?PR?I2CDELAY?I2C
            CODE    6A4BH     0014H     UNIT         ?PR?_MCUTIMERGETEVENTTIME?SYSTIMER
            CODE    6A5FH     0013H     UNIT         ?PR?_MCUTIMERCLREVENTVALID?SYSTIMER
            CODE    6A72H     0012H     UNIT         ?CO?ETC_EEP
            CODE    6A84H     0012H     UNIT         ?PR?I2CSTART?I2C
            CODE    6A96H     0011H     UNIT         ?PR?_MCUTIMERCHECKEVENTVALID?SYSTIMER
            CODE    6AA7H     000FH     UNIT         ?PR?TIMER2_INT?CPU
            CODE    6AB6H     000CH     UNIT         ?PR?_ABS?ABS
            CODE    6AC2H     000BH     UNIT         ?PR?RS2_READY?CPU
            CODE    6ACDH     0008H     UNIT         ?PR?_RS2_TX?CPU
            CODE    6AD5H     0007H     UNIT         ?PR?GETBATTERYBTH?MAIN
            CODE    6ADCH     0007H     UNIT         ?PR?GETBATTERYVOLTAGE?MAIN



OVERLAY MAP OF MODULE:   .\Output\ml070i_MRMCU (?C_STARTUP)


SEGMENT                                             BIT_GROUP          XDATA_GROUP
  +--> CALLED SEGMENT                            START    LENGTH     START    LENGTH
------------------------------------------------------------------------------------
?C_C51STARTUP                                    -----    -----      -----    -----
  +--> ?PR?MAIN?MAIN
  +--> ?C_INITSEG

?PR?MAIN?MAIN                                    -----    -----      -----    -----
  +--> ?PR?INITCPU?CPU
  +--> ?PR?SYSPOWERINITIAL?SYSPOWER
  +--> ?CO?MAIN
  +--> ?PR?_PRINTF?PRINTF
  +--> ?PR?MAIN_INIT?CPU
  +--> ?PR?INITVARS?CPU
  +--> ?PR?LOADEEPROM?MAIN
  +--> ?PR?INITIALTIMEREVENT?MAIN
  +--> ?PR?_SETAD5110STEP?MAIN
  +--> ?PR?CHECK_ADAP_IN?CPU
  +--> ?PR?MAIN_LOOP?MAIN
  +--> ?PR?WAITPOWERON?MAIN
BL51 BANKED LINKER/LOCATER V6.22.2.0                                                  08/24/2021  10:37:20  PAGE 5



?PR?SYSPOWERINITIAL?SYSPOWER                     -----    -----      -----    -----
  +--> ?PR?_MCUTIMERDELAYXMS?SYSTIMER
  +--> ?CO?SYSPOWER
  +--> ?PR?_DEBUG_MESSAGE?PRINTF

?PR?_DEBUG_MESSAGE?PRINTF                        -----    -----      0200H    002EH
  +--> ?PR?_DOPRINT?PRINTF

?PR?_DOPRINT?PRINTF                              0021H.1  0000H.2    0235H    0015H
  +--> ?CO?PRINTF

?PR?_PRINTF?PRINTF                               -----    -----      0207H    002EH
  +--> ?PR?_DOPRINT?PRINTF

?PR?MAIN_INIT?CPU                                -----    -----      0200H    0004H
  +--> ?PR?GETFWREVEE?ETC_EEP
  +--> ?PR?_READEEP?I2C
  +--> ?CO?CPU
  +--> ?PR?_PRINTF?PRINTF
  +--> ?PR?SAVEFWREVEE?ETC_EEP
  +--> ?PR?GETPROJECTNAMEEE?ETC_EEP
  +--> ?PR?CLEARBASICEE?ETC_EEP
  +--> ?PR?_DELAY?CPU

?PR?GETFWREVEE?ETC_EEP                           -----    -----      -----    -----
  +--> ?PR?_READEEP?I2C

?PR?_READEEP?I2C                                 -----    -----      0234H    0001H
  +--> ?PR?_READI2C?I2C
  +--> ?PR?_DELAY?CPU

?PR?_READI2C?I2C                                 -----    -----      0235H    0003H
  +--> ?PR?I2CSTART?I2C
  +--> ?PR?_I2CWRITEDATA?I2C
  +--> ?PR?I2CREADDATA?I2C
  +--> ?PR?I2CSTOP?I2C

?PR?I2CSTART?I2C                                 -----    -----      -----    -----
  +--> ?PR?I2CDELAY?I2C

?PR?_I2CWRITEDATA?I2C                            -----    -----      -----    -----
  +--> ?PR?I2CDELAY?I2C

?PR?I2CREADDATA?I2C                              -----    -----      -----    -----
  +--> ?PR?I2CDELAY?I2C

?PR?I2CSTOP?I2C                                  -----    -----      -----    -----
  +--> ?PR?I2CDELAY?I2C

?PR?SAVEFWREVEE?ETC_EEP                          -----    -----      -----    -----
  +--> ?PR?_WRITEEEP?I2C

?PR?_WRITEEEP?I2C                                -----    -----      0208H    0004H
  +--> ?PR?I2CSTART?I2C
  +--> ?PR?_I2CWRITEDATA?I2C
  +--> ?PR?I2CSTOP?I2C
BL51 BANKED LINKER/LOCATER V6.22.2.0                                                  08/24/2021  10:37:20  PAGE 6


  +--> ?PR?_DELAY?CPU

?PR?GETPROJECTNAMEEE?ETC_EEP                     -----    -----      0204H    0001H
  +--> ?PR?_READEEP?I2C

?PR?CLEARBASICEE?ETC_EEP                         -----    -----      -----    -----
  +--> ?CO?ETC_EEP
  +--> ?PR?_PRINTF?PRINTF
  +--> ?PR?_WRITEEEP?I2C

?PR?LOADEEPROM?MAIN                              -----    -----      -----    -----
  +--> ?PR?_READEEP?I2C
  +--> ?PR?_WRITEEEP?I2C

?PR?INITIALTIMEREVENT?MAIN                       -----    -----      -----    -----
  +--> ?PR?MCUTIMERINITIALTIMEREVENT?SYSTIMER
  +--> ?PR?_MCUTIMERACTIVETIMEREVENT?SYSTIMER

?PR?_MCUTIMERACTIVETIMEREVENT?SYSTIMER           -----    -----      0228H    0004H
  +--> ?PR?_MCUTIMERCHECKTIMEREVENT?SYSTIMER

?PR?_MCUTIMERCHECKTIMEREVENT?SYSTIMER            -----    -----      022CH    0005H
  +--> ?PR?MCUTIMERGETTIMERCOUNTER?SYSTIMER

?PR?MCUTIMERGETTIMERCOUNTER?SYSTIMER             -----    -----      0231H    0002H
  +--> ?PR?_ABS?ABS

?PR?_SETAD5110STEP?MAIN                          -----    -----      0204H    0002H
  +--> ?PR?_MAPPING1?MAIN
  +--> ?PR?_WRITEAD5110?I2C

?PR?_MAPPING1?MAIN                               -----    -----      0206H    000FH

?PR?_WRITEAD5110?I2C                             -----    -----      -----    -----
  +--> ?PR?I2CSTART?I2C
  +--> ?PR?_AD5110_I2CWRITEDATA?I2C
  +--> ?PR?I2CSTOP?I2C
  +--> ?PR?_DELAY?CPU

?PR?_AD5110_I2CWRITEDATA?I2C                     -----    -----      -----    -----
  +--> ?PR?I2CDELAY?I2C

?PR?CHECK_ADAP_IN?CPU                            -----    -----      -----    -----
  +--> ?PR?_MCUTIMERDELAYXMS?SYSTIMER

?PR?MAIN_LOOP?MAIN                               -----    -----      -----    -----
  +--> ?CO?MAIN
  +--> ?PR?_PRINTF?PRINTF
  +--> ?PR?_GETROTATENUMBER?MAIN
  +--> ?PR?DVRRECEIVEPASER?HS_DVRPROTOCOL
  +--> ?PR?SYSTIMERHANDLER?SYSTIMER
  +--> ?PR?SYSPOWERHANDLER?SYSPOWER
  +--> ?PR?SCANKEY?KEYREMO
  +--> ?PR?ENCORDERHANDLER_TELI?MAIN
  +--> ?PR?ENCORDERHANDLER?MAIN

?PR?_GETROTATENUMBER?MAIN                        -----    -----      0200H    0004H
BL51 BANKED LINKER/LOCATER V6.22.2.0                                                  08/24/2021  10:37:20  PAGE 7


  +--> ?PR?_READEEP?I2C

?PR?DVRRECEIVEPASER?HS_DVRPROTOCOL               -----    -----      0200H    0001H
  +--> ?PR?RS2_READY?CPU
  +--> ?PR?RS2_RX?CPU
  +--> ?PR?_USERINTERFACEBATTERYCHARGEMODE?S...
  +--> ?PR?_MCUTIMERCANCELTIMEREVENT?SYSTIMER
  +--> ?PR?_MCUTIMERACTIVETIMEREVENT?SYSTIMER
  +--> ?PR?_READEEP?I2C
  +--> ?PR?_WRITEEEP?I2C
  +--> ?PR?_MCUTIMERREACTIVETIMEREVENT?SYSTIMER

?PR?_USERINTERFACEBATTERYCHARGEMODE?S...         -----    -----      0204H    0001H
  +--> ?PR?_MCUTIMERCANCELTIMEREVENT?SYSTIMER
  +--> ?PR?_SET_PWM?CPU
  +--> ?PR?_MCUTIMERACTIVETIMEREVENT?SYSTIMER
  +--> ?PR?_USERINTERFACEPOWERSWITCH?SYSPOWER

?PR?_SET_PWM?CPU                                 -----    -----      0205H    0002H
  +--> ?CO?CPU
  +--> ?PR?_PRINTF?PRINTF

?PR?_USERINTERFACEPOWERSWITCH?SYSPOWER           -----    -----      0205H    0001H
  +--> ?CO?SYSPOWER
  +--> ?PR?_PRINTF?PRINTF
  +--> ?PR?_MCUTIMERDELAYXMS?SYSTIMER
  +--> ?PR?_MCUTIMERACTIVETIMEREVENT?SYSTIMER
  +--> ?PR?_MCU_SENDCMDTODVR?MAIN

?PR?_MCU_SENDCMDTODVR?MAIN                       -----    -----      0228H    000CH
  +--> ?CO?MAIN
  +--> ?PR?_READEEP?I2C
  +--> ?PR?_MCULIB_PROTOCOLSENDCMDWITHPARAMN...

?PR?_MCULIB_PROTOCOLSENDCMDWITHPARAMN...         -----    -----      0234H    0017H
  +--> ?PR?_MCULIB_PROTOCOLAPPEND?MAIN
  +--> ?PR?_RS2_TX?CPU

?PR?_MCULIB_PROTOCOLAPPEND?MAIN                  -----    -----      024BH    0007H

?PR?_MCUTIMERREACTIVETIMEREVENT?SYSTIMER         -----    -----      0201H    0004H
  +--> ?PR?_MCUTIMERCHECKTIMEREVENT?SYSTIMER

?PR?SYSTIMERHANDLER?SYSTIMER                     -----    -----      0200H    0004H
  +--> ?PR?MCUTIMERGETTIMERCOUNTER?SYSTIMER
  +--> ?PR?_MCUTIMERCHECKEVENTVALID?SYSTIMER
  +--> ?PR?_MCUTIMERGETEVENTTIME?SYSTIMER
  +--> ?PR?_MCUTIMERCLREVENTVALID?SYSTIMER
  +--> ?PR?_MCUTIMERGETEVENTID?SYSTIMER
  +--> ?PR?_USERINTERFACETIMEREVENTPROC?SYST...
  +--> ?PR?_SYSTIMEREVENTPROC?SYSTIMER

?PR?_USERINTERFACETIMEREVENTPROC?SYST...         -----    -----      -----    -----
  +--> ?PR?_SETAD5110STEP?MAIN
  +--> ?PR?_WRITEEEP?I2C
  +--> ?PR?_MCU_SENDCMDTODVR?MAIN
  +--> ?PR?_USERINTERFACEBATTERYCHARGEMODE?S...
BL51 BANKED LINKER/LOCATER V6.22.2.0                                                  08/24/2021  10:37:20  PAGE 8


  +--> ?PR?_MCUTIMERACTIVETIMEREVENT?SYSTIMER
  +--> ?PR?ENTER_ISP?MAIN
  +--> ?PR?_USERINTERFACEPOWERSWITCH?SYSPOWER

?PR?ENTER_ISP?MAIN                               -----    -----      0204H    0001H
  +--> ?PR?ISP_INIT?MAIN
  +--> ?PR?_ISP_WRITE?MAIN

?PR?_ISP_WRITE?MAIN                              -----    -----      0205H    0006H

?PR?_SYSTIMEREVENTPROC?SYSTIMER                  -----    -----      -----    -----
  +--> ?PR?_POWERLED?CPU
  +--> ?PR?_MCUTIMERDELAYXMS?SYSTIMER
  +--> ?PR?CHECK_ADAP_IN?CPU
  +--> ?PR?_MCUTIMERCHECKEVENTVALID?SYSTIMER
  +--> ?PR?_MCUTIMERCANCELTIMEREVENT?SYSTIMER
  +--> ?PR?_MCUTIMERACTIVETIMEREVENT?SYSTIMER
  +--> ?PR?_MCU_SENDCMDTODVR?MAIN
  +--> ?PR?GETBATTERYVOLTAGE?MAIN
  +--> ?PR?GETBATTERYBTH?MAIN
  +--> ?PR?_SET_PWM?CPU
  +--> ?PR?_READEEP?I2C
  +--> ?PR?_WRITEEEP?I2C
  +--> ?PR?_USERINTERFACEBATTERYCHARGEMODE?S...
  +--> ?PR?SHOWWORKINGTIMER?CPU

?PR?GETBATTERYVOLTAGE?MAIN                       -----    -----      -----    -----
  +--> ?PR?_GETADCVALUE?MAIN

?PR?GETBATTERYBTH?MAIN                           -----    -----      -----    -----
  +--> ?PR?_GETADCVALUE?MAIN

?PR?SHOWWORKINGTIMER?CPU                         -----    -----      0204H    0002H
  +--> ?CO?CPU
  +--> ?PR?_GRAPHICSPRINT?PRINTF

?PR?_GRAPHICSPRINT?PRINTF                        -----    -----      0206H    002FH
  +--> ?PR?_DOPRINT?PRINTF

?PR?SYSPOWERHANDLER?SYSPOWER                     -----    -----      -----    -----
  +--> ?PR?_SYSPOWERSWITCH?SYSPOWER

?PR?_SYSPOWERSWITCH?SYSPOWER                     -----    -----      0200H    0001H
  +--> ?PR?_USERINTERFACEPOWERSWITCH?SYSPOWER

?PR?SCANKEY?KEYREMO                              -----    -----      -----    -----
  +--> ?PR?_GETKEY?KEYREMO
  +--> ?PR?_WRITEEEP?I2C
  +--> ?PR?_MCUTIMERACTIVETIMEREVENT?SYSTIMER

?PR?_GETKEY?KEYREMO                              0021H.1  0000H.1    -----    -----

?PR?ENCORDERHANDLER_TELI?MAIN                    -----    -----      0200H    0028H
  +--> ?PR?_MCU_SENDCMDTODVR?MAIN
  +--> ?PR?_MCUTIMERCANCELTIMEREVENT?SYSTIMER
  +--> ?PR?_MCUTIMERACTIVETIMEREVENT?SYSTIMER

BL51 BANKED LINKER/LOCATER V6.22.2.0                                                  08/24/2021  10:37:20  PAGE 9


?PR?ENCORDERHANDLER?MAIN                         -----    -----      0200H    0020H
  +--> ?PR?_MCU_SENDCMDTODVR?MAIN
  +--> ?PR?_MCUTIMERCANCELTIMEREVENT?SYSTIMER
  +--> ?PR?_MCUTIMERACTIVETIMEREVENT?SYSTIMER

?PR?WAITPOWERON?MAIN                             -----    -----      -----    -----
  +--> ?CO?MAIN
  +--> ?PR?_PRINTF?PRINTF
  +--> ?PR?_MCUTIMERCANCELTIMEREVENT?SYSTIMER
  +--> ?PR?SAVEROTATENUMBER?MAIN
  +--> ?PR?SYSPOWERHANDLER?SYSPOWER
  +--> ?PR?SYSTIMERHANDLER?SYSTIMER
  +--> ?PR?SCANKEY?KEYREMO
  +--> ?PR?_MCUTIMERACTIVETIMEREVENT?SYSTIMER
  +--> ?PR?CHECK_ADAP_IN?CPU
  +--> ?PR?SET_MCU_POWER_DOWN_MODE?CPU
  +--> ?PR?_WRITEEEP?I2C

?PR?SAVEROTATENUMBER?MAIN                        -----    -----      0200H    0008H
  +--> ?PR?_READEEP?I2C
  +--> ?PR?_WRITEEEP?I2C

?PR?SET_MCU_POWER_DOWN_MODE?CPU                  -----    -----      -----    -----
  +--> ?CO?CPU
  +--> ?PR?_PRINTF?PRINTF

?C_INITSEG                                       -----    -----      -----    -----
  +--> ?CO?PRINTF



SYMBOL TABLE OF MODULE:  .\Output\ml070i_MRMCU (?C_STARTUP)

  VALUE           TYPE          NAME
  ----------------------------------

  -------         MODULE        ?C_STARTUP
  C:5EB5H         SEGMENT       ?C_C51STARTUP
  I:007AH         SEGMENT       ?STACK
  C:0000H         PUBLIC        ?C_STARTUP
  D:00E0H         SYMBOL        ACC
  D:00F0H         SYMBOL        B
  D:0083H         SYMBOL        DPH
  D:0082H         SYMBOL        DPL
  N:0000H         SYMBOL        IBPSTACK
  N:0100H         SYMBOL        IBPSTACKTOP
  N:0080H         SYMBOL        IDATALEN
  C:5EB8H         SYMBOL        IDATALOOP
  N:0000H         SYMBOL        PBPSTACK
  N:0100H         SYMBOL        PBPSTACKTOP
  N:0000H         SYMBOL        PDATALEN
  N:0000H         SYMBOL        PDATASTART
  N:0000H         SYMBOL        PPAGE
  N:0000H         SYMBOL        PPAGEENABLE
  D:00A0H         SYMBOL        PPAGE_SFR
  D:0081H         SYMBOL        SP
  C:5EB5H         SYMBOL        STARTUP1
BL51 BANKED LINKER/LOCATER V6.22.2.0                                                  08/24/2021  10:37:20  PAGE 10


  N:0000H         SYMBOL        XBPSTACK
  N:0000H         SYMBOL        XBPSTACKTOP
  N:0000H         SYMBOL        XDATALEN
  N:0000H         SYMBOL        XDATASTART
  C:0000H         LINE#         126
  C:5EB5H         LINE#         133
  C:5EB7H         LINE#         134
  C:5EB8H         LINE#         135
  C:5EB9H         LINE#         136
  C:5EBBH         LINE#         185
  C:5EBEH         LINE#         196
  -------         ENDMOD        ?C_STARTUP

  -------         MODULE        CPU
  C:0000H         SYMBOL        _ICE_DUMMY_
  D:0091H         PUBLIC        P1M0
  X:028AH         PUBLIC        second
  C:6311H         PUBLIC        InitCPU
  D:00B1H         PUBLIC        P3M0
  D:0096H         PUBLIC        P2M1
  C:2E33H         PUBLIC        timer0_int
  X:028BH         PUBLIC        FormatSDCard
  D:00B3H         PUBLIC        P4M0
  D:00B2H         PUBLIC        P3M1
  D:00B4H         PUBLIC        P4M1
  D:00B0H         PUBLIC        P3
  C:6AA7H         PUBLIC        timer2_int
  D:00E8H         PUBLIC        P4
  X:028CH         PUBLIC        FormatWait
  X:028DH         PUBLIC        Power_Msg_Count
  X:028FH         PUBLIC        IE_Temp
  D:00F9H         PUBLIC        CH
  D:0022H         PUBLIC        DVR_buf
  D:0040H         PUBLIC        keytic
  D:00A8H         PUBLIC        IE
  C:4483H         PUBLIC        ShowWorkingTimer
  D:00E9H         PUBLIC        CL
  D:0042H         PUBLIC        RS2_in
  B:0020H.0       PUBLIC        RepeatKey
  X:0290H         PUBLIC        LED_FLASH_COUNT
  D:0043H         PUBLIC        RS2_out
  C:69F4H         PUBLIC        _delay
  D:00FCH         PUBLIC        CCAP2H
  B:00E8H.0       PUBLIC        P4_0
  D:00FDH         PUBLIC        CCAP3H
  B:00E8H.1       PUBLIC        P4_1
  B:0090H.4       PUBLIC        P1_4
  B:0080H.5       PUBLIC        P0_5
  X:0292H         PUBLIC        minute
  B:00E8H.2       PUBLIC        P4_2
  D:00ECH         PUBLIC        CCAP2L
  B:00A8H.4       PUBLIC        ES
  D:00EDH         PUBLIC        CCAP3L
  D:00DCH         PUBLIC        CCAPM2
  D:00DDH         PUBLIC        CCAPM3
  D:00B8H         PUBLIC        IP
  B:0098H.0       PUBLIC        RI
BL51 BANKED LINKER/LOCATER V6.22.2.0                                                  08/24/2021  10:37:20  PAGE 11


  B:0098H.1       PUBLIC        TI
  D:0044H         PUBLIC        tic01
  B:0020H.1       PUBLIC        KeyReady
  C:696DH         PUBLIC        RS2_rx
  B:0020H.2       PUBLIC        RS_Xbusy
  D:0045H         PUBLIC        tic02
  D:00D9H         PUBLIC        CMOD
  D:00D8H         PUBLIC        CCON
  C:6ACDH         PUBLIC        _RS2_tx
  X:0293H         PUBLIC        Time5ms
  X:0294H         PUBLIC        month
  X:0295H         PUBLIC        keyticSec
  D:0046H         PUBLIC        Key
  C:692FH         PUBLIC        int2_int
  C:694EH         PUBLIC        int3_int
  X:0296H         PUBLIC        bytEncorderCountTemp
  C:5D89H         PUBLIC        ext0_int
  C:67F4H         PUBLIC        serial_int
  C:000EH         PUBLIC        ext1_int
  X:0298H         PUBLIC        EncorderCountINT
  D:0099H         PUBLIC        SBUF
  D:0087H         PUBLIC        PCON
  X:029CH         PUBLIC        bytPNFlagEncoder
  D:0098H         PUBLIC        SCON
  C:6A0CH         PUBLIC        InitVars
  D:0089H         PUBLIC        TMOD
  D:0088H         PUBLIC        TCON
  C:589CH         PUBLIC        main_init
  X:029DH         PUBLIC        day
  X:029EH         PUBLIC        bytFastEncorderCountTemp
  X:029FH         PUBLIC        hour
  B:00C0H.1       PUBLIC        IE2
  B:00C0H.5       PUBLIC        IE3
  C:5CE4H         PUBLIC        _SET_PWM
  X:02A0H         PUBLIC        PowerDownWait
  D:0047H         PUBLIC        tm01
  D:0049H         PUBLIC        stopWatch
  X:02A1H         PUBLIC        EncorderCount
  D:004BH         SYMBOL        RS_buf
  C:67C5H         PUBLIC        SET_MCU_POWER_DOWN_MODE
  D:0069H         PUBLIC        tic_PWR_SAVING
  D:006DH         PUBLIC        tic_Init_time
  B:00A8H.5       PUBLIC        ET2
  B:00C8H.7       PUBLIC        TF2
  D:008CH         PUBLIC        TH0
  B:00A8H.0       PUBLIC        EX0
  D:008DH         PUBLIC        TH1
  X:02A5H         PUBLIC        bytHoldOn3SPowerOff
  B:00A8H.2       PUBLIC        EX1
  B:00C0H.2       PUBLIC        EX2
  B:00C0H.0       PUBLIC        IT2
  C:6AC2H         PUBLIC        RS2_ready
  C:698BH         PUBLIC        Check_ADAP_IN
  B:00C0H.6       PUBLIC        EX3
  B:00C0H.4       PUBLIC        IT3
  D:008AH         PUBLIC        TL0
  X:02A6H         PUBLIC        bytHoldOn3SPowerOffMode
BL51 BANKED LINKER/LOCATER V6.22.2.0                                                  08/24/2021  10:37:20  PAGE 12


  B:0020H.3       PUBLIC        RS2_Xbusy
  B:00C8H.2       PUBLIC        TR2
  X:02A7H         PUBLIC        updn_reg
  B:0020H.4       PUBLIC        PWR_SAVING_ACT_FLAG
  D:0071H         PUBLIC        RS_in
  D:0072H         PUBLIC        RS_out
  C:66EBH         PUBLIC        serial2_int
  D:009AH         PUBLIC        S2BUF
  X:02ABH         PUBLIC        year1
  X:02ACH         PUBLIC        year2
  C:61C5H         PUBLIC        _PowerLED
  D:00AAH         PUBLIC        S2CON
  D:00C8H         PUBLIC        T2CON
  D:00BAH         PUBLIC        S2BRT
  X:02ADH         PUBLIC        DVR_FACTORY_MODE
  D:0073H         PUBLIC        tm001
  D:00A6H         PUBLIC        AUXR2
  B:0020H.5       PUBLIC        ChangeKey
  D:0074H         PUBLIC        tic_pc
  D:0076H         PUBLIC        SystemClock
  D:0093H         PUBLIC        P0M0
  D:00ADH         PUBLIC        AUXIE
  -------         PROC          MAIN_INIT
  -------         DO            
  X:0200H         SYMBOL        rev
  -------         ENDDO         
  C:589CH         LINE#         103
  C:589CH         LINE#         104
  C:589CH         LINE#         107
  C:58A5H         LINE#         110
  C:58E7H         LINE#         112
  C:58F6H         LINE#         113
  C:58F6H         LINE#         114
  C:5910H         LINE#         115
  C:5913H         LINE#         116
  C:5955H         LINE#         117
  C:5955H         LINE#         121
  C:5964H         LINE#         122
  C:5964H         LINE#         125
  C:5964H         LINE#         126
  C:596AH         LINE#         127
  C:596DH         LINE#         128
  C:596DH         LINE#         129
  C:596FH         LINE#         131
  C:596FH         LINE#         132
  C:5978H         LINE#         133
  C:5981H         LINE#         134
  C:5988H         LINE#         136
  C:5988H         LINE#         159
  C:598DH         LINE#         162
  C:5995H         LINE#         163
  C:599AH         LINE#         165
  -------         ENDPROC       MAIN_INIT
  -------         PROC          INITCPU
  C:6311H         LINE#         173
  C:6311H         LINE#         174
  C:6311H         LINE#         178
BL51 BANKED LINKER/LOCATER V6.22.2.0                                                  08/24/2021  10:37:20  PAGE 13


  C:6314H         LINE#         186
  C:6317H         LINE#         188
  C:631AH         LINE#         190
  C:631DH         LINE#         198
  C:6323H         LINE#         200
  C:6326H         LINE#         201
  C:6329H         LINE#         205
  C:632CH         LINE#         208
  C:632EH         LINE#         209
  C:6330H         LINE#         228
  C:6333H         LINE#         229
  C:6335H         LINE#         230
  C:6337H         LINE#         237
  C:633AH         LINE#         238
  C:633DH         LINE#         241
  C:6340H         LINE#         244
  C:6343H         LINE#         246
  C:6345H         LINE#         248
  C:6347H         LINE#         249
  C:6349H         LINE#         253
  C:634CH         LINE#         254
  C:634FH         LINE#         264
  C:6352H         LINE#         267
  C:6355H         LINE#         269
  C:6358H         LINE#         271
  C:635BH         LINE#         272
  C:635DH         LINE#         273
  C:6360H         LINE#         274
  C:6362H         LINE#         276
  -------         ENDPROC       INITCPU
  -------         PROC          SET_MCU_POWER_DOWN_MODE
  C:67C5H         LINE#         279
  C:67C5H         LINE#         280
  C:67C5H         LINE#         282
  C:67CEH         LINE#         284
  C:67D0H         LINE#         285
  C:67D2H         LINE#         286
  C:67D4H         LINE#         288
  C:67D6H         LINE#         289
  C:67D8H         LINE#         290
  C:67DAH         LINE#         292
  C:67E0H         LINE#         293
  C:67E3H         LINE#         295
  C:67E9H         LINE#         296
  C:67EBH         LINE#         297
  C:67EDH         LINE#         298
  C:67F0H         LINE#         299
  C:67F1H         LINE#         300
  C:67F2H         LINE#         301
  C:67F3H         LINE#         305
  -------         ENDPROC       SET_MCU_POWER_DOWN_MODE
  -------         PROC          CHECK_ADAP_IN
  C:698BH         LINE#         308
  C:698BH         LINE#         309
  C:698BH         LINE#         311
  C:6991H         LINE#         312
  C:6991H         LINE#         313
BL51 BANKED LINKER/LOCATER V6.22.2.0                                                  08/24/2021  10:37:20  PAGE 14


  C:6998H         LINE#         315
  C:699EH         LINE#         316
  C:69A1H         LINE#         318
  C:69A4H         LINE#         319
  C:69A4H         LINE#         321
  C:69A6H         LINE#         322
  -------         ENDPROC       CHECK_ADAP_IN
  -------         PROC          _SET_PWM
  X:0205H         SYMBOL        index
  X:0206H         SYMBOL        val
  C:5CE4H         LINE#         324
  C:5CECH         LINE#         325
  C:5CECH         LINE#         327
  C:5D05H         LINE#         329
  C:5D17H         LINE#         330
  C:5D17H         LINE#         331
  C:5D17H         LINE#         333
  C:5D1AH         LINE#         334
  C:5D25H         LINE#         335
  C:5D28H         LINE#         337
  C:5D2BH         LINE#         338
  C:5D2BH         LINE#         339
  C:5D2DH         LINE#         340
  C:5D2FH         LINE#         341
  C:5D2FH         LINE#         343
  C:5D37H         LINE#         344
  C:5D37H         LINE#         345
  C:5D3AH         LINE#         346
  C:5D3DH         LINE#         347
  C:5D40H         LINE#         348
  C:5D46H         LINE#         349
  C:5D48H         LINE#         350
  C:5D50H         LINE#         351
  C:5D50H         LINE#         352
  C:5D53H         LINE#         353
  C:5D56H         LINE#         354
  C:5D59H         LINE#         355
  C:5D62H         LINE#         356
  C:5D62H         LINE#         358
  C:5D69H         LINE#         359
  C:5D69H         LINE#         360
  C:5D6CH         LINE#         361
  C:5D6EH         LINE#         362
  C:5D6EH         LINE#         396
  C:5D6FH         LINE#         397
  C:5D6FH         LINE#         398
  C:5D72H         LINE#         399
  C:5D7DH         LINE#         400
  C:5D80H         LINE#         401
  C:5D81H         LINE#         402
  C:5D81H         LINE#         403
  C:5D84H         LINE#         404
  C:5D85H         LINE#         405
  C:5D85H         LINE#         406
  C:5D88H         LINE#         407
  C:5D88H         LINE#         409
  C:5D88H         LINE#         410
BL51 BANKED LINKER/LOCATER V6.22.2.0                                                  08/24/2021  10:37:20  PAGE 15


  C:5D88H         LINE#         411
  C:5D88H         LINE#         414
  -------         ENDPROC       _SET_PWM
  -------         PROC          TIMER0_INT
  -------         DO            
  D:000FH         SYMBOL        TempKey
  -------         ENDDO         
  C:2E33H         LINE#         423
  C:2E40H         LINE#         430
  C:2E42H         LINE#         435
  C:2E44H         LINE#         438
  C:2E4FH         LINE#         439
  C:2E4FH         LINE#         440
  C:2E5DH         LINE#         441
  C:2E60H         LINE#         442
  C:2E62H         LINE#         443
  C:2E62H         LINE#         445
  C:2E68H         LINE#         446
  C:2E6AH         LINE#         447
  C:2E73H         LINE#         448
  C:2E73H         LINE#         450
  C:2E7CH         LINE#         451
  C:2E86H         LINE#         452
  C:2E86H         LINE#         453
  C:2E8EH         LINE#         454
  C:2E96H         LINE#         455
  C:2E9EH         LINE#         456
  C:2EA1H         LINE#         457
  C:2EA3H         LINE#         461
  C:2EB1H         LINE#         462
  C:2EB4H         LINE#         464
  C:2EB7H         LINE#         466
  C:2EC0H         LINE#         467
  C:2EC0H         LINE#         468
  C:2EDBH         LINE#         469
  C:2EDBH         LINE#         470
  C:2EDBH         LINE#         471
  C:2EDDH         LINE#         472
  C:2EF5H         LINE#         473
  C:2EF5H         LINE#         474
  C:2EF5H         LINE#         475
  C:2EF7H         LINE#         476
  C:2F0FH         LINE#         477
  C:2F0FH         LINE#         479
  C:2F0FH         LINE#         480
  C:2F11H         LINE#         481
  C:2F2CH         LINE#         482
  C:2F2CH         LINE#         484
  C:2F30H         LINE#         485
  C:2F33H         LINE#         486
  C:2F4BH         LINE#         487
  C:2F4BH         LINE#         489
  C:2F4BH         LINE#         490
  C:2F4DH         LINE#         491
  C:2F65H         LINE#         492
  C:2F65H         LINE#         494
  C:2F65H         LINE#         495
BL51 BANKED LINKER/LOCATER V6.22.2.0                                                  08/24/2021  10:37:20  PAGE 16


  C:2F67H         LINE#         496
  C:2F82H         LINE#         497
  C:2F82H         LINE#         499
  C:2F82H         LINE#         500
  C:2F84H         LINE#         501
  C:2FA8H         LINE#         502
  C:2FA8H         LINE#         504
  C:2FADH         LINE#         505
  C:2FADH         LINE#         506
  C:2FB0H         LINE#         508
  C:2FB0H         LINE#         509
  C:2FC8H         LINE#         510
  C:2FC8H         LINE#         511
  C:2FEDH         LINE#         512
  C:2FFBH         LINE#         513
  C:2FFBH         LINE#         514
  C:3013H         LINE#         515
  C:3013H         LINE#         516
  C:3038H         LINE#         517
  C:3046H         LINE#         518
  C:3046H         LINE#         519
  C:305EH         LINE#         520
  C:305EH         LINE#         521
  C:3083H         LINE#         522
  C:3091H         LINE#         523
  C:3091H         LINE#         524
  C:30A9H         LINE#         525
  C:30A9H         LINE#         526
  C:30CEH         LINE#         527
  C:30DCH         LINE#         528
  C:30DCH         LINE#         529
  C:30F4H         LINE#         530
  C:30F4H         LINE#         531
  C:3118H         LINE#         532
  C:3126H         LINE#         533
  C:3126H         LINE#         534
  C:313EH         LINE#         535
  C:313EH         LINE#         536
  C:3162H         LINE#         537
  C:3170H         LINE#         538
  C:3170H         LINE#         539
  C:3188H         LINE#         540
  C:3188H         LINE#         541
  C:31ACH         LINE#         542
  C:31BAH         LINE#         543
  C:31BAH         LINE#         544
  C:31D2H         LINE#         545
  C:31D2H         LINE#         546
  C:31F6H         LINE#         547
  C:3204H         LINE#         548
  C:3204H         LINE#         549
  C:3204H         LINE#         561
  C:320AH         LINE#         562
  C:320AH         LINE#         563
  C:3219H         LINE#         564
  C:3219H         LINE#         565
  C:3238H         LINE#         566
BL51 BANKED LINKER/LOCATER V6.22.2.0                                                  08/24/2021  10:37:20  PAGE 17


  C:323FH         LINE#         567
  C:323FH         LINE#         568
  C:323FH         LINE#         569
  C:323FH         LINE#         570
  C:323FH         LINE#         579
  C:324DH         LINE#         582
  C:3255H         LINE#         583
  C:3258H         LINE#         584
  C:325AH         LINE#         586
  C:3260H         LINE#         587
  C:3260H         LINE#         591
  C:3262H         LINE#         594
  C:3269H         LINE#         595
  C:326EH         LINE#         597
  C:3270H         LINE#         599
  C:3270H         LINE#         600
  C:327AH         LINE#         601
  C:3282H         LINE#         604
  C:3290H         LINE#         605
  C:32A4H         LINE#         606
  C:32AEH         LINE#         607
  C:32BCH         LINE#         649
  C:32C8H         LINE#         650
  C:32C8H         LINE#         651
  C:32D0H         LINE#         652
  C:32D0H         LINE#         653
  C:32E1H         LINE#         654
  C:32E1H         LINE#         655
  C:32E4H         LINE#         656
  C:32E6H         LINE#         657
  C:32E8H         LINE#         658
  C:32E8H         LINE#         659
  C:32EAH         LINE#         660
  C:3306H         LINE#         661
  C:3306H         LINE#         662
  C:3309H         LINE#         663
  C:3309H         LINE#         664
  C:330CH         LINE#         665
  C:330EH         LINE#         666
  C:3313H         LINE#         667
  C:3315H         LINE#         668
  C:3315H         LINE#         669
  C:3317H         LINE#         670
  C:3321H         LINE#         672
  C:3324H         LINE#         673
  C:3324H         LINE#         674
  C:3327H         LINE#         675
  C:3329H         LINE#         676
  C:332FH         LINE#         677
  C:3331H         LINE#         678
  C:3331H         LINE#         680
  C:3337H         LINE#         681
  C:3337H         LINE#         683
  C:333FH         LINE#         684
  C:3341H         LINE#         686
  C:3341H         LINE#         687
  C:3357H         LINE#         688
BL51 BANKED LINKER/LOCATER V6.22.2.0                                                  08/24/2021  10:37:20  PAGE 18


  C:335AH         LINE#         689
  C:335CH         LINE#         690
  C:335EH         LINE#         692
  C:335EH         LINE#         693
  C:3361H         LINE#         694
  C:3363H         LINE#         695
  C:3363H         LINE#         697
  C:3365H         LINE#         698
  C:336BH         LINE#         699
  C:336BH         LINE#         731
  C:336BH         LINE#         733
  -------         ENDPROC       TIMER0_INT
  -------         PROC          SHOWWORKINGTIMER
  -------         DO            
  X:0204H         SYMBOL        val
  -------         ENDDO         
  C:4483H         LINE#         738
  C:4483H         LINE#         739
  C:4483H         LINE#         742
  C:448EH         LINE#         744
  C:4495H         LINE#         745
  C:4495H         LINE#         746
  C:44C5H         LINE#         747
  C:44C7H         LINE#         748
  C:44CEH         LINE#         749
  C:44CEH         LINE#         750
  C:44F1H         LINE#         751
  C:44F3H         LINE#         752
  C:44FCH         LINE#         753
  C:44FCH         LINE#         754
  C:4510H         LINE#         755
  C:4512H         LINE#         757
  C:4512H         LINE#         758
  C:4528H         LINE#         759
  C:4528H         LINE#         763
  C:4570H         LINE#         767
  C:457AH         LINE#         768
  C:4584H         LINE#         769
  C:458DH         LINE#         770
  C:4597H         LINE#         772
  C:45A1H         LINE#         773
  C:45ABH         LINE#         774
  C:45B8H         LINE#         775
  C:45C0H         LINE#         777
  C:45C9H         LINE#         783
  C:45D3H         LINE#         784
  C:45D3H         LINE#         785
  C:4632H         LINE#         786
  C:4640H         LINE#         788
  C:4642H         LINE#         790
  C:4642H         LINE#         794
  C:467EH         LINE#         796
  C:468CH         LINE#         797
  C:46A3H         LINE#         799
  C:46B7H         LINE#         803
  C:46B7H         LINE#         806
  C:470AH         LINE#         810
BL51 BANKED LINKER/LOCATER V6.22.2.0                                                  08/24/2021  10:37:20  PAGE 19


  C:4714H         LINE#         811
  C:471EH         LINE#         812
  C:4728H         LINE#         813
  C:4732H         LINE#         814
  C:473CH         LINE#         815
  C:4746H         LINE#         816
  C:4750H         LINE#         817
  C:475AH         LINE#         818
  C:4764H         LINE#         819
  C:476FH         LINE#         821
  C:4779H         LINE#         822
  C:4781H         LINE#         823
  C:478BH         LINE#         824
  C:4793H         LINE#         825
  C:479DH         LINE#         826
  C:47A5H         LINE#         827
  C:47AFH         LINE#         828
  C:47B7H         LINE#         829
  C:47BFH         LINE#         830
  C:47C9H         LINE#         831
  C:47D3H         LINE#         832
  C:47DDH         LINE#         833
  C:47E7H         LINE#         834
  C:47F1H         LINE#         835
  C:47FBH         LINE#         836
  C:4805H         LINE#         837
  C:480FH         LINE#         838
  C:4819H         LINE#         839
  C:4823H         LINE#         840
  C:482EH         LINE#         842
  C:483AH         LINE#         843
  C:4845H         LINE#         845
  C:484FH         LINE#         846
  C:4857H         LINE#         847
  C:4861H         LINE#         848
  C:4869H         LINE#         849
  C:4875H         LINE#         850
  C:487BH         LINE#         852
  C:4893H         LINE#         870
  -------         ENDPROC       SHOWWORKINGTIMER
  -------         PROC          INITVARS
  -------         DO            
  D:0007H         SYMBOL        j
  -------         ENDDO         
  C:6A0CH         LINE#         880
  C:6A0CH         LINE#         881
  C:6A0CH         LINE#         883
  C:6A18H         LINE#         884
  C:6A21H         LINE#         886
  -------         ENDPROC       INITVARS
  -------         PROC          _POWERLED
  D:0007H         SYMBOL        flag
  C:61C5H         LINE#         892
  C:61C5H         LINE#         893
  C:61C5H         LINE#         895
  C:61F9H         LINE#         896
  C:61F9H         LINE#         897
BL51 BANKED LINKER/LOCATER V6.22.2.0                                                  08/24/2021  10:37:20  PAGE 20


  C:61F9H         LINE#         898
  C:61FBH         LINE#         899
  C:61FDH         LINE#         900
  C:61FEH         LINE#         901
  C:61FEH         LINE#         902
  C:6200H         LINE#         903
  C:6202H         LINE#         904
  C:6203H         LINE#         905
  C:6203H         LINE#         906
  C:6203H         LINE#         907
  C:6203H         LINE#         908
  C:6205H         LINE#         909
  C:6205H         LINE#         910
  C:6205H         LINE#         911
  C:6205H         LINE#         912
  C:6207H         LINE#         913
  C:6207H         LINE#         914
  C:620AH         LINE#         915
  C:620AH         LINE#         916
  C:620CH         LINE#         917
  C:620EH         LINE#         918
  C:620FH         LINE#         925
  C:620FH         LINE#         926
  C:6212H         LINE#         927
  C:6212H         LINE#         928
  C:6214H         LINE#         929
  C:6216H         LINE#         930
  C:6217H         LINE#         932
  C:6217H         LINE#         933
  C:6217H         LINE#         934
  C:6217H         LINE#         935
  C:6217H         LINE#         936
  C:6219H         LINE#         937
  C:6219H         LINE#         938
  C:621CH         LINE#         939
  C:621CH         LINE#         940
  C:621EH         LINE#         941
  C:6220H         LINE#         942
  C:6221H         LINE#         944
  C:6221H         LINE#         945
  C:6223H         LINE#         946
  C:6225H         LINE#         947
  C:6225H         LINE#         948
  C:6226H         LINE#         949
  C:6226H         LINE#         950
  C:6229H         LINE#         951
  C:6229H         LINE#         952
  C:622BH         LINE#         953
  C:622DH         LINE#         955
  C:622DH         LINE#         956
  C:622FH         LINE#         957
  C:622FH         LINE#         959
  C:6231H         LINE#         961
  C:6232H         LINE#         962
  C:6232H         LINE#         963
  C:6235H         LINE#         964
  C:6235H         LINE#         965
BL51 BANKED LINKER/LOCATER V6.22.2.0                                                  08/24/2021  10:37:20  PAGE 21


  C:6237H         LINE#         966
  C:6239H         LINE#         968
  C:6239H         LINE#         969
  C:623BH         LINE#         970
  C:623BH         LINE#         972
  C:623DH         LINE#         975
  C:623DH         LINE#         976
  C:623DH         LINE#         977
  C:623DH         LINE#         978
  C:623DH         LINE#         979
  -------         ENDPROC       _POWERLED
  -------         PROC          EXT0_INT
  C:5D89H         LINE#         988
  C:5D96H         LINE#         990
  C:5D98H         LINE#         991
  C:5DA1H         LINE#         992
  C:5DBEH         LINE#         994
  C:5DDFH         LINE#         996
  C:5DECH         LINE#         997
  C:5DECH         LINE#         998
  C:5E0BH         LINE#         999
  C:5E10H         LINE#         1000
  C:5E12H         LINE#         1002
  C:5E18H         LINE#         1004
  C:5E1AH         LINE#         1005
  -------         ENDPROC       EXT0_INT
  -------         PROC          EXT1_INT
  C:000EH         LINE#         1007
  C:000EH         LINE#         1009
  C:0010H         LINE#         1012
  -------         ENDPROC       EXT1_INT
  -------         PROC          SERIAL_INT
  C:67F4H         LINE#         1035
  C:67FBH         LINE#         1041
  C:67FEH         LINE#         1050
  C:6805H         LINE#         1051
  C:6807H         LINE#         1052
  C:6815H         LINE#         1056
  C:6817H         LINE#         1058
  C:6817H         LINE#         1060
  C:681AH         LINE#         1061
  C:681CH         LINE#         1062
  C:681EH         LINE#         1063
  C:681EH         LINE#         1064
  -------         ENDPROC       SERIAL_INT
  -------         PROC          SERIAL2_INT
  C:66EBH         LINE#         1068
  C:66F2H         LINE#         1073
  C:66FAH         LINE#         1074
  C:66FAH         LINE#         1076
  C:66FDH         LINE#         1078
  C:6704H         LINE#         1081
  C:6706H         LINE#         1082
  C:6714H         LINE#         1083
  C:6714H         LINE#         1085
  C:671CH         LINE#         1086
  C:671CH         LINE#         1087
BL51 BANKED LINKER/LOCATER V6.22.2.0                                                  08/24/2021  10:37:20  PAGE 22


  C:671FH         LINE#         1088
  C:6721H         LINE#         1089
  C:6721H         LINE#         1090
  -------         ENDPROC       SERIAL2_INT
  -------         PROC          RS2_READY
  C:6AC2H         LINE#         1126
  C:6AC2H         LINE#         1127
  C:6AC2H         LINE#         1128
  C:6ACAH         LINE#         1129
  C:6ACCH         LINE#         1130
  -------         ENDPROC       RS2_READY
  -------         PROC          RS2_RX
  -------         DO            
  D:0007H         SYMBOL        ret
  -------         ENDDO         
  C:696DH         LINE#         1134
  C:696DH         LINE#         1135
  C:696DH         LINE#         1138
  C:6970H         LINE#         1139
  C:6977H         LINE#         1140
  C:6979H         LINE#         1141
  C:6984H         LINE#         1142
  C:6987H         LINE#         1143
  C:698AH         LINE#         1145
  C:698AH         LINE#         1146
  -------         ENDPROC       RS2_RX
  -------         PROC          _RS2_TX
  D:0007H         SYMBOL        tx_buf
  C:6ACDH         LINE#         1163
  C:6ACDH         LINE#         1164
  C:6ACDH         LINE#         1166
  C:6AD0H         LINE#         1167
  C:6AD2H         LINE#         1168
  C:6AD4H         LINE#         1169
  -------         ENDPROC       _RS2_TX
  -------         PROC          TIMER2_INT
  C:6AA7H         LINE#         1210
  C:6AA9H         LINE#         1369
  C:6AABH         LINE#         1371
  C:6AB3H         LINE#         1373
  -------         ENDPROC       TIMER2_INT
  -------         PROC          _DELAY
  D:0007H         SYMBOL        cnt
  -------         DO            
  D:0004H         SYMBOL        ttic01
  -------         ENDDO         
  C:69F4H         LINE#         1375
  C:69F4H         LINE#         1376
  C:69F4H         LINE#         1379
  C:6A02H         LINE#         1380
  C:6A02H         LINE#         1382
  C:6A0BH         LINE#         1383
  -------         ENDPROC       _DELAY
  -------         PROC          INT2_INT
  C:692FH         LINE#         1387
  C:6935H         LINE#         1389
  C:6937H         LINE#         1390
BL51 BANKED LINKER/LOCATER V6.22.2.0                                                  08/24/2021  10:37:20  PAGE 23


  C:6939H         LINE#         1391
  C:693CH         LINE#         1392
  C:6942H         LINE#         1393
  C:6947H         LINE#         1394
  -------         ENDPROC       INT2_INT
  -------         PROC          INT3_INT
  C:694EH         LINE#         1396
  C:6954H         LINE#         1398
  C:6956H         LINE#         1399
  C:6958H         LINE#         1400
  C:695BH         LINE#         1401
  C:6961H         LINE#         1402
  C:6966H         LINE#         1403
  -------         ENDPROC       INT3_INT
  -------         ENDMOD        CPU

  -------         MODULE        ETC_EEP
  C:0000H         SYMBOL        _ICE_DUMMY_
  C:6496H         PUBLIC        GetProjectNameEE
  C:566BH         PUBLIC        ClearBasicEE
  C:69C2H         PUBLIC        SaveFWRevEE
  C:6402H         PUBLIC        GetFWRevEE
  -------         PROC          GETFWREVEE
  -------         DO            
  D:0004H         SYMBOL        rev
  -------         ENDDO         
  C:6402H         LINE#         17
  C:6402H         LINE#         18
  C:6402H         LINE#         19
  C:6408H         LINE#         26
  C:644BH         LINE#         28
  C:644BH         LINE#         29
  -------         ENDPROC       GETFWREVEE
  -------         PROC          GETPROJECTNAMEEE
  -------         DO            
  X:0204H         SYMBOL        rev
  -------         ENDDO         
  C:6496H         LINE#         31
  C:6496H         LINE#         32
  C:6496H         LINE#         33
  C:649CH         LINE#         35
  C:64AAH         LINE#         36
  C:64B9H         LINE#         37
  C:64C8H         LINE#         38
  C:64D7H         LINE#         40
  C:64DCH         LINE#         41
  -------         ENDPROC       GETPROJECTNAMEEE
  -------         PROC          SAVEFWREVEE
  C:69C2H         LINE#         43
  C:69C2H         LINE#         44
  C:69C2H         LINE#         51
  C:69CAH         LINE#         52
  C:69D2H         LINE#         53
  -------         ENDPROC       SAVEFWREVEE
  -------         PROC          CLEARBASICEE
  C:566BH         LINE#         67
  C:566BH         LINE#         68
BL51 BANKED LINKER/LOCATER V6.22.2.0                                                  08/24/2021  10:37:20  PAGE 24


  C:566BH         LINE#         70
  C:5674H         LINE#         72
  C:567CH         LINE#         73
  C:5685H         LINE#         74
  C:568EH         LINE#         75
  C:5697H         LINE#         79
  C:56A0H         LINE#         82
  C:56A9H         LINE#         84
  C:56B1H         LINE#         86
  C:56B9H         LINE#         88
  C:56C1H         LINE#         90
  C:56CAH         LINE#         92
  C:56D2H         LINE#         94
  C:56DBH         LINE#         95
  C:56E3H         LINE#         97
  C:56ECH         LINE#         98
  C:56F4H         LINE#         100
  C:56FDH         LINE#         101
  C:5705H         LINE#         103
  C:570EH         LINE#         104
  C:5716H         LINE#         106
  C:571EH         LINE#         107
  C:5726H         LINE#         108
  C:572EH         LINE#         110
  C:5736H         LINE#         111
  C:573EH         LINE#         112
  C:5746H         LINE#         114
  C:574FH         LINE#         115
  C:5757H         LINE#         117
  C:5760H         LINE#         118
  C:5768H         LINE#         120
  C:5771H         LINE#         121
  C:5779H         LINE#         123
  C:5782H         LINE#         124
  -------         ENDPROC       CLEARBASICEE
  -------         ENDMOD        ETC_EEP

  -------         MODULE        HS_DVRPROTOCOL
  C:0000H         SYMBOL        _ICE_DUMMY_
  X:0000H         PUBLIC        protocol_data_count
  D:00B2H         PUBLIC        P3M1
  D:00A8H         PUBLIC        IE
  X:0001H         PUBLIC        protocol_len
  D:00B8H         PUBLIC        IP
  X:0002H         PUBLIC        protocol_type
  B:0021H.3       PUBLIC        protocol_escape_flag
  D:00B7H         PUBLIC        IPH
  X:0003H         PUBLIC        protocol_chksum
  X:0004H         PUBLIC        protocol_param
  X:0005H         PUBLIC        protocol_data
  C:2114H         PUBLIC        DvrReceivePaser
  X:0105H         PUBLIC        protocol_state
  -------         PROC          DVRRECEIVEPASER
  -------         DO            
  X:0200H         SYMBOL        c
  -------         ENDDO         
  C:2114H         LINE#         47
BL51 BANKED LINKER/LOCATER V6.22.2.0                                                  08/24/2021  10:37:20  PAGE 25


  C:2114H         LINE#         48
  C:2114H         LINE#         50
  C:211DH         LINE#         51
  C:211DH         LINE#         52
  C:2125H         LINE#         54
  C:212BH         LINE#         55
  C:212BH         LINE#         59
  C:212DH         LINE#         60
  C:2132H         LINE#         61
  C:2138H         LINE#         63
  C:2138H         LINE#         65
  C:213EH         LINE#         66
  C:213EH         LINE#         67
  C:2141H         LINE#         69
  C:2141H         LINE#         71
  C:2144H         LINE#         72
  C:2144H         LINE#         73
  C:2146H         LINE#         74
  C:214DH         LINE#         75
  C:214DH         LINE#         77
  C:2156H         LINE#         78
  C:2156H         LINE#         79
  C:2166H         LINE#         80
  C:2166H         LINE#         82
  C:217BH         LINE#         83
  C:217BH         LINE#         84
  C:217BH         LINE#         85
  C:2183H         LINE#         86
  C:219CH         LINE#         87
  C:219CH         LINE#         88
  C:219CH         LINE#         89
  C:219CH         LINE#         90
  C:219CH         LINE#         91
  C:219CH         LINE#         92
  C:219CH         LINE#         93
  C:219CH         LINE#         94
  C:219CH         LINE#         95
  C:219CH         LINE#         96
  C:219CH         LINE#         97
  C:219CH         LINE#         98
  C:219CH         LINE#         99
  C:219CH         LINE#         100
  C:219CH         LINE#         101
  C:219CH         LINE#         102
  C:219CH         LINE#         103
  C:219CH         LINE#         105
  C:21A2H         LINE#         106
  C:21A3H         LINE#         107
  C:21A3H         LINE#         108
  C:21A3H         LINE#         109
  C:21A6H         LINE#         110
  C:21A6H         LINE#         111
  C:21A6H         LINE#         113
  C:21A6H         LINE#         114
  C:21AEH         LINE#         115
  C:21C9H         LINE#         116
  C:21C9H         LINE#         117
BL51 BANKED LINKER/LOCATER V6.22.2.0                                                  08/24/2021  10:37:20  PAGE 26


  C:21C9H         LINE#         118
  C:21C9H         LINE#         119
  C:21C9H         LINE#         120
  C:21C9H         LINE#         121
  C:21C9H         LINE#         122
  C:21C9H         LINE#         123
  C:21C9H         LINE#         124
  C:21C9H         LINE#         125
  C:21C9H         LINE#         126
  C:21C9H         LINE#         127
  C:21C9H         LINE#         128
  C:21C9H         LINE#         129
  C:21C9H         LINE#         130
  C:21C9H         LINE#         131
  C:21C9H         LINE#         132
  C:21C9H         LINE#         134
  C:21CFH         LINE#         135
  C:21CFH         LINE#         136
  C:21CFH         LINE#         137
  C:21D1H         LINE#         139
  C:21D1H         LINE#         140
  C:21D6H         LINE#         141
  C:21DCH         LINE#         146
  C:21DCH         LINE#         147
  C:21DDH         LINE#         148
  C:21DDH         LINE#         149
  C:21DDH         LINE#         150
  C:21E0H         LINE#         151
  C:21E0H         LINE#         152
  C:21E0H         LINE#         154
  C:21E0H         LINE#         155
  C:21FDH         LINE#         156
  C:21FDH         LINE#         157
  C:21FDH         LINE#         158
  C:21FDH         LINE#         159
  C:21FDH         LINE#         160
  C:21FDH         LINE#         161
  C:21FDH         LINE#         162
  C:21FDH         LINE#         163
  C:21FDH         LINE#         164
  C:21FDH         LINE#         165
  C:21FDH         LINE#         166
  C:21FDH         LINE#         167
  C:21FDH         LINE#         168
  C:21FDH         LINE#         169
  C:21FDH         LINE#         170
  C:21FDH         LINE#         171
  C:21FDH         LINE#         174
  C:2211H         LINE#         175
  C:2217H         LINE#         176
  C:2224H         LINE#         177
  C:222AH         LINE#         181
  C:222AH         LINE#         186
  C:222BH         LINE#         187
  C:222BH         LINE#         188
  C:222BH         LINE#         189
  C:222EH         LINE#         190
BL51 BANKED LINKER/LOCATER V6.22.2.0                                                  08/24/2021  10:37:20  PAGE 27


  C:222EH         LINE#         191
  C:222EH         LINE#         193
  C:222EH         LINE#         194
  C:223DH         LINE#         195
  C:223DH         LINE#         200
  C:2278H         LINE#         201
  C:2278H         LINE#         202
  C:2278H         LINE#         206
  C:227FH         LINE#         207
  C:2288H         LINE#         208
  C:2295H         LINE#         209
  C:2295H         LINE#         210
  C:2299H         LINE#         211
  C:229EH         LINE#         212
  C:22A3H         LINE#         213
  C:22A3H         LINE#         214
  C:22ACH         LINE#         215
  C:22B5H         LINE#         216
  C:22B8H         LINE#         217
  C:22BBH         LINE#         218
  C:22BBH         LINE#         222
  C:22C0H         LINE#         223
  C:22CCH         LINE#         224
  C:22D2H         LINE#         225
  C:22D5H         LINE#         226
  C:22D5H         LINE#         231
  C:22DBH         LINE#         232
  C:22DEH         LINE#         233
  C:22DEH         LINE#         238
  C:22E4H         LINE#         239
  C:22E7H         LINE#         240
  C:22E7H         LINE#         243
  C:22F0H         LINE#         244
  C:22F0H         LINE#         257
  C:2358H         LINE#         266
  C:2358H         LINE#         267
  C:2364H         LINE#         268
  C:2370H         LINE#         270
  C:237CH         LINE#         271
  C:2388H         LINE#         273
  C:2394H         LINE#         274
  C:23A0H         LINE#         276
  C:23ACH         LINE#         277
  C:23B8H         LINE#         282
  C:23B8H         LINE#         284
  C:23D9H         LINE#         285
  C:23FAH         LINE#         287
  C:241BH         LINE#         288
  C:243CH         LINE#         290
  C:245DH         LINE#         291
  C:247EH         LINE#         293
  C:249FH         LINE#         294
  C:24BDH         LINE#         296
  C:24C0H         LINE#         298
  C:24C0H         LINE#         312
  C:2529H         LINE#         321
  C:2529H         LINE#         322
BL51 BANKED LINKER/LOCATER V6.22.2.0                                                  08/24/2021  10:37:20  PAGE 28


  C:2535H         LINE#         323
  C:2541H         LINE#         325
  C:254DH         LINE#         326
  C:2559H         LINE#         328
  C:2565H         LINE#         329
  C:2571H         LINE#         331
  C:257DH         LINE#         332
  C:2589H         LINE#         337
  C:2589H         LINE#         339
  C:25AAH         LINE#         340
  C:25CBH         LINE#         342
  C:25ECH         LINE#         343
  C:260DH         LINE#         345
  C:262EH         LINE#         346
  C:264FH         LINE#         348
  C:2670H         LINE#         349
  C:2691H         LINE#         353
  C:2691H         LINE#         354
  C:2697H         LINE#         356
  C:269AH         LINE#         358
  C:269AH         LINE#         364
  C:26A7H         LINE#         365
  C:26AAH         LINE#         367
  C:26BCH         LINE#         369
  C:26C5H         LINE#         370
  C:26CAH         LINE#         372
  C:26D4H         LINE#         373
  C:26DDH         LINE#         400
  C:26E0H         LINE#         402
  C:26E0H         LINE#         407
  C:26E9H         LINE#         408
  C:26E9H         LINE#         409
  C:26F0H         LINE#         413
  C:26F3H         LINE#         414
  C:26FCH         LINE#         415
  C:26FCH         LINE#         416
  C:2701H         LINE#         417
  C:2708H         LINE#         421
  C:2708H         LINE#         422
  C:270BH         LINE#         424
  C:270BH         LINE#         428
  C:2711H         LINE#         429
  C:2714H         LINE#         431
  C:2714H         LINE#         436
  C:271AH         LINE#         437
  C:271AH         LINE#         438
  C:2721H         LINE#         439
  C:2726H         LINE#         442
  C:272BH         LINE#         443
  C:2730H         LINE#         444
  C:2735H         LINE#         445
  C:273AH         LINE#         446
  C:273FH         LINE#         447
  C:2744H         LINE#         449
  C:274AH         LINE#         451
  C:274DH         LINE#         452
  C:2755H         LINE#         453
BL51 BANKED LINKER/LOCATER V6.22.2.0                                                  08/24/2021  10:37:20  PAGE 29


  C:2755H         LINE#         454
  C:275BH         LINE#         455
  C:275BH         LINE#         456
  C:275BH         LINE#         457
  C:275DH         LINE#         458
  C:2768H         LINE#         459
  C:2768H         LINE#         460
  C:276FH         LINE#         461
  C:2772H         LINE#         462
  C:277BH         LINE#         463
  C:2780H         LINE#         464
  C:2780H         LINE#         466
  C:2783H         LINE#         468
  C:2783H         LINE#         473
  C:278EH         LINE#         474
  C:278EH         LINE#         475
  C:2795H         LINE#         476
  C:279AH         LINE#         480
  C:279CH         LINE#         481
  C:27A8H         LINE#         482
  C:27A8H         LINE#         483
  C:27AFH         LINE#         484
  C:27B4H         LINE#         485
  C:27BBH         LINE#         487
  C:27C7H         LINE#         488
  C:27CBH         LINE#         489
  C:27CBH         LINE#         490
  C:27DBH         LINE#         491
  C:27DBH         LINE#         492
  C:27E2H         LINE#         493
  C:27E9H         LINE#         494
  C:27EEH         LINE#         495
  C:27F5H         LINE#         496
  C:27FFH         LINE#         497
  C:2807H         LINE#         501
  C:2813H         LINE#         502
  C:2817H         LINE#         503
  C:2819H         LINE#         504
  C:2829H         LINE#         505
  C:2829H         LINE#         506
  C:282EH         LINE#         510
  C:282EH         LINE#         512
  C:2833H         LINE#         514
  C:283EH         LINE#         515
  C:2844H         LINE#         517
  C:2846H         LINE#         519
  C:2846H         LINE#         523
  C:284CH         LINE#         524
  C:284EH         LINE#         526
  C:284EH         LINE#         528
  C:2856H         LINE#         529
  C:2856H         LINE#         530
  C:285EH         LINE#         531
  C:2864H         LINE#         532
  C:2866H         LINE#         534
  C:2866H         LINE#         535
  C:286EH         LINE#         536
BL51 BANKED LINKER/LOCATER V6.22.2.0                                                  08/24/2021  10:37:20  PAGE 30


  C:2873H         LINE#         537
  C:2873H         LINE#         544
  C:2875H         LINE#         545
  C:2875H         LINE#         546
  C:2880H         LINE#         547
  C:2885H         LINE#         549
  C:2888H         LINE#         554
  C:2891H         LINE#         557
  C:2893H         LINE#         558
  C:2893H         LINE#         562
  C:2899H         LINE#         563
  C:289BH         LINE#         564
  C:289BH         LINE#         568
  C:28A4H         LINE#         569
  C:28A6H         LINE#         570
  C:28A6H         LINE#         572
  C:28AEH         LINE#         573
  C:28AEH         LINE#         574
  C:28B3H         LINE#         575
  C:28B6H         LINE#         576
  C:28B9H         LINE#         577
  C:28BCH         LINE#         578
  C:28C1H         LINE#         579
  C:28C3H         LINE#         581
  C:28C3H         LINE#         582
  C:28C8H         LINE#         583
  C:28CBH         LINE#         584
  C:28CEH         LINE#         585
  C:28D1H         LINE#         586
  C:28D7H         LINE#         587
  C:28D7H         LINE#         594
  C:28D7H         LINE#         595
  C:28D7H         LINE#         596
  C:28D7H         LINE#         597
  C:28D7H         LINE#         599
  C:28D7H         LINE#         601
  C:28D7H         LINE#         605
  C:28D7H         LINE#         606
  C:28DCH         LINE#         607
  C:28DCH         LINE#         608
  C:28DCH         LINE#         609
  C:28DCH         LINE#         610
  C:28DCH         LINE#         611
  C:28DCH         LINE#         614
  -------         ENDPROC       DVRRECEIVEPASER
  -------         ENDMOD        HS_DVRPROTOCOL

  -------         MODULE        I2C
  C:0000H         SYMBOL        _ICE_DUMMY_
  B:0090H.0       PUBLIC        P1_0
  B:0090H.1       PUBLIC        P1_1
  C:675FH         PUBLIC        I2CReadData
  C:6726H         PUBLIC        _ReadI2C
  C:614AH         PUBLIC        _I2CWriteData
  C:6A84H         PUBLIC        I2CStart
  C:6A3BH         PUBLIC        I2Cdelay
  C:68A8H         PUBLIC        _ReadEEP
BL51 BANKED LINKER/LOCATER V6.22.2.0                                                  08/24/2021  10:37:20  PAGE 31


  C:68EFH         PUBLIC        _WriteAD5110
  C:0016H         PUBLIC        I2CStop
  C:64DDH         PUBLIC        _WriteEEP
  C:60CCH         PUBLIC        _AD5110_I2CWriteData
  C:6A37H         SYMBOL        L?0054
  -------         PROC          L?0053
  -------         ENDPROC       L?0053
  C:6A37H         SYMBOL        L?0054
  -------         PROC          I2CDELAY
  -------         DO            
  D:0007H         SYMBOL        i
  -------         ENDDO         
  C:6A3BH         LINE#         34
  C:6A3BH         LINE#         35
  C:6A3BH         LINE#         37
  C:6A47H         LINE#         38
  C:6A4AH         LINE#         39
  -------         ENDPROC       I2CDELAY
  -------         PROC          _WRITEEEP
  X:0208H         SYMBOL        index
  X:020AH         SYMBOL        dat
  -------         DO            
  X:020BH         SYMBOL        addr
  -------         ENDDO         
  C:64DDH         LINE#         42
  C:64E8H         LINE#         43
  C:64E8H         LINE#         46
  C:6500H         LINE#         48
  C:6503H         LINE#         49
  C:650BH         LINE#         50
  C:6514H         LINE#         51
  C:651CH         LINE#         52
  C:651FH         LINE#         58
  -------         ENDPROC       _WRITEEEP
  -------         PROC          _READEEP
  D:0004H         SYMBOL        index
  -------         DO            
  X:0234H         SYMBOL        val
  D:0007H         SYMBOL        addr
  -------         ENDDO         
  C:68A8H         LINE#         61
  C:68ACH         LINE#         62
  C:68ACH         LINE#         66
  C:68BBH         LINE#         68
  C:68C3H         LINE#         73
  C:68C8H         LINE#         74
  C:68CDH         LINE#         75
  -------         ENDPROC       _READEEP
  -------         PROC          _READI2C
  X:0235H         SYMBOL        addr
  X:0236H         SYMBOL        index
  -------         DO            
  X:0237H         SYMBOL        val
  -------         ENDDO         
  C:6726H         LINE#         77
  C:672EH         LINE#         78
  C:672EH         LINE#         81
BL51 BANKED LINKER/LOCATER V6.22.2.0                                                  08/24/2021  10:37:20  PAGE 32


  C:6731H         LINE#         82
  C:6739H         LINE#         83
  C:6741H         LINE#         84
  C:6744H         LINE#         85
  C:674EH         LINE#         86
  C:6756H         LINE#         87
  C:6759H         LINE#         89
  C:675EH         LINE#         90
  -------         ENDPROC       _READI2C
  -------         PROC          I2CSTART
  C:6A84H         LINE#         106
  C:6A84H         LINE#         107
  C:6A84H         LINE#         108
  C:6A89H         LINE#         109
  C:6A8EH         LINE#         110
  C:6A93H         LINE#         111
  C:6A95H         LINE#         112
  -------         ENDPROC       I2CSTART
  -------         PROC          I2CSTOP
  C:0016H         LINE#         114
  C:0016H         LINE#         115
  C:0016H         LINE#         116
  C:001BH         LINE#         117
  C:0020H         LINE#         118
  C:0022H         LINE#         119
  -------         ENDPROC       I2CSTOP
  -------         PROC          _I2CWRITEDATA
  D:0006H         SYMBOL        value
  C:614AH         LINE#         121
  C:614CH         LINE#         122
  C:614CH         LINE#         124
  C:6159H         LINE#         125
  C:6166H         LINE#         126
  C:6173H         LINE#         127
  C:6180H         LINE#         129
  C:618DH         LINE#         130
  C:619AH         LINE#         131
  C:61A7H         LINE#         132
  C:61B4H         LINE#         135
  C:61B6H         LINE#         136
  C:61B8H         LINE#         137
  C:61BAH         LINE#         138
  C:61BCH         LINE#         140
  C:61BEH         LINE#         141
  C:61C0H         LINE#         142
  C:61C2H         LINE#         143
  C:61C4H         LINE#         144
  -------         ENDPROC       _I2CWRITEDATA
  -------         PROC          I2CREADDATA
  -------         DO            
  D:0004H         SYMBOL        i
  D:0006H         SYMBOL        value
  -------         ENDDO         
  C:675FH         LINE#         146
  C:675FH         LINE#         147
  C:675FH         LINE#         149
  C:6761H         LINE#         151
BL51 BANKED LINKER/LOCATER V6.22.2.0                                                  08/24/2021  10:37:20  PAGE 33


  C:6766H         LINE#         152
  C:6768H         LINE#         154
  C:676BH         LINE#         155
  C:676DH         LINE#         156
  C:6771H         LINE#         157
  C:6777H         LINE#         158
  C:6779H         LINE#         159
  C:6784H         LINE#         160
  C:6787H         LINE#         162
  C:6789H         LINE#         163
  C:678BH         LINE#         164
  C:678DH         LINE#         165
  C:678FH         LINE#         167
  C:6791H         LINE#         169
  -------         ENDPROC       I2CREADDATA
  -------         PROC          _AD5110_I2CWRITEDATA
  D:0006H         SYMBOL        value
  C:60CCH         LINE#         172
  C:60CEH         LINE#         173
  C:60CEH         LINE#         175
  C:60DBH         LINE#         176
  C:60E8H         LINE#         177
  C:60F5H         LINE#         178
  C:6102H         LINE#         180
  C:610FH         LINE#         181
  C:611CH         LINE#         182
  C:6129H         LINE#         183
  C:6136H         LINE#         186
  C:6138H         LINE#         187
  C:613AH         LINE#         188
  C:613CH         LINE#         189
  C:613EH         LINE#         190
  C:6141H         LINE#         191
  C:6143H         LINE#         192
  C:6145H         LINE#         193
  C:6147H         LINE#         194
  C:6149H         LINE#         196
  -------         ENDPROC       _AD5110_I2CWRITEDATA
  -------         PROC          _WRITEAD5110
  D:0002H         SYMBOL        index
  D:0005H         SYMBOL        dat
  -------         DO            
  D:0006H         SYMBOL        addr
  -------         ENDDO         
  C:68EFH         LINE#         229
  C:68F3H         LINE#         230
  C:68F3H         LINE#         233
  C:68F5H         LINE#         235
  C:68F8H         LINE#         236
  C:68FDH         LINE#         237
  C:6902H         LINE#         238
  C:6907H         LINE#         239
  C:690AH         LINE#         245
  -------         ENDPROC       _WRITEAD5110
  -------         ENDMOD        I2C

  -------         MODULE        KEYREMO
BL51 BANKED LINKER/LOCATER V6.22.2.0                                                  08/24/2021  10:37:20  PAGE 34


  C:0000H         SYMBOL        _ICE_DUMMY_
  C:69A7H         PUBLIC        _GetKey
  C:6363H         PUBLIC        Scankey
  -------         PROC          SCANKEY
  C:6363H         LINE#         33
  C:6363H         LINE#         34
  C:6363H         LINE#         36
  C:636BH         LINE#         37
  C:636BH         LINE#         39
  C:637BH         LINE#         40
  C:637BH         LINE#         41
  C:637FH         LINE#         42
  C:6385H         LINE#         43
  C:6387H         LINE#         44
  C:6397H         LINE#         45
  C:6397H         LINE#         46
  C:639BH         LINE#         47
  C:639FH         LINE#         48
  C:63A3H         LINE#         49
  C:63AAH         LINE#         50
  C:63AAH         LINE#         52
  C:63B3H         LINE#         53
  C:63B3H         LINE#         55
  -------         ENDPROC       SCANKEY
  -------         PROC          _GETKEY
  D:0007H         SYMBOL        repeat
  -------         DO            
  B:0021H.1       SYMBOL        ready
  -------         ENDDO         
  C:69A7H         LINE#         60
  C:69A7H         LINE#         61
  C:69A7H         LINE#         65
  C:69ABH         LINE#         66
  C:69ADH         LINE#         68
  C:69B3H         LINE#         69
  C:69B9H         LINE#         70
  C:69BFH         LINE#         72
  C:69C1H         LINE#         73
  -------         ENDPROC       _GETKEY
  -------         ENDMOD        KEYREMO

  -------         MODULE        MAIN
  C:0000H         SYMBOL        _ICE_DUMMY_
  C:510DH         PUBLIC        _Mapping1
  C:5E25H         PUBLIC        _mcuLib_ProtocolSendCmdWithParamNum
  D:00B2H         PUBLIC        P3M1
  C:5283H         PUBLIC        _GetRotateNumber
  D:00E7H         PUBLIC        ISPCR
  D:00E8H         PUBLIC        P4
  X:0106H         PUBLIC        ulongRotateNumber
  C:3376H         PUBLIC        EncorderHandler_TELI
  X:010AH         PUBLIC        PowerFlag
  B:0080H.0       PUBLIC        P0_0
  X:010BH         PUBLIC        LowBatteryFlag
  B:0080H.1       PUBLIC        P0_1
  X:010CH         PUBLIC        UserRange
  B:00B0H.4       PUBLIC        P3_4
BL51 BANKED LINKER/LOCATER V6.22.2.0                                                  08/24/2021  10:37:20  PAGE 35


  B:00B0H.5       PUBLIC        P3_5
  C:6631H         PUBLIC        _SetAD5110Step
  C:4060H         PUBLIC        _MCU_SendCmdToDVR
  X:0112H         PUBLIC        g_stBatteryInfo
  D:00C6H         PUBLIC        ADCV
  X:0118H         PUBLIC        DVRChangeCurrent
  X:0119H         PUBLIC        EncorderLen_Offset
  X:011BH         PUBLIC        EncorderLenint
  C:604AH         PUBLIC        main
  D:00E6H         PUBLIC        SCMD
  X:011CH         PUBLIC        bytBatteryStopCharge
  X:011DH         PUBLIC        g_stDVRInfo
  X:011FH         PUBLIC        PowerOffToOnFlag
  X:0120H         PUBLIC        bytFastEncoderMode
  D:00E3H         PUBLIC        IFADRH
  D:00E5H         PUBLIC        IFMT
  X:0121H         PUBLIC        Power_down_mode
  D:00E4H         PUBLIC        IFADRL
  X:0122H         PUBLIC        bytBatteryStopChargeCount
  X:0123H         PUBLIC        TDecimal1
  X:0127H         PUBLIC        ulongRotateNumberTELI
  X:012BH         PUBLIC        TDecimal2
  X:012FH         PUBLIC        TDecimal3
  X:0133H         PUBLIC        TDecimal4
  X:0137H         PUBLIC        TEncorder1
  X:013BH         PUBLIC        AD5110Range
  X:0141H         PUBLIC        TEncorder2
  X:0145H         PUBLIC        TEncorder3
  X:0149H         PUBLIC        TEncorder4
  C:62AEH         SYMBOL        _?ix1000
  C:65AEH         PUBLIC        main_loop
  C:1915H         PUBLIC        LoadEEPROM
  X:014DH         PUBLIC        EncorderCountPN_offset
  C:68CEH         PUBLIC        enter_isp
  D:00E2H         PUBLIC        IFD
  X:014EH         PUBLIC        EncorderLenfloaat
  X:0152H         PUBLIC        EncorderLen
  C:6ADCH         PUBLIC        GetBatteryVoltage
  C:62B5H         PUBLIC        InitialTimerEvent
  C:6792H         PUBLIC        _isp_write
  C:6AD5H         PUBLIC        GetBatteryBTH
  X:0156H         PUBLIC        EncorderCountPN
  C:0006H         PUBLIC        isp_init
  X:0157H         PUBLIC        Decimal1
  X:015BH         PUBLIC        DebugLevel
  X:015CH         PUBLIC        Decimal2
  X:0160H         PUBLIC        Decimal3
  C:578AH         PUBLIC        WaitPowerOn
  X:0164H         PUBLIC        Decimal4
  X:0168H         PUBLIC        PWR_START_flag
  X:0169H         PUBLIC        Encorder1
  X:016DH         PUBLIC        Encorder2
  D:00C5H         PUBLIC        ADCTL
  X:0171H         PUBLIC        Encorder3
  C:690FH         PUBLIC        _GetADCValue
  X:0175H         PUBLIC        Encorder4
  D:00E8H         PUBLIC        ADCVL
BL51 BANKED LINKER/LOCATER V6.22.2.0                                                  08/24/2021  10:37:20  PAGE 36


  X:0179H         PUBLIC        AD5110_setp
  C:489EH         PUBLIC        SaveRotateNumber
  X:01A2H         PUBLIC        CameraVolt
  C:5C51H         PUBLIC        _mcuLib_ProtocolAppend
  C:37D7H         PUBLIC        EncorderHandler
  -------         PROC          _ISP_WRITE
  D:0001H         SYMBOL        buf
  D:0005H         SYMBOL        addr_high
  X:0209H         SYMBOL        addr_low
  X:020AH         SYMBOL        len
  C:6792H         LINE#         103
  C:6792H         LINE#         104
  C:6792H         LINE#         105
  C:6795H         LINE#         106
  C:6797H         LINE#         108
  C:6797H         LINE#         109
  C:679DH         LINE#         110
  C:67A2H         LINE#         111
  C:67A5H         LINE#         112
  C:67A8H         LINE#         114
  C:67AFH         LINE#         115
  C:67B5H         LINE#         116
  C:67B8H         LINE#         117
  C:67B8H         LINE#         118
  C:67B9H         LINE#         119
  C:67BBH         LINE#         120
  C:67BBH         LINE#         121
  C:67C1H         LINE#         122
  C:67C1H         LINE#         123
  C:67C4H         LINE#         124
  -------         ENDPROC       _ISP_WRITE
  -------         PROC          ISP_INIT
  C:0006H         LINE#         126
  C:0006H         LINE#         127
  C:0006H         LINE#         128
  C:0009H         LINE#         129
  -------         ENDPROC       ISP_INIT
  -------         PROC          ENTER_ISP
  -------         DO            
  X:0204H         SYMBOL        mark
  -------         ENDDO         
  C:68CEH         LINE#         131
  C:68CEH         LINE#         132
  C:68CEH         LINE#         134
  C:68D3H         LINE#         135
  C:68D6H         LINE#         136
  C:68EBH         LINE#         137
  C:68EEH         LINE#         138
  -------         ENDPROC       ENTER_ISP
  C:5C39H         SYMBOL        L?0151
  C:5C49H         SYMBOL        L?0152
  -------         PROC          L?0150
  -------         ENDPROC       L?0150
  C:5C39H         SYMBOL        L?0151
  C:5C49H         SYMBOL        L?0152
  -------         PROC          _MCULIB_PROTOCOLAPPEND
  X:024BH         SYMBOL        pucBuf
BL51 BANKED LINKER/LOCATER V6.22.2.0                                                  08/24/2021  10:37:20  PAGE 37


  X:024EH         SYMBOL        piLen
  X:0251H         SYMBOL        ucByte
  C:5C51H         LINE#         141
  C:5C5CH         LINE#         142
  C:5C6AH         LINE#         143
  C:5C8EH         LINE#         144
  C:5C9EH         LINE#         145
  C:5CA7H         LINE#         146
  C:5CA7H         LINE#         147
  C:5CA9H         LINE#         148
  C:5CD1H         LINE#         149
  C:5CE1H         LINE#         150
  C:5CE1H         LINE#         151
  C:5CE3H         LINE#         152
  -------         ENDPROC       _MCULIB_PROTOCOLAPPEND
  -------         PROC          _MCULIB_PROTOCOLSENDCMDWITHPARAMNUM
  D:0007H         SYMBOL        ucType
  X:0235H         SYMBOL        pucParam
  X:0238H         SYMBOL        ucSize
  -------         DO            
  D:0005H         SYMBOL        ucChecksum
  X:0239H         SYMBOL        pucBuf
  X:0249H         SYMBOL        iLen
  X:024AH         SYMBOL        i
  -------         ENDDO         
  C:5E25H         LINE#         154
  C:5E30H         LINE#         155
  C:5E30H         LINE#         160
  C:5E36H         LINE#         161
  C:5E3CH         LINE#         162
  C:5E3DH         LINE#         163
  C:5E40H         LINE#         164
  C:5E44H         LINE#         165
  C:5E47H         LINE#         167
  C:5E5AH         LINE#         168
  C:5E6DH         LINE#         169
  C:5E70H         LINE#         170
  C:5E78H         LINE#         172
  C:5E8AH         LINE#         174
  C:5E9BH         LINE#         175
  C:5EAAH         LINE#         176
  C:5EB2H         LINE#         179
  C:5EB4H         LINE#         180
  -------         ENDPROC       _MCULIB_PROTOCOLSENDCMDWITHPARAMNUM
  -------         PROC          _MCU_SENDCMDTODVR
  X:0228H         SYMBOL        ucType
  -------         DO            
  X:0229H         SYMBOL        buf
  D:0002H         SYMBOL        val
  X:0230H         SYMBOL        encoder
  -------         ENDDO         
  C:4060H         LINE#         183
  C:4065H         LINE#         184
  C:4065H         LINE#         185
  C:4078H         LINE#         188
  C:40A0H         LINE#         189
  C:40A0H         LINE#         190
BL51 BANKED LINKER/LOCATER V6.22.2.0                                                  08/24/2021  10:37:20  PAGE 38


  C:40A0H         LINE#         191
  C:40ACH         LINE#         192
  C:40B8H         LINE#         193
  C:40C4H         LINE#         194
  C:40D2H         LINE#         195
  C:40D5H         LINE#         197
  C:40D5H         LINE#         202
  C:410CH         LINE#         204
  C:4120H         LINE#         205
  C:4129H         LINE#         207
  C:412EH         LINE#         237
  C:4133H         LINE#         248
  C:4140H         LINE#         250
  C:4143H         LINE#         252
  C:415CH         LINE#         255
  C:41ABH         LINE#         259
  C:41B3H         LINE#         261
  C:41C0H         LINE#         262
  C:41C7H         LINE#         264
  C:41D4H         LINE#         265
  C:41DBH         LINE#         267
  C:41E1H         LINE#         268
  C:41E8H         LINE#         270
  C:41F0H         LINE#         271
  C:41F7H         LINE#         273
  C:41FFH         LINE#         274
  C:4206H         LINE#         276
  C:420CH         LINE#         277
  C:4213H         LINE#         279
  C:421EH         LINE#         280
  C:4225H         LINE#         282
  C:4269H         LINE#         285
  C:4269H         LINE#         286
  C:4270H         LINE#         287
  C:4270H         LINE#         292
  C:427EH         LINE#         293
  C:4281H         LINE#         295
  C:4281H         LINE#         296
  C:428FH         LINE#         297
  C:428FH         LINE#         298
  C:4295H         LINE#         299
  C:429CH         LINE#         303
  C:429CH         LINE#         304
  C:42AAH         LINE#         305
  C:42ADH         LINE#         307
  C:42ADH         LINE#         308
  C:42BBH         LINE#         309
  C:42BEH         LINE#         311
  C:42BEH         LINE#         312
  C:42CCH         LINE#         313
  C:42CFH         LINE#         314
  C:42CFH         LINE#         315
  C:42D7H         LINE#         316
  C:42DCH         LINE#         318
  C:42F0H         LINE#         320
  C:430EH         LINE#         321
  C:4313H         LINE#         322
BL51 BANKED LINKER/LOCATER V6.22.2.0                                                  08/24/2021  10:37:20  PAGE 39


  C:433AH         LINE#         323
  C:4360H         LINE#         324
  C:4386H         LINE#         326
  C:43A3H         LINE#         327
  C:43A8H         LINE#         328
  C:43CEH         LINE#         329
  C:43F3H         LINE#         330
  C:4418H         LINE#         332
  C:4434H         LINE#         333
  C:4439H         LINE#         334
  C:445EH         LINE#         335
  C:4471H         LINE#         344
  C:4482H         LINE#         345
  C:4482H         LINE#         346
  C:4482H         LINE#         347
  C:4482H         LINE#         349
  C:4482H         LINE#         351
  -------         ENDPROC       _MCU_SENDCMDTODVR
  -------         PROC          INITIALTIMEREVENT
  C:62B5H         LINE#         354
  C:62B5H         LINE#         355
  C:62B5H         LINE#         356
  C:62B8H         LINE#         357
  C:62C1H         LINE#         358
  C:62CAH         LINE#         359
  C:62D3H         LINE#         360
  C:62DCH         LINE#         361
  C:62E5H         LINE#         362
  C:62EEH         LINE#         363
  C:62F7H         LINE#         364
  C:6300H         LINE#         366
  C:6309H         LINE#         368
  C:6310H         LINE#         374
  -------         ENDPROC       INITIALTIMEREVENT
  -------         PROC          _MAPPING1
  X:0206H         SYMBOL        fromValue
  X:0208H         SYMBOL        fromRange
  X:020BH         SYMBOL        toValue
  X:020EH         SYMBOL        toRange
  -------         DO            
  X:0211H         SYMBOL        a
  X:0213H         SYMBOL        b
  -------         ENDDO         
  C:510DH         LINE#         376
  C:511EH         LINE#         377
  C:511EH         LINE#         384
  C:5136H         LINE#         385
  C:515CH         LINE#         386
  C:5184H         LINE#         388
  C:5189H         LINE#         390
  C:51BEH         LINE#         391
  C:51C1H         LINE#         392
  C:51C1H         LINE#         393
  C:51E8H         LINE#         394
  C:5210H         LINE#         396
  C:5215H         LINE#         398
  C:5280H         LINE#         399
BL51 BANKED LINKER/LOCATER V6.22.2.0                                                  08/24/2021  10:37:20  PAGE 40


  C:5280H         LINE#         401
  C:5282H         LINE#         403
  -------         ENDPROC       _MAPPING1
  -------         PROC          _SETAD5110STEP
  D:0007H         SYMBOL        newv
  -------         DO            
  X:0204H         SYMBOL        regv
  -------         ENDDO         
  C:6631H         LINE#         405
  C:6631H         LINE#         406
  C:6631H         LINE#         410
  C:6656H         LINE#         411
  -------         ENDPROC       _SETAD5110STEP
  -------         PROC          _GETROTATENUMBER
  D:0003H         SYMBOL        index
  -------         DO            
  X:0200H         SYMBOL        ret
  -------         ENDDO         
  C:5283H         LINE#         415
  C:5285H         LINE#         416
  C:5285H         LINE#         417
  C:528FH         LINE#         419
  C:5297H         LINE#         420
  C:5297H         LINE#         421
  C:52A7H         LINE#         422
  C:52C0H         LINE#         424
  C:52F4H         LINE#         425
  C:530DH         LINE#         427
  C:5325H         LINE#         432
  C:5328H         LINE#         434
  C:5328H         LINE#         435
  C:5339H         LINE#         436
  C:5352H         LINE#         438
  C:5386H         LINE#         439
  C:539FH         LINE#         441
  C:53D3H         LINE#         447
  C:53D3H         LINE#         450
  C:53E1H         LINE#         451
  -------         ENDPROC       _GETROTATENUMBER
  -------         PROC          SAVEROTATENUMBER
  -------         DO            
  X:0200H         SYMBOL        temp
  X:0204H         SYMBOL        val
  -------         ENDDO         
  C:489EH         LINE#         453
  C:489EH         LINE#         454
  C:489EH         LINE#         455
  C:48A8H         LINE#         457
  C:48BCH         LINE#         460
  C:48CDH         LINE#         461
  C:48E6H         LINE#         462
  C:491AH         LINE#         463
  C:4933H         LINE#         464
  C:4967H         LINE#         466
  C:498CH         LINE#         467
  C:498CH         LINE#         469
  C:49A8H         LINE#         470
BL51 BANKED LINKER/LOCATER V6.22.2.0                                                  08/24/2021  10:37:20  PAGE 41


  C:49A8H         LINE#         471
  C:49CAH         LINE#         476
  C:49CAH         LINE#         477
  C:49DDH         LINE#         478
  C:49F6H         LINE#         479
  C:4A09H         LINE#         480
  C:4A22H         LINE#         481
  C:4A35H         LINE#         486
  C:4A35H         LINE#         488
  C:4A49H         LINE#         490
  C:4A5AH         LINE#         491
  C:4A73H         LINE#         492
  C:4AA7H         LINE#         493
  C:4AC0H         LINE#         494
  C:4AF4H         LINE#         496
  C:4B19H         LINE#         497
  C:4B19H         LINE#         499
  C:4B35H         LINE#         500
  C:4B35H         LINE#         501
  C:4B57H         LINE#         508
  C:4B57H         LINE#         509
  C:4B6AH         LINE#         510
  C:4B83H         LINE#         511
  C:4B96H         LINE#         512
  C:4BAFH         LINE#         513
  C:4BC2H         LINE#         518
  C:4BC2H         LINE#         519
  -------         ENDPROC       SAVEROTATENUMBER
  -------         PROC          LOADEEPROM
  C:1915H         LINE#         520
  C:1915H         LINE#         521
  C:1915H         LINE#         522
  C:1921H         LINE#         523
  C:192DH         LINE#         524
  C:1939H         LINE#         525
  C:1945H         LINE#         527
  C:1952H         LINE#         528
  C:1952H         LINE#         529
  C:1955H         LINE#         530
  C:195DH         LINE#         531
  C:195DH         LINE#         533
  C:196AH         LINE#         534
  C:196AH         LINE#         535
  C:196CH         LINE#         536
  C:1973H         LINE#         537
  C:1973H         LINE#         539
  C:1980H         LINE#         540
  C:1980H         LINE#         541
  C:1983H         LINE#         542
  C:198BH         LINE#         543
  C:198BH         LINE#         545
  C:19BEH         LINE#         546
  C:19F1H         LINE#         548
  C:1A24H         LINE#         549
  C:1A57H         LINE#         551
  C:1A8AH         LINE#         552
  C:1ABDH         LINE#         554
BL51 BANKED LINKER/LOCATER V6.22.2.0                                                  08/24/2021  10:37:20  PAGE 42


  C:1AF0H         LINE#         555
  C:1B23H         LINE#         557
  C:1B3DH         LINE#         558
  C:1B3DH         LINE#         559
  C:1B47H         LINE#         560
  C:1B51H         LINE#         561
  C:1B5AH         LINE#         562
  C:1B62H         LINE#         563
  C:1B62H         LINE#         565
  C:1B7CH         LINE#         566
  C:1B7CH         LINE#         567
  C:1B86H         LINE#         568
  C:1B90H         LINE#         569
  C:1B99H         LINE#         570
  C:1BA1H         LINE#         571
  C:1BA1H         LINE#         573
  C:1BBBH         LINE#         574
  C:1BBBH         LINE#         575
  C:1BC5H         LINE#         576
  C:1BCFH         LINE#         577
  C:1BD8H         LINE#         578
  C:1BE0H         LINE#         579
  C:1BE0H         LINE#         581
  C:1BFAH         LINE#         582
  C:1BFAH         LINE#         583
  C:1C04H         LINE#         584
  C:1C0EH         LINE#         585
  C:1C17H         LINE#         586
  C:1C1FH         LINE#         587
  C:1C1FH         LINE#         589
  C:1C52H         LINE#         590
  C:1C85H         LINE#         592
  C:1CB8H         LINE#         593
  C:1CEBH         LINE#         595
  C:1D1EH         LINE#         596
  C:1D51H         LINE#         598
  C:1D84H         LINE#         599
  C:1DB7H         LINE#         601
  C:1DD1H         LINE#         602
  C:1DD1H         LINE#         603
  C:1DDBH         LINE#         604
  C:1DE5H         LINE#         605
  C:1DEEH         LINE#         606
  C:1DF6H         LINE#         607
  C:1DF6H         LINE#         609
  C:1E10H         LINE#         610
  C:1E10H         LINE#         611
  C:1E1AH         LINE#         612
  C:1E24H         LINE#         613
  C:1E2DH         LINE#         614
  C:1E35H         LINE#         615
  C:1E35H         LINE#         617
  C:1E4FH         LINE#         618
  C:1E4FH         LINE#         619
  C:1E59H         LINE#         620
  C:1E63H         LINE#         621
  C:1E6CH         LINE#         622
BL51 BANKED LINKER/LOCATER V6.22.2.0                                                  08/24/2021  10:37:20  PAGE 43


  C:1E74H         LINE#         623
  C:1E74H         LINE#         625
  C:1E8EH         LINE#         626
  C:1E8EH         LINE#         627
  C:1E98H         LINE#         628
  C:1EA2H         LINE#         629
  C:1EABH         LINE#         630
  C:1EB3H         LINE#         631
  C:1EB3H         LINE#         633
  C:1EC4H         LINE#         634
  C:1EDDH         LINE#         635
  C:1F11H         LINE#         636
  C:1F2AH         LINE#         637
  C:1F5EH         LINE#         639
  C:1F7AH         LINE#         640
  C:1F7AH         LINE#         641
  C:1F84H         LINE#         642
  C:1F8CH         LINE#         643
  C:1F94H         LINE#         644
  C:1F9CH         LINE#         648
  C:1F9CH         LINE#         650
  C:1FADH         LINE#         651
  C:1FC6H         LINE#         652
  C:1FFAH         LINE#         653
  C:2013H         LINE#         654
  C:2047H         LINE#         656
  C:2063H         LINE#         657
  C:2063H         LINE#         658
  C:206DH         LINE#         659
  C:2075H         LINE#         660
  C:207DH         LINE#         661
  C:2085H         LINE#         665
  C:2085H         LINE#         668
  C:208FH         LINE#         669
  C:2096H         LINE#         671
  C:209EH         LINE#         672
  C:209EH         LINE#         673
  C:20A4H         LINE#         674
  C:20A4H         LINE#         675
  C:20ACH         LINE#         676
  C:20B2H         LINE#         677
  C:20B2H         LINE#         679
  C:20BAH         LINE#         680
  C:20BAH         LINE#         681
  C:20BAH         LINE#         682
  C:20BAH         LINE#         683
  C:20BAH         LINE#         685
  C:20BCH         LINE#         687
  C:20BCH         LINE#         689
  C:20C4H         LINE#         690
  C:20C4H         LINE#         691
  C:20CCH         LINE#         692
  C:20D2H         LINE#         695
  C:20DAH         LINE#         696
  C:20DFH         LINE#         697
  C:20E1H         LINE#         698
  C:20E9H         LINE#         699
BL51 BANKED LINKER/LOCATER V6.22.2.0                                                  08/24/2021  10:37:20  PAGE 44


  C:20E9H         LINE#         700
  C:20F0H         LINE#         701
  C:20F5H         LINE#         702
  C:20F5H         LINE#         703
  C:20F5H         LINE#         706
  C:2101H         LINE#         708
  C:210AH         LINE#         709
  C:210AH         LINE#         710
  C:210CH         LINE#         711
  C:2113H         LINE#         712
  C:2113H         LINE#         716
  -------         ENDPROC       LOADEEPROM
  -------         PROC          _GETADCVALUE
  D:0007H         SYMBOL        sel
  C:690FH         LINE#         718
  C:690FH         LINE#         719
  C:690FH         LINE#         721
  C:6914H         LINE#         723
  C:6919H         LINE#         725
  C:692EH         LINE#         727
  -------         ENDPROC       _GETADCVALUE
  -------         PROC          GETBATTERYBTH
  -------         DO            
  D:0006H         SYMBOL        max
  -------         ENDDO         
  C:6AD5H         LINE#         729
  C:6AD5H         LINE#         730
  C:6AD5H         LINE#         731
  C:6AD7H         LINE#         732
  -------         ENDPROC       GETBATTERYBTH
  -------         PROC          GETBATTERYVOLTAGE
  -------         DO            
  D:0006H         SYMBOL        max
  -------         ENDDO         
  C:6ADCH         LINE#         740
  C:6ADCH         LINE#         741
  C:6ADCH         LINE#         742
  C:6ADEH         LINE#         743
  -------         ENDPROC       GETBATTERYVOLTAGE
  -------         PROC          ENCORDERHANDLER
  -------         DO            
  X:0200H         SYMBOL        EncorderCountTemp
  X:0202H         SYMBOL        temp_val
  X:0204H         SYMBOL        EncorderParaTemp1
  X:0208H         SYMBOL        EncorderParaTemp2
  X:020CH         SYMBOL        EncorderParaTemp3
  X:0210H         SYMBOL        EncorderParaTemp4
  X:0214H         SYMBOL        EncorderOffset1
  X:0218H         SYMBOL        EncorderOffset2
  X:021CH         SYMBOL        EncorderOffset3
  -------         ENDDO         
  C:37D7H         LINE#         753
  C:37D7H         LINE#         754
  C:37D7H         LINE#         764
  C:37DDH         LINE#         765
  C:37DDH         LINE#         778
  C:380DH         LINE#         779
BL51 BANKED LINKER/LOCATER V6.22.2.0                                                  08/24/2021  10:37:20  PAGE 45


  C:383DH         LINE#         780
  C:386DH         LINE#         781
  C:389DH         LINE#         812
  C:38C6H         LINE#         813
  C:3900H         LINE#         814
  C:393AH         LINE#         823
  C:394CH         LINE#         824
  C:394CH         LINE#         825
  C:3951H         LINE#         826
  C:395DH         LINE#         827
  C:395FH         LINE#         829
  C:395FH         LINE#         830
  C:3965H         LINE#         831
  C:3987H         LINE#         832
  C:3987H         LINE#         853
  C:39A2H         LINE#         854
  C:39A2H         LINE#         865
  C:39E9H         LINE#         870
  C:3A2BH         LINE#         871
  C:3A2BH         LINE#         875
  C:3A2BH         LINE#         876
  C:3A2BH         LINE#         889
  C:3A2EH         LINE#         890
  C:3A47H         LINE#         891
  C:3A47H         LINE#         896
  C:3AA6H         LINE#         907
  C:3AA6H         LINE#         913
  C:3AA6H         LINE#         914
  C:3AA6H         LINE#         923
  C:3AA9H         LINE#         925
  C:3AC2H         LINE#         926
  C:3AC2H         LINE#         930
  C:3B21H         LINE#         937
  C:3B21H         LINE#         941
  C:3B21H         LINE#         942
  C:3B21H         LINE#         951
  C:3B23H         LINE#         980
  C:3B35H         LINE#         981
  C:3B35H         LINE#         985
  C:3B94H         LINE#         993
  C:3BB5H         LINE#         999
  C:3BE1H         LINE#         1003
  C:3C06H         LINE#         1017
  C:3C06H         LINE#         1019
  C:3C08H         LINE#         1025
  C:3C0FH         LINE#         1026
  C:3C0FH         LINE#         1027
  C:3C14H         LINE#         1028
  C:3C19H         LINE#         1029
  C:3C22H         LINE#         1030
  C:3C22H         LINE#         1035
  C:3C22H         LINE#         1037
  -------         ENDPROC       ENCORDERHANDLER
  -------         PROC          ENCORDERHANDLER_TELI
  -------         DO            
  X:0200H         SYMBOL        EncorderCountTemp
  X:0204H         SYMBOL        temp_val
BL51 BANKED LINKER/LOCATER V6.22.2.0                                                  08/24/2021  10:37:20  PAGE 46


  X:0208H         SYMBOL        EncorderCount_T
  X:020CH         SYMBOL        EncorderParaTemp1
  X:0210H         SYMBOL        EncorderParaTemp2
  X:0214H         SYMBOL        EncorderParaTemp3
  X:0218H         SYMBOL        EncorderParaTemp4
  X:021CH         SYMBOL        EncorderOffset1
  X:0220H         SYMBOL        EncorderOffset2
  X:0224H         SYMBOL        EncorderOffset3
  -------         ENDDO         
  C:3376H         LINE#         1039
  C:3376H         LINE#         1040
  C:3376H         LINE#         1053
  C:337CH         LINE#         1054
  C:337CH         LINE#         1055
  C:3390H         LINE#         1070
  C:33C0H         LINE#         1071
  C:33F0H         LINE#         1072
  C:3420H         LINE#         1073
  C:3450H         LINE#         1104
  C:3479H         LINE#         1105
  C:34B3H         LINE#         1106
  C:34EDH         LINE#         1115
  C:34FFH         LINE#         1116
  C:34FFH         LINE#         1117
  C:3504H         LINE#         1118
  C:350BH         LINE#         1119
  C:350DH         LINE#         1121
  C:350DH         LINE#         1122
  C:3513H         LINE#         1123
  C:352AH         LINE#         1124
  C:352AH         LINE#         1146
  C:355EH         LINE#         1147
  C:355EH         LINE#         1160
  C:35ADH         LINE#         1166
  C:35F0H         LINE#         1167
  C:35F0H         LINE#         1171
  C:35F0H         LINE#         1172
  C:35F0H         LINE#         1185
  C:35F3H         LINE#         1186
  C:3623H         LINE#         1187
  C:3623H         LINE#         1193
  C:366FH         LINE#         1204
  C:366FH         LINE#         1210
  C:366FH         LINE#         1211
  C:366FH         LINE#         1220
  C:3672H         LINE#         1222
  C:36A3H         LINE#         1223
  C:36A3H         LINE#         1228
  C:36EFH         LINE#         1235
  C:36EFH         LINE#         1239
  C:36EFH         LINE#         1240
  C:36EFH         LINE#         1249
  C:36F1H         LINE#         1278
  C:370FH         LINE#         1279
  C:370FH         LINE#         1284
  C:375EH         LINE#         1291
  C:3774H         LINE#         1298
BL51 BANKED LINKER/LOCATER V6.22.2.0                                                  08/24/2021  10:37:20  PAGE 47


  C:3795H         LINE#         1302
  C:37BAH         LINE#         1317
  C:37BAH         LINE#         1319
  C:37BCH         LINE#         1333
  C:37C3H         LINE#         1334
  C:37C3H         LINE#         1335
  C:37C8H         LINE#         1336
  C:37CDH         LINE#         1337
  C:37D6H         LINE#         1338
  C:37D6H         LINE#         1343
  C:37D6H         LINE#         1345
  -------         ENDPROC       ENCORDERHANDLER_TELI
  -------         PROC          MAIN_LOOP
  C:65AEH         LINE#         1348
  C:65AEH         LINE#         1349
  C:65AEH         LINE#         1351
  C:65B7H         LINE#         1353
  C:65C2H         LINE#         1354
  C:65CDH         LINE#         1359
  C:65CDH         LINE#         1360
  C:65CDH         LINE#         1369
  C:65D0H         LINE#         1370
  C:65D3H         LINE#         1374
  C:65D6H         LINE#         1375
  C:65D9H         LINE#         1377
  C:65E1H         LINE#         1378
  C:65E6H         LINE#         1380
  C:65E9H         LINE#         1385
  C:65EFH         LINE#         1386
  C:65EFH         LINE#         1388
  C:65EFH         LINE#         1390
  -------         ENDPROC       MAIN_LOOP
  -------         PROC          MAIN
  C:604AH         LINE#         1392
  C:604AH         LINE#         1393
  C:604AH         LINE#         1395
  C:604DH         LINE#         1397
  C:6050H         LINE#         1399
  C:6059H         LINE#         1401
  C:605CH         LINE#         1405
  C:605EH         LINE#         1407
  C:6060H         LINE#         1410
  C:6063H         LINE#         1413
  C:6066H         LINE#         1416
  C:6069H         LINE#         1418
  C:6071H         LINE#         1419
  C:6087H         LINE#         1424
  C:6099H         LINE#         1425
  C:609DH         LINE#         1427
  C:60A7H         LINE#         1428
  C:60AFH         LINE#         1430
  C:60AFH         LINE#         1432
  C:60B5H         LINE#         1433
  C:60BAH         LINE#         1435
  C:60BAH         LINE#         1436
  C:60BCH         LINE#         1439
  C:60BCH         LINE#         1440
BL51 BANKED LINKER/LOCATER V6.22.2.0                                                  08/24/2021  10:37:20  PAGE 48


  C:60C4H         LINE#         1441
  C:60C7H         LINE#         1443
  C:60CAH         LINE#         1444
  -------         ENDPROC       MAIN
  -------         PROC          WAITPOWERON
  C:578AH         LINE#         1447
  C:578AH         LINE#         1448
  C:578AH         LINE#         1450
  C:5793H         LINE#         1451
  C:579BH         LINE#         1453
  C:57A7H         LINE#         1454
  C:57ABH         LINE#         1456
  C:57B2H         LINE#         1457
  C:57B7H         LINE#         1458
  C:57BEH         LINE#         1459
  C:57C3H         LINE#         1462
  C:57C9H         LINE#         1463
  C:57CEH         LINE#         1464
  C:57D3H         LINE#         1468
  C:57D8H         LINE#         1469
  C:57DAH         LINE#         1470
  C:57DEH         LINE#         1473
  C:57E1H         LINE#         1475
  C:57E1H         LINE#         1476
  C:57E1H         LINE#         1484
  C:57E4H         LINE#         1485
  C:57E7H         LINE#         1486
  C:57EAH         LINE#         1488
  C:57F2H         LINE#         1489
  C:57F2H         LINE#         1493
  C:5810H         LINE#         1494
  C:5810H         LINE#         1495
  C:5816H         LINE#         1496
  C:581FH         LINE#         1497
  C:5821H         LINE#         1498
  C:5835H         LINE#         1499
  C:5835H         LINE#         1500
  C:583AH         LINE#         1501
  C:583FH         LINE#         1502
  C:5841H         LINE#         1503
  C:5849H         LINE#         1504
  C:584CH         LINE#         1508
  C:584EH         LINE#         1511
  C:5857H         LINE#         1512
  C:5861H         LINE#         1513
  C:5866H         LINE#         1514
  C:5870H         LINE#         1515
  C:5875H         LINE#         1516
  C:5877H         LINE#         1517
  C:5879H         LINE#         1519
  C:5880H         LINE#         1520
  C:5887H         LINE#         1521
  C:588FH         LINE#         1522
  C:5898H         LINE#         1524
  C:589BH         LINE#         1526
  -------         ENDPROC       WAITPOWERON
  -------         ENDMOD        MAIN
BL51 BANKED LINKER/LOCATER V6.22.2.0                                                  08/24/2021  10:37:20  PAGE 49



  -------         MODULE        MONITOR
  C:0000H         SYMBOL        _ICE_DUMMY_
  X:0252H         PUBLIC        Monitor_I2C
  X:0253H         PUBLIC        MonRdata
  X:0254H         PUBLIC        argc
  X:0255H         PUBLIC        MonWdata
  B:0020H.6       PUBLIC        AccessEnable
  B:0020H.7       PUBLIC        echo
  X:0256H         PUBLIC        monstr
  X:0274H         PUBLIC        MonIndex
  X:0275H         PUBLIC        argv
  B:0021H.0       SYMBOL        indirect
  D:0010H         PUBLIC        MonAddress
  -------         ENDMOD        MONITOR

  -------         MODULE        PRINTF
  C:0000H         SYMBOL        _ICE_DUMMY_
  C:63F1H         PUBLIC        Hex
  D:0099H         PUBLIC        SBUF
  C:28E5H         PUBLIC        _DoPrint
  C:6524H         PUBLIC        _GraphicsPrint
  C:66ADH         PUBLIC        _DEBUG_MESSAGE
  X:02AEH         SYMBOL        _PrintColor
  C:666FH         PUBLIC        _Printf
  C:28DDH         SYMBOL        L?0093
  -------         PROC          L?0092
  -------         ENDPROC       L?0092
  C:28DDH         SYMBOL        L?0093
  -------         PROC          _DOPRINT
  X:0235H         SYMBOL        fmt
  X:0238H         SYMBOL        ap
  -------         DO            
  X:023BH         SYMBOL        ch
  X:023CH         SYMBOL        i
  X:023DH         SYMBOL        value
  B:0021H.1       SYMBOL        fl_zero
  B:0021H.2       SYMBOL        fl_num
  X:0241H         SYMBOL        fl_len
  X:0242H         SYMBOL        cnt
  X:0243H         SYMBOL        mask
  X:0247H         SYMBOL        ptr
  -------         ENDDO         
  C:28E5H         LINE#         39
  C:28F0H         LINE#         40
  C:28F0H         LINE#         48
  C:28FAH         LINE#         54
  C:28FAH         LINE#         58
  C:291AH         LINE#         59
  C:291AH         LINE#         60
  C:292BH         LINE#         61
  C:2935H         LINE#         62
  C:293EH         LINE#         63
  C:293EH         LINE#         64
  C:293EH         LINE#         68
  C:2940H         LINE#         69
  C:2942H         LINE#         70
BL51 BANKED LINKER/LOCATER V6.22.2.0                                                  08/24/2021  10:37:20  PAGE 50


  C:2947H         LINE#         72
  C:295EH         LINE#         74
  C:2963H         LINE#         75
  C:2965H         LINE#         76
  C:297CH         LINE#         77
  C:297CH         LINE#         78
  C:297CH         LINE#         79
  C:297EH         LINE#         80
  C:299AH         LINE#         81
  C:29A4H         LINE#         82
  C:29BBH         LINE#         83
  C:29BBH         LINE#         87
  C:29C1H         LINE#         89
  C:29D5H         LINE#         90
  C:29D5H         LINE#         91
  C:29F4H         LINE#         92
  C:29F4H         LINE#         93
  C:2A11H         LINE#         94
  C:2A11H         LINE#         98
  C:2A3DH         LINE#         100
  C:2A3DH         LINE#         101
  C:2A3DH         LINE#         103
  C:2A50H         LINE#         104
  C:2A50H         LINE#         105
  C:2A70H         LINE#         106
  C:2A85H         LINE#         107
  C:2A87H         LINE#         109
  C:2A87H         LINE#         110
  C:2AACH         LINE#         111
  C:2AC2H         LINE#         112
  C:2AC4H         LINE#         114
  C:2AC4H         LINE#         115
  C:2AC8H         LINE#         116
  C:2AE1H         LINE#         117
  C:2AE1H         LINE#         118
  C:2AE1H         LINE#         120
  C:2AF3H         LINE#         121
  C:2AFBH         LINE#         122
  C:2B18H         LINE#         123
  C:2B18H         LINE#         125
  C:2B21H         LINE#         126
  C:2B40H         LINE#         128
  C:2B5AH         LINE#         129
  C:2B84H         LINE#         130
  C:2B9FH         LINE#         131
  C:2BA7H         LINE#         132
  C:2BA7H         LINE#         134
  C:2BFCH         LINE#         136
  C:2BFCH         LINE#         137
  C:2C23H         LINE#         138
  C:2C4BH         LINE#         139
  C:2C4DH         LINE#         140
  C:2C58H         LINE#         142
  C:2C85H         LINE#         143
  C:2CA2H         LINE#         145
  C:2CBEH         LINE#         146
  C:2CC1H         LINE#         147
BL51 BANKED LINKER/LOCATER V6.22.2.0                                                  08/24/2021  10:37:20  PAGE 51


  C:2CC1H         LINE#         148
  C:2CC1H         LINE#         150
  C:2CC1H         LINE#         151
  C:2CC1H         LINE#         153
  C:2CD1H         LINE#         154
  C:2CEBH         LINE#         155
  C:2D06H         LINE#         156
  C:2D1FH         LINE#         157
  C:2D1FH         LINE#         159
  C:2D2DH         LINE#         161
  C:2D4DH         LINE#         162
  C:2D88H         LINE#         163
  C:2D90H         LINE#         164
  C:2D90H         LINE#         166
  C:2D90H         LINE#         177
  C:2DAEH         LINE#         178
  C:2DC1H         LINE#         179
  C:2DDDH         LINE#         180
  C:2DDDH         LINE#         185
  C:2DDDH         LINE#         186
  C:2DFFH         LINE#         187
  C:2E10H         LINE#         188
  C:2E10H         LINE#         190
  C:2E10H         LINE#         191
  C:2E2FH         LINE#         192
  C:2E32H         LINE#         193
  C:2E32H         LINE#         194
  C:2E32H         LINE#         195
  -------         ENDPROC       _DOPRINT
  -------         PROC          _PRINTF
  X:0207H         SYMBOL        fmt
  -------         DO            
  X:020AH         SYMBOL        ellipsis_40
  X:0232H         SYMBOL        ap
  -------         ENDDO         
  C:666FH         LINE#         202
  C:667AH         LINE#         203
  C:667AH         LINE#         206
  C:6688H         LINE#         207
  C:66A3H         LINE#         208
  C:66ACH         LINE#         209
  -------         ENDPROC       _PRINTF
  -------         PROC          _DEBUG_MESSAGE
  X:0200H         SYMBOL        fmt
  -------         DO            
  X:0203H         SYMBOL        ellipsis_40
  X:022BH         SYMBOL        ap
  -------         ENDDO         
  C:66ADH         LINE#         211
  C:66B8H         LINE#         212
  C:66B8H         LINE#         214
  C:66C6H         LINE#         216
  C:66E1H         LINE#         218
  C:66EAH         LINE#         220
  -------         ENDPROC       _DEBUG_MESSAGE
  -------         PROC          _GRAPHICSPRINT
  X:0206H         SYMBOL        mode
BL51 BANKED LINKER/LOCATER V6.22.2.0                                                  08/24/2021  10:37:20  PAGE 52


  X:0207H         SYMBOL        Message
  -------         DO            
  X:020AH         SYMBOL        ellipsis_40
  X:0232H         SYMBOL        ap
  -------         ENDDO         
  C:6524H         LINE#         280
  C:6532H         LINE#         281
  C:6532H         LINE#         301
  C:6540H         LINE#         302
  C:655BH         LINE#         303
  C:6564H         LINE#         304
  C:6569H         LINE#         307
  -------         ENDPROC       _GRAPHICSPRINT
  -------         ENDMOD        PRINTF

  -------         MODULE        SYSPOWER
  C:0000H         SYMBOL        _ICE_DUMMY_
  D:00B2H         PUBLIC        P3M1
  B:00A0H.0       PUBLIC        P2_0
  B:0080H.2       PUBLIC        P0_2
  B:00A0H.1       PUBLIC        P2_1
  B:0080H.3       PUBLIC        P0_3
  B:00E8H.0       PUBLIC        P4_0
  B:00A0H.2       PUBLIC        P2_2
  B:0080H.4       PUBLIC        P0_4
  C:5FC6H         PUBLIC        SysPowerHandler
  B:00E8H.1       PUBLIC        P4_1
  B:00E8H.2       PUBLIC        P4_2
  B:0080H.6       PUBLIC        P0_6
  B:00A0H.6       PUBLIC        P2_6
  B:00B0H.6       PUBLIC        P3_6
  B:00B0H.7       PUBLIC        P3_7
  C:6850H         PUBLIC        SysPowerInitial
  C:5B5EH         PUBLIC        _UserInterfacePowerSwitch
  C:687CH         PUBLIC        _SysPowerSwitch
  I:0011H         PUBLIC        g_stPowerInfo
  C:4BC3H         PUBLIC        _UserInterfaceBatteryChargeMode
  -------         PROC          SYSPOWERINITIAL
  C:6850H         LINE#         73
  C:6850H         LINE#         74
  C:6850H         LINE#         75
  C:6852H         LINE#         76
  C:6854H         LINE#         77
  C:6856H         LINE#         78
  C:6858H         LINE#         79
  C:685AH         LINE#         80
  C:685CH         LINE#         81
  C:685EH         LINE#         82
  C:6860H         LINE#         83
  C:6862H         LINE#         84
  C:6864H         LINE#         85
  C:6866H         LINE#         86
  C:6868H         LINE#         87
  C:686AH         LINE#         88
  C:686CH         LINE#         90
  C:6873H         LINE#         92
  -------         ENDPROC       SYSPOWERINITIAL
BL51 BANKED LINKER/LOCATER V6.22.2.0                                                  08/24/2021  10:37:20  PAGE 53


  -------         PROC          SYSPOWERHANDLER
  C:5FC6H         LINE#         101
  C:5FC6H         LINE#         102
  C:5FC6H         LINE#         104
  C:5FD7H         LINE#         105
  C:5FD7H         LINE#         106
  C:5FD7H         LINE#         108
  C:5FE5H         LINE#         109
  C:5FE5H         LINE#         110
  C:5FE5H         LINE#         111
  C:5FE7H         LINE#         112
  C:5FE9H         LINE#         114
  C:5FE9H         LINE#         115
  C:5FEBH         LINE#         116
  C:5FEDH         LINE#         118
  C:5FEDH         LINE#         119
  C:5FF2H         LINE#         120
  C:5FF2H         LINE#         122
  C:5FF2H         LINE#         123
  C:5FF2H         LINE#         124
  C:5FF2H         LINE#         125
  C:5FF2H         LINE#         126
  C:5FF2H         LINE#         127
  C:5FF2H         LINE#         128
  C:5FF2H         LINE#         130
  C:5FFAH         LINE#         132
  C:5FFCH         LINE#         134
  C:5FFCH         LINE#         136
  C:600CH         LINE#         137
  C:600CH         LINE#         138
  C:600CH         LINE#         139
  C:600EH         LINE#         140
  C:6010H         LINE#         142
  C:6010H         LINE#         143
  C:6012H         LINE#         144
  C:6014H         LINE#         147
  C:6014H         LINE#         148
  C:6019H         LINE#         149
  C:6019H         LINE#         151
  C:6019H         LINE#         152
  C:6019H         LINE#         153
  C:6019H         LINE#         155
  C:6021H         LINE#         157
  C:6023H         LINE#         159
  C:6023H         LINE#         161
  C:602DH         LINE#         162
  C:602DH         LINE#         163
  C:602DH         LINE#         164
  C:6032H         LINE#         165
  C:6032H         LINE#         167
  C:6032H         LINE#         168
  C:6032H         LINE#         169
  C:6032H         LINE#         171
  C:603AH         LINE#         173
  C:603AH         LINE#         174
  C:603AH         LINE#         175
  C:603AH         LINE#         176
BL51 BANKED LINKER/LOCATER V6.22.2.0                                                  08/24/2021  10:37:20  PAGE 54


  C:603AH         LINE#         179
  C:6049H         LINE#         181
  -------         ENDPROC       SYSPOWERHANDLER
  -------         PROC          _USERINTERFACEBATTERYCHARGEMODE
  X:0204H         SYMBOL        enumSwitch
  C:4BC3H         LINE#         183
  C:4BC8H         LINE#         184
  C:4BC8H         LINE#         186
  C:4BCDH         LINE#         187
  C:4BD2H         LINE#         188
  C:4BD7H         LINE#         189
  C:4BDCH         LINE#         190
  C:4BE1H         LINE#         191
  C:4BE6H         LINE#         193
  C:4C18H         LINE#         194
  C:4C18H         LINE#         195
  C:4C18H         LINE#         196
  C:4C1FH         LINE#         201
  C:4C28H         LINE#         203
  C:4C37H         LINE#         204
  C:4C3AH         LINE#         205
  C:4C44H         LINE#         206
  C:4C44H         LINE#         207
  C:4C50H         LINE#         208
  C:4C53H         LINE#         210
  C:4C53H         LINE#         211
  C:4C59H         LINE#         212
  C:4C5EH         LINE#         213
  C:4C68H         LINE#         214
  C:4C6DH         LINE#         216
  C:4C6DH         LINE#         217
  C:4C6DH         LINE#         218
  C:4C70H         LINE#         219
  C:4C7AH         LINE#         220
  C:4C7AH         LINE#         221
  C:4C84H         LINE#         222
  C:4C89H         LINE#         224
  C:4C8BH         LINE#         225
  C:4C8EH         LINE#         227
  C:4C90H         LINE#         229
  C:4C93H         LINE#         230
  C:4C93H         LINE#         232
  C:4C9BH         LINE#         233
  C:4C9BH         LINE#         237
  C:4C9DH         LINE#         239
  C:4C9FH         LINE#         241
  C:4C9FH         LINE#         242
  C:4CA6H         LINE#         246
  C:4CA6H         LINE#         248
  C:4CAFH         LINE#         251
  C:4CBEH         LINE#         252
  C:4CC3H         LINE#         253
  C:4CCDH         LINE#         254
  C:4CDFH         LINE#         255
  C:4CE4H         LINE#         257
  C:4CE4H         LINE#         259
  C:4CE7H         LINE#         261
BL51 BANKED LINKER/LOCATER V6.22.2.0                                                  08/24/2021  10:37:20  PAGE 55


  C:4CE7H         LINE#         262
  C:4D01H         LINE#         263
  C:4D06H         LINE#         264
  C:4D1AH         LINE#         265
  C:4D1FH         LINE#         267
  C:4D1FH         LINE#         268
  C:4D1FH         LINE#         270
  C:4D1FH         LINE#         271
  C:4D1FH         LINE#         289
  C:4D1FH         LINE#         290
  C:4D1FH         LINE#         292
  C:4D22H         LINE#         293
  C:4D22H         LINE#         296
  C:4D2AH         LINE#         297
  C:4D2AH         LINE#         298
  C:4D2CH         LINE#         303
  C:4D2EH         LINE#         305
  C:4D2EH         LINE#         306
  C:4D35H         LINE#         310
  C:4D35H         LINE#         311
  C:4D3EH         LINE#         314
  C:4D4DH         LINE#         315
  C:4D52H         LINE#         316
  C:4D5CH         LINE#         317
  C:4D6EH         LINE#         318
  C:4D73H         LINE#         320
  C:4D73H         LINE#         321
  C:4D75H         LINE#         323
  C:4D75H         LINE#         324
  C:4D89H         LINE#         325
  C:4D8EH         LINE#         327
  C:4D8EH         LINE#         328
  C:4D90H         LINE#         330
  C:4D90H         LINE#         331
  C:4D90H         LINE#         350
  C:4D90H         LINE#         351
  C:4D90H         LINE#         352
  C:4D93H         LINE#         353
  C:4D93H         LINE#         355
  C:4D9BH         LINE#         356
  C:4D9BH         LINE#         357
  C:4D9DH         LINE#         361
  C:4D9FH         LINE#         364
  C:4D9FH         LINE#         365
  C:4DA6H         LINE#         369
  C:4DA6H         LINE#         371
  C:4DAFH         LINE#         373
  C:4DBEH         LINE#         374
  C:4DC3H         LINE#         375
  C:4DCDH         LINE#         376
  C:4DCDH         LINE#         377
  C:4DDFH         LINE#         378
  C:4DE3H         LINE#         380
  C:4DE5H         LINE#         382
  C:4DE8H         LINE#         384
  C:4DE8H         LINE#         385
  C:4E02H         LINE#         386
BL51 BANKED LINKER/LOCATER V6.22.2.0                                                  08/24/2021  10:37:20  PAGE 56


  C:4E06H         LINE#         387
  C:4E1AH         LINE#         388
  C:4E1EH         LINE#         390
  C:4E1EH         LINE#         391
  C:4E27H         LINE#         393
  C:4E2CH         LINE#         394
  C:4E32H         LINE#         412
  C:4E32H         LINE#         413
  C:4E32H         LINE#         414
  C:4E35H         LINE#         415
  C:4E35H         LINE#         416
  C:4E3CH         LINE#         420
  C:4E45H         LINE#         422
  C:4E54H         LINE#         423
  C:4E5BH         LINE#         424
  C:4E65H         LINE#         425
  C:4E6CH         LINE#         426
  C:4E76H         LINE#         427
  C:4E7DH         LINE#         429
  C:4E7DH         LINE#         430
  C:4E83H         LINE#         431
  C:4E83H         LINE#         432
  C:4E85H         LINE#         433
  C:4E85H         LINE#         438
  C:4E8FH         LINE#         439
  C:4E96H         LINE#         441
  C:4E98H         LINE#         443
  C:4E9EH         LINE#         444
  C:4EA0H         LINE#         446
  C:4EA0H         LINE#         451
  C:4EAAH         LINE#         452
  C:4EAAH         LINE#         453
  C:4EAFH         LINE#         454
  C:4EB6H         LINE#         455
  C:4EB8H         LINE#         457
  C:4EBAH         LINE#         459
  C:4EC1H         LINE#         460
  C:4EC5H         LINE#         462
  C:4ECEH         LINE#         464
  C:4ECEH         LINE#         465
  C:4ECEH         LINE#         467
  -------         ENDPROC       _USERINTERFACEBATTERYCHARGEMODE
  -------         PROC          _USERINTERFACEPOWERSWITCH
  X:0205H         SYMBOL        enumSwitch
  C:5B5EH         LINE#         652
  C:5B63H         LINE#         653
  C:5B63H         LINE#         654
  C:5B74H         LINE#         657
  C:5BA5H         LINE#         658
  C:5BA5H         LINE#         659
  C:5BA5H         LINE#         660
  C:5BA5H         LINE#         661
  C:5BA5H         LINE#         664
  C:5BA7H         LINE#         665
  C:5BA9H         LINE#         666
  C:5BABH         LINE#         667
  C:5BADH         LINE#         668
BL51 BANKED LINKER/LOCATER V6.22.2.0                                                  08/24/2021  10:37:20  PAGE 57


  C:5BAFH         LINE#         669
  C:5BB1H         LINE#         670
  C:5BB8H         LINE#         671
  C:5BBAH         LINE#         673
  C:5BC3H         LINE#         674
  C:5BC9H         LINE#         690
  C:5BCBH         LINE#         691
  C:5BCBH         LINE#         692
  C:5BCDH         LINE#         693
  C:5BCFH         LINE#         694
  C:5BD6H         LINE#         695
  C:5BD8H         LINE#         696
  C:5BDAH         LINE#         698
  C:5BE6H         LINE#         699
  C:5BE6H         LINE#         700
  C:5BEAH         LINE#         701
  C:5BEFH         LINE#         702
  C:5BEFH         LINE#         704
  C:5BF2H         LINE#         705
  C:5BF4H         LINE#         707
  C:5BF4H         LINE#         708
  C:5BF4H         LINE#         709
  C:5BF4H         LINE#         711
  C:5BF6H         LINE#         712
  C:5BF8H         LINE#         713
  C:5BFAH         LINE#         714
  C:5BFCH         LINE#         715
  C:5BFEH         LINE#         716
  C:5C00H         LINE#         717
  C:5C02H         LINE#         718
  C:5C04H         LINE#         719
  C:5C06H         LINE#         720
  C:5C08H         LINE#         725
  C:5C0AH         LINE#         729
  C:5C0CH         LINE#         732
  C:5C13H         LINE#         733
  C:5C1CH         LINE#         734
  C:5C1EH         LINE#         736
  C:5C1EH         LINE#         740
  C:5C20H         LINE#         741
  C:5C22H         LINE#         742
  C:5C24H         LINE#         743
  C:5C26H         LINE#         745
  C:5C28H         LINE#         746
  C:5C2AH         LINE#         751
  C:5C2DH         LINE#         752
  C:5C2DH         LINE#         754
  C:5C2DH         LINE#         756
  C:5C2DH         LINE#         757
  C:5C2DH         LINE#         760
  C:5C36H         LINE#         762
  -------         ENDPROC       _USERINTERFACEPOWERSWITCH
  -------         PROC          _SYSPOWERSWITCH
  X:0200H         SYMBOL        enumSwitch
  C:687CH         LINE#         769
  C:6881H         LINE#         770
  C:6881H         LINE#         773
BL51 BANKED LINKER/LOCATER V6.22.2.0                                                  08/24/2021  10:37:20  PAGE 58


  C:689FH         LINE#         774
  C:689FH         LINE#         775
  C:689FH         LINE#         779
  C:689FH         LINE#         780
  C:689FH         LINE#         781
  C:689FH         LINE#         782
  C:689FH         LINE#         783
  C:689FH         LINE#         784
  C:689FH         LINE#         789
  C:689FH         LINE#         790
  C:689FH         LINE#         791
  C:689FH         LINE#         792
  C:689FH         LINE#         793
  C:689FH         LINE#         794
  C:68A7H         LINE#         797
  C:68A7H         LINE#         799
  C:68A7H         LINE#         800
  C:68A7H         LINE#         801
  C:68A7H         LINE#         803
  -------         ENDPROC       _SYSPOWERSWITCH
  -------         ENDMOD        SYSPOWER

  -------         MODULE        SYSTIMER
  C:0000H         SYMBOL        _ICE_DUMMY_
  X:01A3H         PUBLIC        BATERY_STAT_TEMP
  D:00B2H         PUBLIC        P3M1
  X:01A4H         PUBLIC        BattDetectHighStop_COUNT
  C:6A5FH         PUBLIC        _MCUTimerClrEventValid
  X:01A5H         PUBLIC        BattDetect1_COUNT
  X:01A6H         PUBLIC        STAT1_temp
  X:01A7H         PUBLIC        BattDetect2_COUNT
  X:01A8H         PUBLIC        STAT2_temp
  C:5F41H         PUBLIC        SysTimerHandler
  X:01A9H         PUBLIC        BattDetect3_COUNT
  B:0021H.4       PUBLIC        g_bNotifyTimer0Int
  X:01AAH         PUBLIC        BattDetect4_COUNT
  X:01ABH         PUBLIC        BattDetect5_COUNT
  X:01ACH         PUBLIC        PWM_TEMP
  B:0080H.0       PUBLIC        P0_0
  X:01ADH         PUBLIC        TEMP_LOW_WARN_COUNT
  B:0080H.1       PUBLIC        P0_1
  B:00E8H.2       PUBLIC        P4_2
  C:69DFH         PUBLIC        _MCUTimerDelayXms
  B:00A0H.6       PUBLIC        P2_6
  B:00B0H.7       PUBLIC        P3_7
  X:01AEH         PUBLIC        g_usTimerCounter
  C:6A22H         PUBLIC        _MCUTimerGetEventID
  C:6A4BH         PUBLIC        _MCUTimerGetEventTime
  X:01B0H         PUBLIC        TEMP_HIGH_COUNT
  X:01B1H         PUBLIC        BattDetectStartUp_COUNT
  C:5A80H         PUBLIC        _MCUTimerReactiveTimerEvent
  X:01B2H         PUBLIC        BatteryVoltage
  X:01B4H         PUBLIC        g_stTimerEvent
  X:01F0H         PUBLIC        WDT_Echo_Count
  X:01F1H         PUBLIC        TEMP_HIGH_WARN_COUNT
  X:01F2H         PUBLIC        BatteryBTH
  C:65F0H         PUBLIC        _MCUTimerCancelTimerEvent
BL51 BANKED LINKER/LOCATER V6.22.2.0                                                  08/24/2021  10:37:20  PAGE 59


  C:003EH         PUBLIC        MCUTimerInitialTimerEvent
  C:6A96H         PUBLIC        _MCUTimerCheckEventValid
  X:01F4H         PUBLIC        STAT1_Flag
  X:01F5H         PUBLIC        STAT2_Flag
  X:01F6H         PUBLIC        TEMP_NORMAL_COUNT
  X:01F7H         PUBLIC        TEMP_STAT
  C:59A1H         PUBLIC        _MCUTimerActiveTimerEvent
  C:553DH         PUBLIC        _MCUTimerCheckTimerEvent
  X:01F8H         PUBLIC        BattDetectHigh_COUNT
  C:53E2H         PUBLIC        _UserInterfaceTimerEventProc
  C:0066H         PUBLIC        _SysTimerEventProc
  X:01F9H         PUBLIC        BATERY_STAT
  X:01FAH         PUBLIC        bytBatteryVoltageCheck
  X:01FBH         PUBLIC        BattDetectNoStartUp_COUNT
  X:01FCH         PUBLIC        CHARGE_TEMP_NORMAL
  X:01FDH         PUBLIC        CHARGE_TEMP_ABNORMAL
  X:01FEH         PUBLIC        TEMP_LOW_COUNT
  C:644CH         PUBLIC        MCUTimerGetTimerCounter
  X:01FFH         PUBLIC        BattDetectMin_COUNT
  C:69DBH         SYMBOL        L?0390
  -------         PROC          L?0389
  -------         ENDPROC       L?0389
  C:69DBH         SYMBOL        L?0390
  -------         PROC          _MCUTIMERDELAYXMS
  D:0006H         SYMBOL        usNum
  C:69DFH         LINE#         128
  C:69DFH         LINE#         129
  C:69DFH         LINE#         130
  C:69E3H         LINE#         131
  C:69E3H         LINE#         132
  C:69E5H         LINE#         134
  C:69E5H         LINE#         135
  C:69E5H         LINE#         136
  C:69E8H         LINE#         137
  C:69E8H         LINE#         138
  C:69EAH         LINE#         140
  C:69F3H         LINE#         141
  C:69F3H         LINE#         142
  C:69F3H         LINE#         144
  C:69F3H         LINE#         146
  C:69F3H         LINE#         147
  C:69F3H         LINE#         148
  C:69F3H         LINE#         149
  C:69F3H         LINE#         150
  -------         ENDPROC       _MCUTIMERDELAYXMS
  -------         PROC          _MCUTIMERGETEVENTTIME
  D:0007H         SYMBOL        ucEventIndex
  C:6A4BH         LINE#         157
  C:6A4BH         LINE#         158
  C:6A4BH         LINE#         159
  C:6A5EH         LINE#         160
  -------         ENDPROC       _MCUTIMERGETEVENTTIME
  -------         PROC          _MCUTIMERGETEVENTID
  D:0007H         SYMBOL        ucEventIndex
  C:6A22H         LINE#         167
  C:6A22H         LINE#         168
  C:6A22H         LINE#         169
BL51 BANKED LINKER/LOCATER V6.22.2.0                                                  08/24/2021  10:37:20  PAGE 60


  C:6A36H         LINE#         170
  -------         ENDPROC       _MCUTIMERGETEVENTID
  -------         PROC          _MCUTIMERCLREVENTVALID
  D:0007H         SYMBOL        ucEventIndex
  C:6A5FH         LINE#         179
  C:6A5FH         LINE#         180
  C:6A5FH         LINE#         181
  C:6A71H         LINE#         182
  -------         ENDPROC       _MCUTIMERCLREVENTVALID
  -------         PROC          _MCUTIMERCHECKEVENTVALID
  D:0007H         SYMBOL        ucEventIndex
  C:6A96H         LINE#         189
  C:6A96H         LINE#         190
  C:6A96H         LINE#         191
  C:6AA6H         LINE#         192
  -------         ENDPROC       _MCUTIMERCHECKEVENTVALID
  -------         PROC          MCUTIMERGETTIMERCOUNTER
  -------         DO            
  X:0231H         SYMBOL        usPresentTime
  -------         ENDDO         
  C:644CH         LINE#         199
  C:644CH         LINE#         200
  C:644CH         LINE#         201
  C:645BH         LINE#         205
  C:647EH         LINE#         206
  C:647EH         LINE#         207
  C:648DH         LINE#         208
  C:648DH         LINE#         210
  C:6495H         LINE#         211
  -------         ENDPROC       MCUTIMERGETTIMERCOUNTER
  -------         PROC          _MCUTIMERCHECKTIMEREVENT
  X:022CH         SYMBOL        usTime
  -------         DO            
  X:022EH         SYMBOL        ucTimerEventCnt
  X:022FH         SYMBOL        usPresentTime
  -------         ENDDO         
  C:553DH         LINE#         217
  C:5545H         LINE#         218
  C:5545H         LINE#         219
  C:5548H         LINE#         220
  C:554CH         LINE#         222
  C:5557H         LINE#         224
  C:556EH         LINE#         225
  C:556EH         LINE#         226
  C:5578H         LINE#         227
  C:5578H         LINE#         229
  C:55BAH         LINE#         231
  C:55BAH         LINE#         232
  C:55C1H         LINE#         235
  C:55D6H         LINE#         236
  C:55D6H         LINE#         237
  C:55EBH         LINE#         238
  C:55EBH         LINE#         239
  C:5611H         LINE#         240
  C:5611H         LINE#         241
  C:563BH         LINE#         242
  C:563DH         LINE#         244
BL51 BANKED LINKER/LOCATER V6.22.2.0                                                  08/24/2021  10:37:20  PAGE 61


  C:563DH         LINE#         245
  C:5652H         LINE#         246
  C:5652H         LINE#         247
  C:5652H         LINE#         248
  C:565BH         LINE#         250
  C:5662H         LINE#         251
  C:5662H         LINE#         253
  C:566AH         LINE#         254
  -------         ENDPROC       _MCUTIMERCHECKTIMEREVENT
  -------         PROC          MCUTIMERINITIALTIMEREVENT
  -------         DO            
  D:0007H         SYMBOL        ucTimerEventCnt
  -------         ENDDO         
  C:003EH         LINE#         261
  C:003EH         LINE#         262
  C:003EH         LINE#         263
  C:0040H         LINE#         265
  C:004AH         LINE#         266
  C:004AH         LINE#         267
  C:005CH         LINE#         268
  C:005FH         LINE#         271
  -------         ENDPROC       MCUTIMERINITIALTIMEREVENT
  C:599DH         SYMBOL        L?0388
  -------         PROC          L?0387
  -------         ENDPROC       L?0387
  C:599DH         SYMBOL        L?0388
  -------         PROC          _MCUTIMERACTIVETIMEREVENT
  X:0228H         SYMBOL        usTime
  X:022AH         SYMBOL        ucEventID
  -------         DO            
  X:022BH         SYMBOL        ucEventIndex
  -------         ENDDO         
  C:59A1H         LINE#         279
  C:59ACH         LINE#         280
  C:59ACH         LINE#         281
  C:59AFH         LINE#         284
  C:59BEH         LINE#         285
  C:59BEH         LINE#         286
  C:59D4H         LINE#         287
  C:59D4H         LINE#         288
  C:59E4H         LINE#         289
  C:59E4H         LINE#         291
  C:59E4H         LINE#         292
  C:59E4H         LINE#         293
  C:59ECH         LINE#         296
  C:5A02H         LINE#         297
  C:5A02H         LINE#         298
  C:5A16H         LINE#         299
  C:5A16H         LINE#         300
  C:5A2CH         LINE#         301
  C:5A48H         LINE#         302
  C:5A76H         LINE#         304
  C:5A76H         LINE#         305
  C:5A7FH         LINE#         308
  -------         ENDPROC       _MCUTIMERACTIVETIMEREVENT
  -------         PROC          _MCUTIMERCANCELTIMEREVENT
  D:0007H         SYMBOL        ucEventID
BL51 BANKED LINKER/LOCATER V6.22.2.0                                                  08/24/2021  10:37:20  PAGE 62


  -------         DO            
  D:0006H         SYMBOL        ucEventIndex
  -------         ENDDO         
  C:65F0H         LINE#         315
  C:65F0H         LINE#         316
  C:65F0H         LINE#         317
  C:65F2H         LINE#         320
  C:65FCH         LINE#         321
  C:65FCH         LINE#         322
  C:6612H         LINE#         323
  C:6612H         LINE#         324
  C:661AH         LINE#         325
  C:661AH         LINE#         326
  C:662DH         LINE#         328
  C:662DH         LINE#         329
  C:662DH         LINE#         330
  C:6630H         LINE#         331
  -------         ENDPROC       _MCUTIMERCANCELTIMEREVENT
  -------         PROC          _MCUTIMERREACTIVETIMEREVENT
  X:0201H         SYMBOL        usTime
  X:0203H         SYMBOL        ucEventID
  -------         DO            
  X:0204H         SYMBOL        ucEventIndex
  -------         ENDDO         
  C:5A80H         LINE#         340
  C:5A8BH         LINE#         341
  C:5A8BH         LINE#         342
  C:5A8EH         LINE#         345
  C:5A9DH         LINE#         346
  C:5A9DH         LINE#         347
  C:5AB3H         LINE#         348
  C:5AB3H         LINE#         349
  C:5AC0H         LINE#         350
  C:5AC0H         LINE#         351
  C:5AC2H         LINE#         353
  C:5AC2H         LINE#         354
  C:5AC2H         LINE#         355
  C:5ACAH         LINE#         358
  C:5AE0H         LINE#         359
  C:5AE0H         LINE#         360
  C:5AF4H         LINE#         361
  C:5AF4H         LINE#         362
  C:5B0AH         LINE#         363
  C:5B26H         LINE#         364
  C:5B54H         LINE#         366
  C:5B54H         LINE#         367
  C:5B5DH         LINE#         368
  -------         ENDPROC       _MCUTIMERREACTIVETIMEREVENT
  -------         PROC          _USERINTERFACETIMEREVENTPROC
  D:0007H         SYMBOL        ucEventID
  C:53E2H         LINE#         371
  C:53E2H         LINE#         372
  C:53E2H         LINE#         374
  C:542AH         LINE#         375
  C:542AH         LINE#         377
  C:542AH         LINE#         378
  C:542AH         LINE#         379
BL51 BANKED LINKER/LOCATER V6.22.2.0                                                  08/24/2021  10:37:20  PAGE 63


  C:542AH         LINE#         383
  C:542CH         LINE#         385
  C:542CH         LINE#         386
  C:542CH         LINE#         387
  C:542CH         LINE#         391
  C:542CH         LINE#         392
  C:5434H         LINE#         394
  C:5440H         LINE#         398
  C:5440H         LINE#         399
  C:5440H         LINE#         400
  C:5442H         LINE#         404
  C:5444H         LINE#         405
  C:5444H         LINE#         406
  C:5446H         LINE#         410
  C:5448H         LINE#         411
  C:5448H         LINE#         415
  C:5450H         LINE#         416
  C:5450H         LINE#         417
  C:5457H         LINE#         418
  C:545FH         LINE#         419
  C:5467H         LINE#         420
  C:546AH         LINE#         421
  C:546CH         LINE#         423
  C:546CH         LINE#         424
  C:5474H         LINE#         425
  C:547CH         LINE#         426
  C:5484H         LINE#         427
  C:548EH         LINE#         428
  C:548EH         LINE#         429
  C:548FH         LINE#         430
  C:548FH         LINE#         432
  C:549EH         LINE#         433
  C:549EH         LINE#         434
  C:54A3H         LINE#         438
  C:54A3H         LINE#         446
  C:54A3H         LINE#         448
  C:54A3H         LINE#         450
  C:54B2H         LINE#         451
  C:54B2H         LINE#         452
  C:54BAH         LINE#         453
  C:54BEH         LINE#         457
  C:54BEH         LINE#         458
  C:54BFH         LINE#         460
  C:54BFH         LINE#         461
  C:54C9H         LINE#         462
  C:54D3H         LINE#         463
  C:54D8H         LINE#         464
  C:54E2H         LINE#         465
  C:54E7H         LINE#         466
  C:54EDH         LINE#         467
  C:54F1H         LINE#         472
  C:54F2H         LINE#         474
  C:54F2H         LINE#         478
  C:54FFH         LINE#         479
  C:54FFH         LINE#         480
  C:5503H         LINE#         481
  C:5506H         LINE#         482
BL51 BANKED LINKER/LOCATER V6.22.2.0                                                  08/24/2021  10:37:20  PAGE 64


  C:550BH         LINE#         483
  C:5514H         LINE#         485
  C:5517H         LINE#         486
  C:5518H         LINE#         488
  C:5518H         LINE#         489
  C:551DH         LINE#         490
  C:551DH         LINE#         491
  C:551DH         LINE#         493
  C:551DH         LINE#         497
  C:5524H         LINE#         498
  C:5529H         LINE#         499
  C:5532H         LINE#         500
  C:5532H         LINE#         502
  C:5532H         LINE#         506
  C:5535H         LINE#         507
  C:5535H         LINE#         509
  C:5535H         LINE#         513
  C:5535H         LINE#         515
  C:5535H         LINE#         516
  C:5537H         LINE#         520
  C:553CH         LINE#         521
  C:553CH         LINE#         523
  C:553CH         LINE#         527
  C:553CH         LINE#         535
  C:553CH         LINE#         538
  C:553CH         LINE#         540
  -------         ENDPROC       _USERINTERFACETIMEREVENTPROC
  -------         PROC          SYSTIMERHANDLER
  -------         DO            
  X:0200H         SYMBOL        ucTimerEventIndex
  X:0201H         SYMBOL        ucTimerEventID
  X:0202H         SYMBOL        usPresentTime
  -------         ENDDO         
  C:5F41H         LINE#         547
  C:5F41H         LINE#         548
  C:5F41H         LINE#         549
  C:5F46H         LINE#         550
  C:5F48H         LINE#         551
  C:5F4CH         LINE#         553
  C:5F5DH         LINE#         554
  C:5F5DH         LINE#         555
  C:5F68H         LINE#         557
  C:5F72H         LINE#         558
  C:5F72H         LINE#         559
  C:5F72H         LINE#         560
  C:5F72H         LINE#         562
  C:5F87H         LINE#         563
  C:5F87H         LINE#         564
  C:5F8FH         LINE#         567
  C:5F9CH         LINE#         569
  C:5FA5H         LINE#         570
  C:5FA5H         LINE#         571
  C:5FAAH         LINE#         573
  C:5FACH         LINE#         574
  C:5FACH         LINE#         576
  C:5FBAH         LINE#         577
  C:5FBAH         LINE#         578
BL51 BANKED LINKER/LOCATER V6.22.2.0                                                  08/24/2021  10:37:20  PAGE 65


  C:5FBDH         LINE#         580
  C:5FBDH         LINE#         581
  C:5FBDH         LINE#         584
  C:5FBDH         LINE#         585
  C:5FC5H         LINE#         587
  -------         ENDPROC       SYSTIMERHANDLER
  -------         PROC          _SYSTIMEREVENTPROC
  D:0007H         SYMBOL        enumEventID
  C:0066H         LINE#         594
  C:0066H         LINE#         595
  C:0066H         LINE#         597
  C:00E5H         LINE#         598
  C:00E5H         LINE#         599
  C:00E5H         LINE#         600
  C:00E7H         LINE#         601
  C:00E9H         LINE#         603
  C:00E9H         LINE#         604
  C:00EBH         LINE#         605
  C:00EDH         LINE#         607
  C:00EDH         LINE#         608
  C:00EFH         LINE#         609
  C:00F1H         LINE#         611
  C:00F1H         LINE#         612
  C:00F6H         LINE#         613
  C:00F6H         LINE#         615
  C:00F6H         LINE#         616
  C:00FBH         LINE#         617
  C:00FFH         LINE#         618
  C:0102H         LINE#         620
  C:0102H         LINE#         621
  C:0107H         LINE#         622
  C:0109H         LINE#         623
  C:010CH         LINE#         625
  C:010CH         LINE#         626
  C:0111H         LINE#         627
  C:0113H         LINE#         629
  C:0116H         LINE#         631
  C:0116H         LINE#         632
  C:011BH         LINE#         633
  C:011DH         LINE#         635
  C:0120H         LINE#         637
  C:0120H         LINE#         638
  C:0125H         LINE#         639
  C:0127H         LINE#         640
  C:012AH         LINE#         641
  C:012AH         LINE#         643
  C:012AH         LINE#         644
  C:012FH         LINE#         645
  C:0131H         LINE#         646
  C:0134H         LINE#         647
  C:0134H         LINE#         648
  C:0139H         LINE#         649
  C:013EH         LINE#         650
  C:0141H         LINE#         651
  C:0146H         LINE#         652
  C:0149H         LINE#         654
  C:014EH         LINE#         655
BL51 BANKED LINKER/LOCATER V6.22.2.0                                                  08/24/2021  10:37:20  PAGE 66


  C:0151H         LINE#         656
  C:0156H         LINE#         657
  C:0159H         LINE#         659
  C:015EH         LINE#         660
  C:0161H         LINE#         661
  C:0166H         LINE#         662
  C:0169H         LINE#         664
  C:0169H         LINE#         665
  C:016CH         LINE#         667
  C:016CH         LINE#         669
  C:0174H         LINE#         670
  C:0174H         LINE#         672
  C:0180H         LINE#         673
  C:0180H         LINE#         675
  C:0187H         LINE#         676
  C:0187H         LINE#         681
  C:018AH         LINE#         682
  C:018FH         LINE#         683
  C:018FH         LINE#         685
  C:0196H         LINE#         686
  C:0196H         LINE#         687
  C:0196H         LINE#         688
  C:0196H         LINE#         692
  C:0196H         LINE#         694
  C:0196H         LINE#         696
  C:0198H         LINE#         698
  C:0198H         LINE#         699
  C:01A4H         LINE#         700
  C:01A4H         LINE#         701
  C:01ABH         LINE#         702
  C:01ABH         LINE#         703
  C:01AEH         LINE#         704
  C:01B3H         LINE#         708
  C:01B3H         LINE#         710
  C:01BAH         LINE#         711
  C:01BAH         LINE#         715
  C:01BDH         LINE#         716
  C:01C2H         LINE#         717
  C:01C2H         LINE#         718
  C:01C2H         LINE#         719
  C:01C2H         LINE#         721
  C:01C4H         LINE#         722
  C:01C7H         LINE#         723
  C:01C7H         LINE#         725
  C:01CEH         LINE#         726
  C:01D3H         LINE#         728
  C:01D5H         LINE#         730
  C:01D8H         LINE#         731
  C:01D8H         LINE#         735
  C:01DFH         LINE#         736
  C:01E0H         LINE#         737
  C:01E0H         LINE#         740
  C:01EBH         LINE#         742
  C:01F6H         LINE#         745
  C:0206H         LINE#         746
  C:020FH         LINE#         747
  C:0221H         LINE#         748
BL51 BANKED LINKER/LOCATER V6.22.2.0                                                  08/24/2021  10:37:20  PAGE 67


  C:022AH         LINE#         749
  C:023CH         LINE#         750
  C:0245H         LINE#         751
  C:0257H         LINE#         752
  C:0260H         LINE#         753
  C:0272H         LINE#         754
  C:027AH         LINE#         755
  C:028CH         LINE#         756
  C:0294H         LINE#         757
  C:02A6H         LINE#         758
  C:02ADH         LINE#         759
  C:02C7H         LINE#         760
  C:02C9H         LINE#         761
  C:02E8H         LINE#         762
  C:02F0H         LINE#         764
  C:02F6H         LINE#         766
  C:0305H         LINE#         768
  C:0314H         LINE#         771
  C:032CH         LINE#         772
  C:0334H         LINE#         773
  C:0346H         LINE#         774
  C:034EH         LINE#         775
  C:0360H         LINE#         776
  C:0362H         LINE#         777
  C:0374H         LINE#         778
  C:037CH         LINE#         779
  C:038EH         LINE#         780
  C:0396H         LINE#         781
  C:0396H         LINE#         782
  C:039DH         LINE#         783
  C:03A2H         LINE#         784
  C:03A8H         LINE#         785
  C:03A8H         LINE#         787
  C:03B2H         LINE#         788
  C:03B8H         LINE#         790
  C:03C7H         LINE#         792
  C:03CFH         LINE#         793
  C:03D8H         LINE#         794
  C:03DAH         LINE#         796
  C:03E2H         LINE#         797
  C:03EEH         LINE#         798
  C:03F0H         LINE#         810
  C:03F1H         LINE#         812
  C:03F1H         LINE#         818
  C:03F8H         LINE#         820
  C:03FEH         LINE#         821
  C:0403H         LINE#         822
  C:0408H         LINE#         823
  C:040EH         LINE#         824
  C:0411H         LINE#         825
  C:0411H         LINE#         831
  C:0416H         LINE#         832
  C:041FH         LINE#         833
  C:0427H         LINE#         834
  C:0427H         LINE#         835
  C:042CH         LINE#         836
  C:0435H         LINE#         837
BL51 BANKED LINKER/LOCATER V6.22.2.0                                                  08/24/2021  10:37:20  PAGE 68


  C:0435H         LINE#         838
  C:043BH         LINE#         839
  C:043EH         LINE#         841
  C:043EH         LINE#         846
  C:044EH         LINE#         847
  C:0450H         LINE#         848
  C:045EH         LINE#         849
  C:0469H         LINE#         857
  C:0479H         LINE#         868
  C:0479H         LINE#         869
  C:0485H         LINE#         870
  C:0485H         LINE#         871
  C:048AH         LINE#         872
  C:048EH         LINE#         873
  C:0492H         LINE#         874
  C:0494H         LINE#         875
  C:0496H         LINE#         876
  C:049AH         LINE#         877
  C:049EH         LINE#         878
  C:04A2H         LINE#         879
  C:04A6H         LINE#         880
  C:04AAH         LINE#         881
  C:04AAH         LINE#         885
  C:04B3H         LINE#         886
  C:04B3H         LINE#         887
  C:04B8H         LINE#         888
  C:04BCH         LINE#         889
  C:04C0H         LINE#         890
  C:04C2H         LINE#         891
  C:04C4H         LINE#         892
  C:04CAH         LINE#         893
  C:04CBH         LINE#         894
  C:04CBH         LINE#         895
  C:04CBH         LINE#         896
  C:04CEH         LINE#         897
  C:04E7H         LINE#         898
  C:04E7H         LINE#         900
  C:04ECH         LINE#         901
  C:04F0H         LINE#         902
  C:04F4H         LINE#         903
  C:04F6H         LINE#         904
  C:04F8H         LINE#         905
  C:04FCH         LINE#         906
  C:0500H         LINE#         907
  C:0504H         LINE#         908
  C:050AH         LINE#         909
  C:050DH         LINE#         910
  C:0526H         LINE#         911
  C:0526H         LINE#         913
  C:052CH         LINE#         914
  C:0531H         LINE#         915
  C:0535H         LINE#         916
  C:0537H         LINE#         917
  C:0539H         LINE#         918
  C:053DH         LINE#         919
  C:053DH         LINE#         920
  C:053DH         LINE#         921
BL51 BANKED LINKER/LOCATER V6.22.2.0                                                  08/24/2021  10:37:20  PAGE 69


  C:053DH         LINE#         922
  C:053FH         LINE#         923
  C:0551H         LINE#         924
  C:0551H         LINE#         926
  C:0556H         LINE#         927
  C:055CH         LINE#         928
  C:0561H         LINE#         929
  C:0563H         LINE#         930
  C:0565H         LINE#         931
  C:0569H         LINE#         932
  C:056CH         LINE#         933
  C:056CH         LINE#         935
  C:056FH         LINE#         936
  C:0581H         LINE#         937
  C:0581H         LINE#         939
  C:0586H         LINE#         940
  C:058AH         LINE#         941
  C:0590H         LINE#         942
  C:0593H         LINE#         943
  C:0595H         LINE#         944
  C:0599H         LINE#         945
  C:059DH         LINE#         946
  C:05A0H         LINE#         947
  C:05A0H         LINE#         949
  C:05A3H         LINE#         950
  C:05B5H         LINE#         951
  C:05B5H         LINE#         953
  C:05BAH         LINE#         954
  C:05BEH         LINE#         955
  C:05C2H         LINE#         956
  C:05C6H         LINE#         957
  C:05C9H         LINE#         958
  C:05CDH         LINE#         959
  C:05D1H         LINE#         960
  C:05D4H         LINE#         961
  C:05D4H         LINE#         963
  C:05D7H         LINE#         964
  C:05E9H         LINE#         965
  C:05E9H         LINE#         967
  C:05EEH         LINE#         968
  C:05F2H         LINE#         969
  C:05F6H         LINE#         970
  C:05F8H         LINE#         971
  C:05FCH         LINE#         972
  C:0601H         LINE#         973
  C:0605H         LINE#         974
  C:0608H         LINE#         975
  C:0608H         LINE#         978
  C:060AH         LINE#         979
  C:0624H         LINE#         980
  C:0624H         LINE#         981
  C:0628H         LINE#         982
  C:062CH         LINE#         983
  C:0630H         LINE#         984
  C:0632H         LINE#         985
  C:0634H         LINE#         986
  C:0638H         LINE#         987
BL51 BANKED LINKER/LOCATER V6.22.2.0                                                  08/24/2021  10:37:20  PAGE 70


  C:063EH         LINE#         988
  C:0642H         LINE#         989
  C:0642H         LINE#         991
  C:0644H         LINE#         992
  C:0663H         LINE#         993
  C:0663H         LINE#         994
  C:0667H         LINE#         995
  C:066BH         LINE#         996
  C:066FH         LINE#         997
  C:0671H         LINE#         998
  C:0673H         LINE#         999
  C:0677H         LINE#         1000
  C:067DH         LINE#         1001
  C:0682H         LINE#         1002
  C:0682H         LINE#         1004
  C:0684H         LINE#         1006
  C:0684H         LINE#         1007
  C:0689H         LINE#         1008
  C:068DH         LINE#         1009
  C:0691H         LINE#         1010
  C:0693H         LINE#         1011
  C:0695H         LINE#         1012
  C:0699H         LINE#         1013
  C:069DH         LINE#         1014
  C:06A3H         LINE#         1015
  C:06A8H         LINE#         1016
  C:06A8H         LINE#         1018
  C:06B7H         LINE#         1019
  C:06BFH         LINE#         1021
  C:06C4H         LINE#         1023
  C:06CCH         LINE#         1024
  C:06CCH         LINE#         1025
  C:06D2H         LINE#         1026
  C:06D7H         LINE#         1027
  C:06D7H         LINE#         1028
  C:06DFH         LINE#         1029
  C:06DFH         LINE#         1030
  C:06E5H         LINE#         1031
  C:06EAH         LINE#         1032
  C:06EAH         LINE#         1033
  C:06F2H         LINE#         1034
  C:06F2H         LINE#         1035
  C:06F8H         LINE#         1036
  C:06FDH         LINE#         1037
  C:06FDH         LINE#         1038
  C:0705H         LINE#         1039
  C:0705H         LINE#         1040
  C:070AH         LINE#         1041
  C:070FH         LINE#         1042
  C:070FH         LINE#         1043
  C:0717H         LINE#         1044
  C:0717H         LINE#         1045
  C:071BH         LINE#         1046
  C:071FH         LINE#         1047
  C:071FH         LINE#         1049
  C:0727H         LINE#         1050
  C:0727H         LINE#         1051
BL51 BANKED LINKER/LOCATER V6.22.2.0                                                  08/24/2021  10:37:20  PAGE 71


  C:072DH         LINE#         1052
  C:0732H         LINE#         1053
  C:0732H         LINE#         1055
  C:073AH         LINE#         1056
  C:073AH         LINE#         1057
  C:073EH         LINE#         1058
  C:0743H         LINE#         1059
  C:0743H         LINE#         1061
  C:074BH         LINE#         1062
  C:074BH         LINE#         1063
  C:0751H         LINE#         1064
  C:0756H         LINE#         1065
  C:0756H         LINE#         1067
  C:075EH         LINE#         1068
  C:075EH         LINE#         1069
  C:0762H         LINE#         1070
  C:0767H         LINE#         1071
  C:0767H         LINE#         1073
  C:076FH         LINE#         1074
  C:076FH         LINE#         1075
  C:0775H         LINE#         1076
  C:077AH         LINE#         1077
  C:077AH         LINE#         1079
  C:0786H         LINE#         1080
  C:0786H         LINE#         1081
  C:0788H         LINE#         1082
  C:0791H         LINE#         1083
  C:0791H         LINE#         1085
  C:07B1H         LINE#         1087
  C:07B1H         LINE#         1088
  C:07B6H         LINE#         1090
  C:07C1H         LINE#         1091
  C:07C8H         LINE#         1097
  C:07D1H         LINE#         1098
  C:07D1H         LINE#         1100
  C:07D9H         LINE#         1101
  C:07D9H         LINE#         1102
  C:07E5H         LINE#         1103
  C:07E5H         LINE#         1107
  C:07E9H         LINE#         1108
  C:07F2H         LINE#         1110
  C:07FCH         LINE#         1111
  C:0804H         LINE#         1112
  C:0804H         LINE#         1114
  C:0809H         LINE#         1115
  C:0809H         LINE#         1117
  C:0818H         LINE#         1118
  C:0818H         LINE#         1123
  C:0826H         LINE#         1124
  C:082FH         LINE#         1126
  C:0835H         LINE#         1163
  C:0838H         LINE#         1165
  C:0838H         LINE#         1170
  C:0844H         LINE#         1171
  C:0844H         LINE#         1172
  C:084CH         LINE#         1179
  C:084DH         LINE#         1188
BL51 BANKED LINKER/LOCATER V6.22.2.0                                                  08/24/2021  10:37:20  PAGE 72


  C:0859H         LINE#         1189
  C:0862H         LINE#         1192
  C:0862H         LINE#         1193
  C:086DH         LINE#         1194
  C:086DH         LINE#         1195
  C:0881H         LINE#         1196
  C:0881H         LINE#         1197
  C:0887H         LINE#         1198
  C:088FH         LINE#         1199
  C:088FH         LINE#         1201
  C:088FH         LINE#         1205
  C:0895H         LINE#         1206
  C:0895H         LINE#         1212
  C:0898H         LINE#         1214
  C:089EH         LINE#         1216
  C:089EH         LINE#         1218
  C:08A1H         LINE#         1219
  C:08A1H         LINE#         1220
  C:08ACH         LINE#         1221
  C:08B1H         LINE#         1222
  C:08B4H         LINE#         1223
  C:08B4H         LINE#         1227
  C:08BFH         LINE#         1239
  C:08D2H         LINE#         1240
  C:08D2H         LINE#         1241
  C:08D7H         LINE#         1242
  C:08DBH         LINE#         1243
  C:08DFH         LINE#         1244
  C:08E5H         LINE#         1245
  C:08E6H         LINE#         1246
  C:08E9H         LINE#         1247
  C:0902H         LINE#         1248
  C:0902H         LINE#         1249
  C:0907H         LINE#         1250
  C:090BH         LINE#         1251
  C:090FH         LINE#         1252
  C:0913H         LINE#         1253
  C:0919H         LINE#         1254
  C:091CH         LINE#         1255
  C:092EH         LINE#         1256
  C:092EH         LINE#         1257
  C:0934H         LINE#         1258
  C:0939H         LINE#         1259
  C:093DH         LINE#         1260
  C:0941H         LINE#         1261
  C:0941H         LINE#         1262
  C:0943H         LINE#         1263
  C:0955H         LINE#         1264
  C:0955H         LINE#         1265
  C:095AH         LINE#         1266
  C:095EH         LINE#         1267
  C:0964H         LINE#         1268
  C:0969H         LINE#         1269
  C:0969H         LINE#         1271
  C:096BH         LINE#         1272
  C:097DH         LINE#         1273
  C:097DH         LINE#         1274
BL51 BANKED LINKER/LOCATER V6.22.2.0                                                  08/24/2021  10:37:20  PAGE 73


  C:0982H         LINE#         1275
  C:0988H         LINE#         1276
  C:098DH         LINE#         1277
  C:0991H         LINE#         1278
  C:0991H         LINE#         1279
  C:0993H         LINE#         1281
  C:0993H         LINE#         1284
  C:099AH         LINE#         1285
  C:099FH         LINE#         1287
  C:09A5H         LINE#         1288
  C:09AAH         LINE#         1289
  C:09AEH         LINE#         1290
  C:09B2H         LINE#         1291
  C:09B6H         LINE#         1292
  C:09BAH         LINE#         1293
  C:09BAH         LINE#         1295
  C:0A10H         LINE#         1297
  C:0A16H         LINE#         1300
  C:0A1EH         LINE#         1301
  C:0A1EH         LINE#         1302
  C:0A24H         LINE#         1303
  C:0A29H         LINE#         1304
  C:0A30H         LINE#         1305
  C:0A33H         LINE#         1306
  C:0A3AH         LINE#         1307
  C:0A3AH         LINE#         1309
  C:0A42H         LINE#         1310
  C:0A42H         LINE#         1311
  C:0A48H         LINE#         1312
  C:0A4DH         LINE#         1313
  C:0A54H         LINE#         1314
  C:0A57H         LINE#         1315
  C:0A5EH         LINE#         1316
  C:0A5EH         LINE#         1318
  C:0A66H         LINE#         1319
  C:0A66H         LINE#         1320
  C:0A6AH         LINE#         1321
  C:0A6FH         LINE#         1322
  C:0A76H         LINE#         1323
  C:0A79H         LINE#         1324
  C:0A80H         LINE#         1325
  C:0A80H         LINE#         1327
  C:0A88H         LINE#         1328
  C:0A88H         LINE#         1329
  C:0A8EH         LINE#         1330
  C:0A93H         LINE#         1331
  C:0A9AH         LINE#         1332
  C:0A9DH         LINE#         1333
  C:0AA4H         LINE#         1334
  C:0AA4H         LINE#         1336
  C:0AACH         LINE#         1337
  C:0AACH         LINE#         1338
  C:0AB2H         LINE#         1339
  C:0AB7H         LINE#         1340
  C:0ABEH         LINE#         1341
  C:0AC1H         LINE#         1342
  C:0AC8H         LINE#         1343
BL51 BANKED LINKER/LOCATER V6.22.2.0                                                  08/24/2021  10:37:20  PAGE 74


  C:0AC8H         LINE#         1353
  C:0AD7H         LINE#         1356
  C:0AF0H         LINE#         1357
  C:0AF0H         LINE#         1358
  C:0AF6H         LINE#         1359
  C:0AFBH         LINE#         1360
  C:0AFDH         LINE#         1362
  C:0AFDH         LINE#         1363
  C:0B02H         LINE#         1364
  C:0B08H         LINE#         1366
  C:0B08H         LINE#         1368
  C:0B10H         LINE#         1369
  C:0B10H         LINE#         1370
  C:0B11H         LINE#         1371
  C:0B26H         LINE#         1372
  C:0B2DH         LINE#         1376
  C:0B2FH         LINE#         1377
  C:0B37H         LINE#         1378
  C:0B37H         LINE#         1379
  C:0B38H         LINE#         1380
  C:0B3FH         LINE#         1381
  C:0B3FH         LINE#         1413
  C:0B47H         LINE#         1414
  C:0B4DH         LINE#         1416
  C:0B51H         LINE#         1417
  C:0B54H         LINE#         1419
  C:0B54H         LINE#         1422
  C:0B61H         LINE#         1423
  C:0B61H         LINE#         1427
  C:0B65H         LINE#         1428
  C:0B68H         LINE#         1429
  C:0B6EH         LINE#         1430
  C:0B6EH         LINE#         1431
  C:0B71H         LINE#         1433
  C:0B71H         LINE#         1449
  C:0B7CH         LINE#         1450
  C:0B7CH         LINE#         1451
  C:0B89H         LINE#         1452
  C:0B89H         LINE#         1453
  C:0B8DH         LINE#         1455
  C:0B8FH         LINE#         1460
  C:0B97H         LINE#         1461
  C:0BA0H         LINE#         1462
  C:0BA2H         LINE#         1464
  C:0BAAH         LINE#         1465
  C:0BB3H         LINE#         1466
  C:0BB5H         LINE#         1468
  C:0BBDH         LINE#         1469
  C:0BBDH         LINE#         1470
  C:0BC2H         LINE#         1471
  C:0BC6H         LINE#         1472
  C:0BCFH         LINE#         1473
  C:0BCFH         LINE#         1475
  C:0BCFH         LINE#         1477
  C:0BDAH         LINE#         1478
  C:0BDAH         LINE#         1479
  C:0BDCH         LINE#         1480
BL51 BANKED LINKER/LOCATER V6.22.2.0                                                  08/24/2021  10:37:20  PAGE 75


  C:0BDFH         LINE#         1482
  C:0BDFH         LINE#         1484
  C:0BE9H         LINE#         1485
  C:0BE9H         LINE#         1487
  C:0C0CH         LINE#         1488
  C:0C0CH         LINE#         1489
  C:0C17H         LINE#         1490
  C:0C1BH         LINE#         1492
  C:0C1DH         LINE#         1493
  C:0C20H         LINE#         1494
  C:0C2AH         LINE#         1495
  C:0C2DH         LINE#         1499
  C:0C37H         LINE#         1500
  C:0C37H         LINE#         1502
  C:0C5AH         LINE#         1503
  C:0C5AH         LINE#         1504
  C:0C65H         LINE#         1505
  C:0C69H         LINE#         1507
  C:0C6BH         LINE#         1508
  C:0C6DH         LINE#         1509
  C:0C77H         LINE#         1510
  C:0C79H         LINE#         1512
  C:0C79H         LINE#         1513
  C:0C7BH         LINE#         1514
  C:0C85H         LINE#         1515
  C:0C85H         LINE#         1517
  C:0CA8H         LINE#         1518
  C:0CA8H         LINE#         1519
  C:0CB3H         LINE#         1520
  C:0CB7H         LINE#         1522
  C:0CB9H         LINE#         1523
  C:0CBBH         LINE#         1524
  C:0CC5H         LINE#         1525
  C:0CCCH         LINE#         1527
  C:0CD5H         LINE#         1528
  C:0CD5H         LINE#         1531
  C:0CD5H         LINE#         1533
  C:0CDBH         LINE#         1536
  C:0CDDH         LINE#         1538
  C:0CDDH         LINE#         1539
  C:0CE4H         LINE#         1540
  C:0CE6H         LINE#         1541
  C:0CE9H         LINE#         1542
  C:0CEEH         LINE#         1543
  C:0CFEH         LINE#         1544
  C:0D03H         LINE#         1545
  C:0D0CH         LINE#         1546
  C:0D15H         LINE#         1547
  C:0D15H         LINE#         1549
  C:0D17H         LINE#         1551
  C:0D18H         LINE#         1553
  C:0D18H         LINE#         1555
  C:0D4BH         LINE#         1557
  C:0D4BH         LINE#         1558
  C:0D51H         LINE#         1559
  C:0D5BH         LINE#         1560
  C:0D63H         LINE#         1565
BL51 BANKED LINKER/LOCATER V6.22.2.0                                                  08/24/2021  10:37:20  PAGE 76


  C:0D6CH         LINE#         1566
  C:0D6CH         LINE#         1569
  C:0D6DH         LINE#         1571
  C:0D6DH         LINE#         1573
  C:0D75H         LINE#         1574
  C:0D7DH         LINE#         1583
  C:0D94H         LINE#         1584
  C:0D94H         LINE#         1585
  C:0D99H         LINE#         1586
  C:0DA2H         LINE#         1587
  C:0DA2H         LINE#         1589
  C:0DB9H         LINE#         1590
  C:0DB9H         LINE#         1591
  C:0DBEH         LINE#         1592
  C:0DC7H         LINE#         1593
  C:0DC7H         LINE#         1626
  C:0DCFH         LINE#         1627
  C:0DCFH         LINE#         1628
  C:0DDDH         LINE#         1629
  C:0DDDH         LINE#         1633
  C:0DE4H         LINE#         1634
  C:0DE7H         LINE#         1635
  C:0DE7H         LINE#         1637
  C:0DE7H         LINE#         1639
  C:0E0DH         LINE#         1640
  C:0E0DH         LINE#         1642
  C:0E0DH         LINE#         1644
  C:0E1AH         LINE#         1645
  C:0E1AH         LINE#         1649
  C:0E1EH         LINE#         1650
  C:0E1EH         LINE#         1659
  C:0E2AH         LINE#         1660
  C:0E2AH         LINE#         1664
  C:0E2EH         LINE#         1665
  C:0E37H         LINE#         1666
  C:0E41H         LINE#         1667
  C:0E49H         LINE#         1668
  C:0E49H         LINE#         1669
  C:0E50H         LINE#         1697
  C:0E53H         LINE#         1698
  C:0E53H         LINE#         1699
  C:0E53H         LINE#         1700
  C:0E72H         LINE#         1701
  C:0E72H         LINE#         1702
  C:0E77H         LINE#         1704
  C:0E81H         LINE#         1705
  C:0E89H         LINE#         1710
  C:0E8CH         LINE#         1711
  C:0E8EH         LINE#         1712
  C:0EAAH         LINE#         1713
  C:0EAAH         LINE#         1714
  C:0EACH         LINE#         1715
  C:0EB3H         LINE#         1717
  C:0EBFH         LINE#         1718
  C:0EC3H         LINE#         1719
  C:0EC3H         LINE#         1721
  C:0ECEH         LINE#         1722
BL51 BANKED LINKER/LOCATER V6.22.2.0                                                  08/24/2021  10:37:20  PAGE 77


  C:0ECEH         LINE#         1723
  C:0ED6H         LINE#         1727
  C:0ED6H         LINE#         1729
  C:0EDDH         LINE#         1730
  C:0EE2H         LINE#         1731
  C:0EE4H         LINE#         1733
  C:0EE4H         LINE#         1734
  C:0EEBH         LINE#         1736
  C:0EF6H         LINE#         1737
  C:0EF6H         LINE#         1738
  C:0EFEH         LINE#         1742
  C:0EFEH         LINE#         1743
  C:0F00H         LINE#         1744
  C:0F00H         LINE#         1745
  C:0F00H         LINE#         1746
  C:0F00H         LINE#         1747
  C:0F00H         LINE#         1748
  C:0F00H         LINE#         1750
  C:0F07H         LINE#         1761
  C:0F0EH         LINE#         1762
  C:0F0EH         LINE#         1767
  C:0F0EH         LINE#         1827
  C:0F14H         LINE#         1828
  C:0F17H         LINE#         1829
  C:0F17H         LINE#         1843
  C:0F1FH         LINE#         1844
  C:0F1FH         LINE#         1846
  C:0F2DH         LINE#         1847
  C:0F2DH         LINE#         1848
  C:0F35H         LINE#         1849
  C:0F35H         LINE#         1851
  C:0F3EH         LINE#         1852
  C:0F44H         LINE#         1853
  C:0F46H         LINE#         1855
  C:0F46H         LINE#         1856
  C:0F49H         LINE#         1857
  C:0F49H         LINE#         1861
  C:0F4BH         LINE#         1862
  C:0F4BH         LINE#         1867
  C:0F50H         LINE#         1870
  C:0F59H         LINE#         1871
  C:0F59H         LINE#         1873
  C:0F5BH         LINE#         1875
  C:0F5CH         LINE#         1877
  C:0F5CH         LINE#         1878
  C:0F69H         LINE#         1879
  C:0F6BH         LINE#         1880
  C:0F6DH         LINE#         1882
  C:0F6DH         LINE#         1883
  C:0F77H         LINE#         1884
  C:0F79H         LINE#         1885
  C:0F7BH         LINE#         1886
  C:0F7BH         LINE#         1887
  C:0F85H         LINE#         1888
  C:0F87H         LINE#         1889
  C:0F89H         LINE#         1891
  C:0F89H         LINE#         1892
BL51 BANKED LINKER/LOCATER V6.22.2.0                                                  08/24/2021  10:37:20  PAGE 78


  C:0F93H         LINE#         1893
  C:0F95H         LINE#         1894
  C:0F97H         LINE#         1897
  C:0F97H         LINE#         1898
  C:0FA1H         LINE#         1899
  C:0FA6H         LINE#         1900
  C:0FA6H         LINE#         1903
  C:0FA6H         LINE#         1905
  C:0FADH         LINE#         1907
  C:0FB2H         LINE#         1908
  C:0FB2H         LINE#         1909
  C:0FB3H         LINE#         1910
  C:0FB9H         LINE#         1911
  C:0FB9H         LINE#         1913
  C:0FC1H         LINE#         1914
  C:0FC1H         LINE#         1915
  C:0FC2H         LINE#         1916
  C:0FC8H         LINE#         1917
  C:0FC8H         LINE#         1919
  C:0FD0H         LINE#         1920
  C:0FD0H         LINE#         1921
  C:0FD1H         LINE#         1922
  C:0FD7H         LINE#         1923
  C:0FD7H         LINE#         1925
  C:0FDAH         LINE#         1927
  C:0FE3H         LINE#         1928
  C:0FE3H         LINE#         1930
  C:0FE3H         LINE#         1932
  C:0FE9H         LINE#         1934
  C:0FE9H         LINE#         1936
  C:0FE9H         LINE#         1937
  C:0FE9H         LINE#         1938
  C:0FE9H         LINE#         1939
  -------         ENDPROC       _SYSTIMEREVENTPROC
  -------         ENDMOD        SYSTIMER

  -------         MODULE        ?C?FPADD
  C:0FF1H         PUBLIC        ?C?FPADD
  C:0FEDH         PUBLIC        ?C?FPSUB
  -------         ENDMOD        ?C?FPADD

  -------         MODULE        ?C?FPMUL
  C:10E2H         PUBLIC        ?C?FPMUL
  -------         ENDMOD        ?C?FPMUL

  -------         MODULE        ?C?FPDIV
  C:11EBH         PUBLIC        ?C?FPDIV
  -------         ENDMOD        ?C?FPDIV

  -------         MODULE        ?C?FPCMP
  C:128AH         PUBLIC        ?C?FPCMP
  C:1288H         PUBLIC        ?C?FPCMP3
  -------         ENDMOD        ?C?FPCMP

  -------         MODULE        ?C?FCAST
  C:130BH         PUBLIC        ?C?FCASTC
  C:1306H         PUBLIC        ?C?FCASTI
BL51 BANKED LINKER/LOCATER V6.22.2.0                                                  08/24/2021  10:37:20  PAGE 79


  C:1301H         PUBLIC        ?C?FCASTL
  -------         ENDMOD        ?C?FCAST

  -------         MODULE        ?C?CASTF
  C:133FH         PUBLIC        ?C?CASTF
  -------         ENDMOD        ?C?CASTF

  -------         MODULE        ?C?COPY
  C:1490H         PUBLIC        ?C?COPY
  -------         ENDMOD        ?C?COPY

  -------         MODULE        ?C?CLDPTR
  C:14B6H         PUBLIC        ?C?CLDPTR
  -------         ENDMOD        ?C?CLDPTR

  -------         MODULE        ?C?CLDOPTR
  C:14CFH         PUBLIC        ?C?CLDOPTR
  -------         ENDMOD        ?C?CLDOPTR

  -------         MODULE        ?C?CILDPTR
  C:14FCH         PUBLIC        ?C?CILDPTR
  -------         ENDMOD        ?C?CILDPTR

  -------         MODULE        ?C?CSTOPTR
  C:151EH         PUBLIC        ?C?CSTOPTR
  -------         ENDMOD        ?C?CSTOPTR

  -------         MODULE        ?C?IMUL
  C:1540H         PUBLIC        ?C?IMUL
  -------         ENDMOD        ?C?IMUL

  -------         MODULE        ?C?UIDIV
  C:1552H         PUBLIC        ?C?UIDIV
  -------         ENDMOD        ?C?UIDIV

  -------         MODULE        ?C?SIDIV
  C:15A7H         PUBLIC        ?C?SIDIV
  -------         ENDMOD        ?C?SIDIV

  -------         MODULE        ?C?IILDX
  C:15DDH         PUBLIC        ?C?IILDX
  -------         ENDMOD        ?C?IILDX

  -------         MODULE        ?C?ILDIX
  C:15F3H         PUBLIC        ?C?ILDIX
  -------         ENDMOD        ?C?ILDIX

  -------         MODULE        ?C?ILDPTR
  C:1609H         PUBLIC        ?C?ILDPTR
  -------         ENDMOD        ?C?ILDPTR

  -------         MODULE        ?C?ILDOPTR
  C:1634H         PUBLIC        ?C?ILDOPTR
  -------         ENDMOD        ?C?ILDOPTR

  -------         MODULE        ?C?ISTPTR
  C:166CH         PUBLIC        ?C?ISTPTR
BL51 BANKED LINKER/LOCATER V6.22.2.0                                                  08/24/2021  10:37:20  PAGE 80


  -------         ENDMOD        ?C?ISTPTR

  -------         MODULE        ?C?LMUL
  C:168BH         PUBLIC        ?C?LMUL
  -------         ENDMOD        ?C?LMUL

  -------         MODULE        ?C?ULDIV
  C:1716H         PUBLIC        ?C?ULDIV
  -------         ENDMOD        ?C?ULDIV

  -------         MODULE        ?C?SLDIV
  C:656AH         PUBLIC        ?C?SLDIV
  -------         ENDMOD        ?C?SLDIV

  -------         MODULE        ?C?LNEG
  C:17A8H         PUBLIC        ?C?LNEG
  -------         ENDMOD        ?C?LNEG

  -------         MODULE        ?C?SLCMP
  C:17B6H         PUBLIC        ?C?SLCMP
  -------         ENDMOD        ?C?SLCMP

  -------         MODULE        ?C?ULCMP
  C:17CCH         PUBLIC        ?C?ULCMP
  -------         ENDMOD        ?C?ULCMP

  -------         MODULE        ?C?ULSHR
  C:17DDH         PUBLIC        ?C?ULSHR
  -------         ENDMOD        ?C?ULSHR

  -------         MODULE        ?C?SLSHR
  C:17F0H         PUBLIC        ?C?SLSHR
  -------         ENDMOD        ?C?SLSHR

  -------         MODULE        ?C?LSHL
  C:1804H         PUBLIC        ?C?LSHL
  -------         ENDMOD        ?C?LSHL

  -------         MODULE        ?C?LLDPTR
  C:1817H         PUBLIC        ?C?LLDPTR
  -------         ENDMOD        ?C?LLDPTR

  -------         MODULE        ?C?LSTXDATA
  C:1837H         PUBLIC        ?C?LSTXDATA
  -------         ENDMOD        ?C?LSTXDATA

  -------         MODULE        ?C?LSTKXDATA
  C:1843H         PUBLIC        ?C?LSTKXDATA
  -------         ENDMOD        ?C?LSTKXDATA

  -------         MODULE        ?C?PLDPTR
  C:1874H         PUBLIC        ?C?PLDPTR
  -------         ENDMOD        ?C?PLDPTR

  -------         MODULE        ?C?CCASE
  C:1894H         PUBLIC        ?C?CCASE
  -------         ENDMOD        ?C?CCASE
BL51 BANKED LINKER/LOCATER V6.22.2.0                                                  08/24/2021  10:37:20  PAGE 81



  -------         MODULE        ABS
  C:6AB6H         PUBLIC        _ABS
  -------         ENDMOD        ABS

  -------         MODULE        ?C?LLDIDATA
  C:18BAH         PUBLIC        ?C?LLDIDATA
  -------         ENDMOD        ?C?LLDIDATA

  -------         MODULE        ?C?LLDXDATA
  C:18C6H         PUBLIC        ?C?LLDXDATA
  -------         ENDMOD        ?C?LLDXDATA

  -------         MODULE        ?C?LLDPDATA
  C:18D2H         PUBLIC        ?C?LLDPDATA
  -------         ENDMOD        ?C?LLDPDATA

  -------         MODULE        ?C?LLDCODE
  C:18DEH         PUBLIC        ?C?LLDCODE
  -------         ENDMOD        ?C?LLDCODE

  -------         MODULE        ?C?PLDIDATA
  C:18EEH         PUBLIC        ?C?PLDIDATA
  -------         ENDMOD        ?C?PLDIDATA

  -------         MODULE        ?C?PLDXDATA
  C:18F7H         PUBLIC        ?C?PLDXDATA
  -------         ENDMOD        ?C?PLDXDATA

  -------         MODULE        ?C?PLDPDATA
  C:1900H         PUBLIC        ?C?PLDPDATA
  -------         ENDMOD        ?C?PLDPDATA

  -------         MODULE        ?C?PLDCODE
  C:1909H         PUBLIC        ?C?PLDCODE
  -------         ENDMOD        ?C?PLDCODE

Program Size: data=109.5 xdata=710 code=27342
LINK/LOCATE RUN COMPLETE.  0 WARNING(S),  0 ERROR(S)
