BL51 BANKED LINKER/LOCATER V6.22.2.0                                                    05/12/2021  10:45:41  PAGE 1


BL51 BANKED LINKER/LOCATER V6.22.2.0, INVOKED BY:
C:\KEIL_V5\C51\BIN\BL51.EXE .\Output\STARTUP.obj, .\Output\CPU.obj, .\Output\etc_eep.obj, .\Output\HS_DVRProtocol.obj, .
>> \Output\i2c.obj, .\Output\keyremo.obj, .\Output\main.obj, .\Output\monitor.obj, .\Output\Printf.obj, .\Output\SysPowe
>> r.obj, .\Output\SysTimer.obj TO .\Output\ml070i_MRMCU PRINT (.\Listings\ml070i_MRMCU.m51) RAMSIZE (256)


MEMORY MODEL: LARGE WITH FLOATING POINT ARITHMETIC


INPUT MODULES INCLUDED:
  .\Output\STARTUP.obj (?C_STARTUP)
  .\Output\CPU.obj (CPU)
  .\Output\etc_eep.obj (ETC_EEP)
  .\Output\HS_DVRProtocol.obj (HS_DVRPROTOCOL)
  .\Output\i2c.obj (I2C)
  .\Output\keyremo.obj (KEYREMO)
  .\Output\main.obj (MAIN)
  .\Output\monitor.obj (MONITOR)
  .\Output\Printf.obj (PRINTF)
  .\Output\SysPower.obj (SYSPOWER)
  .\Output\SysTimer.obj (SYSTIMER)
  C:\KEIL_V5\C51\LIB\C51FPL.LIB (?C?FPADD)
  C:\KEIL_V5\C51\LIB\C51FPL.LIB (?C?FPMUL)
  C:\KEIL_V5\C51\LIB\C51FPL.LIB (?C?FPDIV)
  C:\KEIL_V5\C51\LIB\C51FPL.LIB (?C?FCAST)
  C:\KEIL_V5\C51\LIB\C51FPL.LIB (?C?CASTF)
  C:\KEIL_V5\C51\LIB\C51FPL.LIB (?C?FPGETOPN)
  C:\KEIL_V5\C51\LIB\C51L.LIB (?C_INIT)
  C:\KEIL_V5\C51\LIB\C51L.LIB (?C?COPY)
  C:\KEIL_V5\C51\LIB\C51L.LIB (?C?CLDPTR)
  C:\KEIL_V5\C51\LIB\C51L.LIB (?C?CLDOPTR)
  C:\KEIL_V5\C51\LIB\C51L.LIB (?C?CILDPTR)
  C:\KEIL_V5\C51\LIB\C51L.LIB (?C?CSTOPTR)
  C:\KEIL_V5\C51\LIB\C51L.LIB (?C?IMUL)
  C:\KEIL_V5\C51\LIB\C51L.LIB (?C?UIDIV)
  C:\KEIL_V5\C51\LIB\C51L.LIB (?C?SIDIV)
  C:\KEIL_V5\C51\LIB\C51L.LIB (?C?IILDX)
  C:\KEIL_V5\C51\LIB\C51L.LIB (?C?ILDIX)
  C:\KEIL_V5\C51\LIB\C51L.LIB (?C?ILDPTR)
  C:\KEIL_V5\C51\LIB\C51L.LIB (?C?ILDOPTR)
  C:\KEIL_V5\C51\LIB\C51L.LIB (?C?ISTPTR)
  C:\KEIL_V5\C51\LIB\C51L.LIB (?C?LMUL)
  C:\KEIL_V5\C51\LIB\C51L.LIB (?C?ULDIV)
  C:\KEIL_V5\C51\LIB\C51L.LIB (?C?SLDIV)
  C:\KEIL_V5\C51\LIB\C51L.LIB (?C?LNEG)
  C:\KEIL_V5\C51\LIB\C51L.LIB (?C?SLCMP)
  C:\KEIL_V5\C51\LIB\C51L.LIB (?C?ULCMP)
  C:\KEIL_V5\C51\LIB\C51L.LIB (?C?ULSHR)
  C:\KEIL_V5\C51\LIB\C51L.LIB (?C?SLSHR)
  C:\KEIL_V5\C51\LIB\C51L.LIB (?C?LSHL)
  C:\KEIL_V5\C51\LIB\C51L.LIB (?C?LLDPTR)
  C:\KEIL_V5\C51\LIB\C51L.LIB (?C?LSTXDATA)
  C:\KEIL_V5\C51\LIB\C51L.LIB (?C?LSTKXDATA)
  C:\KEIL_V5\C51\LIB\C51L.LIB (?C?PLDPTR)
  C:\KEIL_V5\C51\LIB\C51L.LIB (?C?CCASE)
  C:\KEIL_V5\C51\LIB\C51L.LIB (ABS)
  C:\KEIL_V5\C51\LIB\C51L.LIB (?C?LLDIDATA)
  C:\KEIL_V5\C51\LIB\C51L.LIB (?C?LLDXDATA)
BL51 BANKED LINKER/LOCATER V6.22.2.0                                                  05/12/2021  10:45:41  PAGE 2


  C:\KEIL_V5\C51\LIB\C51L.LIB (?C?LLDPDATA)
  C:\KEIL_V5\C51\LIB\C51L.LIB (?C?LLDCODE)
  C:\KEIL_V5\C51\LIB\C51L.LIB (?C?PLDIDATA)
  C:\KEIL_V5\C51\LIB\C51L.LIB (?C?PLDXDATA)
  C:\KEIL_V5\C51\LIB\C51L.LIB (?C?PLDPDATA)
  C:\KEIL_V5\C51\LIB\C51L.LIB (?C?PLDCODE)


LINK MAP OF MODULE:  .\Output\ml070i_MRMCU (?C_STARTUP)


            TYPE    BASE      LENGTH    RELOCATION   SEGMENT NAME
            -----------------------------------------------------

            * * * * * * *   D A T A   M E M O R Y   * * * * * * *
            REG     0000H     0008H     ABSOLUTE     "REG BANK 0"
            REG     0008H     0008H     ABSOLUTE     "REG BANK 1"
            DATA    0010H     0001H     UNIT         ?DT?MONITOR
            IDATA   0011H     0002H     UNIT         ?ID?SYSPOWER
                    0013H     000DH                  *** GAP ***
            BIT     0020H.0   0000H.6   UNIT         ?BI?CPU
            BIT     0020H.6   0000H.3   UNIT         ?BI?MONITOR
            BIT     0021H.1   0000H.2   UNIT         _BIT_GROUP_
            BIT     0021H.3   0000H.1   UNIT         ?BI?HS_DVRPROTOCOL
            BIT     0021H.4   0000H.1   UNIT         ?BI?SYSTIMER
                    0021H.5   0000H.3                *** GAP ***
            DATA    0022H     0058H     UNIT         ?DT?CPU
            IDATA   007AH     0001H     UNIT         ?STACK

            * * * * * * *  X D A T A   M E M O R Y  * * * * * * *
            XDATA   0000H     0106H     UNIT         ?XD?HS_DVRPROTOCOL
            XDATA   0106H     009DH     UNIT         ?XD?MAIN
            XDATA   01A3H     005CH     UNIT         ?XD?SYSTIMER
            XDATA   01FFH     0052H     UNIT         _XDATA_GROUP_
            XDATA   0251H     0038H     UNIT         ?XD?MONITOR
            XDATA   0289H     0024H     UNIT         ?XD?CPU
            XDATA   02ADH     0018H     UNIT         ?XD?PRINTF

            * * * * * * *   C O D E   M E M O R Y   * * * * * * *
            CODE    0000H     0003H     ABSOLUTE     
            CODE    0003H     0003H     ABSOLUTE     
            CODE    0006H     0004H     UNIT         ?PR?ISP_INIT?MAIN
                    000AH     0001H                  *** GAP ***
            CODE    000BH     0003H     ABSOLUTE     
            CODE    000EH     0003H     UNIT         ?PR?EXT1_INT?CPU
                    0011H     0002H                  *** GAP ***
            CODE    0013H     0003H     ABSOLUTE     
            CODE    0016H     000DH     UNIT         ?PR?I2CSTOP?I2C
            CODE    0023H     0003H     ABSOLUTE     
                    0026H     0005H                  *** GAP ***
            CODE    002BH     0003H     ABSOLUTE     
                    002EH     0005H                  *** GAP ***
            CODE    0033H     0003H     ABSOLUTE     
                    0036H     0005H                  *** GAP ***
            CODE    003BH     0003H     ABSOLUTE     
            CODE    003EH     0022H     UNIT         ?PR?MCUTIMERINITIALTIMEREVENT?SYSTIMER
                    0060H     0003H                  *** GAP ***
BL51 BANKED LINKER/LOCATER V6.22.2.0                                                  05/12/2021  10:45:41  PAGE 3


            CODE    0063H     0003H     ABSOLUTE     
            CODE    0066H     0ED1H     UNIT         ?PR?_SYSTIMEREVENTPROC?SYSTIMER
            CODE    0F37H     08B2H     UNIT         ?C?LIB_CODE
            CODE    17E9H     0587H     UNIT         ?PR?DVRRECEIVEPASER?HS_DVRPROTOCOL
            CODE    1D70H     0556H     UNIT         ?PR?_DOPRINT?PRINTF
            CODE    22C6H     0543H     UNIT         ?PR?TIMER0_INT?CPU
            CODE    2809H     047AH     UNIT         ?CO?CPU
            CODE    2C83H     0461H     UNIT         ?PR?ENCORDERHANDLER_TELI?MAIN
            CODE    30E4H     044CH     UNIT         ?PR?ENCORDERHANDLER?MAIN
            CODE    3530H     0423H     UNIT         ?PR?_MCU_SENDCMDTODVR?MAIN
            CODE    3953H     041BH     UNIT         ?PR?SHOWWORKINGTIMER?CPU
            CODE    3D6EH     03F3H     UNIT         ?PR?LOADEEPROM?MAIN
            CODE    4161H     0325H     UNIT         ?PR?SAVEROTATENUMBER?MAIN
            CODE    4486H     030BH     UNIT         ?PR?_USERINTERFACEBATTERYCHARGEMODE?SYSPOWER
            CODE    4791H     023AH     UNIT         ?C_INITSEG
            CODE    49CBH     0176H     UNIT         ?PR?_MAPPING1?MAIN
            CODE    4B41H     016EH     UNIT         ?PR?MAIN_INIT?CPU
            CODE    4CAFH     015FH     UNIT         ?PR?_GETROTATENUMBER?MAIN
            CODE    4E0EH     015BH     UNIT         ?PR?_USERINTERFACETIMEREVENTPROC?SYSTIMER
            CODE    4F69H     012EH     UNIT         ?PR?_MCUTIMERCHECKTIMEREVENT?SYSTIMER
            CODE    5097H     0102H     UNIT         ?PR?WAITPOWERON?MAIN
            CODE    5199H     00E5H     UNIT         ?PR?_MCUTIMERACTIVETIMEREVENT?SYSTIMER
            CODE    527EH     00DEH     UNIT         ?PR?_MCUTIMERREACTIVETIMEREVENT?SYSTIMER
            CODE    535CH     00DBH     UNIT         ?PR?CLEARBASICEE?ETC_EEP
            CODE    5437H     00D9H     UNIT         ?PR?_USERINTERFACEPOWERSWITCH?SYSPOWER
            CODE    5510H     00ADH     UNIT         ?PR?_MCULIB_PROTOCOLAPPEND?MAIN
            CODE    55BDH     00A5H     UNIT         ?PR?_SET_PWM?CPU
            CODE    5662H     009CH     UNIT         ?PR?EXT0_INT?CPU
            CODE    56FEH     0090H     UNIT         ?PR?_MCULIB_PROTOCOLSENDCMDWITHPARAMNUM?MAIN
            CODE    578EH     008CH     UNIT         ?C_C51STARTUP
            CODE    581AH     0085H     UNIT         ?PR?SYSTIMERHANDLER?SYSTIMER
            CODE    589FH     0084H     UNIT         ?PR?SYSPOWERHANDLER?SYSPOWER
            CODE    5923H     0082H     UNIT         ?PR?MAIN?MAIN
            CODE    59A5H     007EH     UNIT         ?PR?_AD5110_I2CWRITEDATA?I2C
            CODE    5A23H     007BH     UNIT         ?PR?_I2CWRITEDATA?I2C
            CODE    5A9EH     0079H     UNIT         ?PR?_POWERLED?CPU
            CODE    5B17H     0077H     UNIT         ?CO?MAIN
            CODE    5B8EH     0053H     UNIT         ?PR?INITIALTIMEREVENT?MAIN
            CODE    5BE1H     0052H     UNIT         ?PR?INITCPU?CPU
            CODE    5C33H     0051H     UNIT         ?PR?SCANKEY?KEYREMO
            CODE    5C84H     004EH     UNIT         ?CO?PRINTF
            CODE    5CD2H     004AH     UNIT         ?PR?GETFWREVEE?ETC_EEP
            CODE    5D1CH     004AH     UNIT         ?PR?MCUTIMERGETTIMERCOUNTER?SYSTIMER
            CODE    5D66H     0047H     UNIT         ?PR?GETPROJECTNAMEEE?ETC_EEP
            CODE    5DADH     0047H     UNIT         ?PR?_WRITEEEP?I2C
            CODE    5DF4H     0046H     UNIT         ?PR?_GRAPHICSPRINT?PRINTF
            CODE    5E3AH     0044H     UNIT         ?C?LDIV
            CODE    5E7EH     0042H     UNIT         ?PR?MAIN_LOOP?MAIN
            CODE    5EC0H     0041H     UNIT         ?PR?_MCUTIMERCANCELTIMEREVENT?SYSTIMER
            CODE    5F01H     003EH     UNIT         ?PR?_SETAD5110STEP?MAIN
            CODE    5F3FH     003EH     UNIT         ?PR?_PRINTF?PRINTF
            CODE    5F7DH     003EH     UNIT         ?PR?_DEBUG_MESSAGE?PRINTF
            CODE    5FBBH     003BH     UNIT         ?PR?SERIAL2_INT?CPU
            CODE    5FF6H     0039H     UNIT         ?PR?_READI2C?I2C
            CODE    602FH     0033H     UNIT         ?PR?I2CREADDATA?I2C
            CODE    6062H     0033H     UNIT         ?PR?_ISP_WRITE?MAIN
            CODE    6095H     002FH     UNIT         ?PR?SET_MCU_POWER_DOWN_MODE?CPU
BL51 BANKED LINKER/LOCATER V6.22.2.0                                                  05/12/2021  10:45:41  PAGE 4


            CODE    60C4H     002FH     UNIT         ?PR?SERIAL_INT?CPU
            CODE    60F3H     002DH     UNIT         ?CO?SYSPOWER
            CODE    6120H     002CH     UNIT         ?PR?SYSPOWERINITIAL?SYSPOWER
            CODE    614CH     002CH     UNIT         ?PR?_SYSPOWERSWITCH?SYSPOWER
            CODE    6178H     0026H     UNIT         ?PR?_READEEP?I2C
            CODE    619EH     0021H     UNIT         ?PR?ENTER_ISP?MAIN
            CODE    61BFH     0020H     UNIT         ?PR?_WRITEAD5110?I2C
            CODE    61DFH     0020H     UNIT         ?PR?_GETADCVALUE?MAIN
            CODE    61FFH     001FH     UNIT         ?PR?INT2_INT?CPU
            CODE    621EH     001FH     UNIT         ?PR?INT3_INT?CPU
            CODE    623DH     001EH     UNIT         ?PR?RS2_RX?CPU
            CODE    625BH     001CH     UNIT         ?PR?CHECK_ADAP_IN?CPU
            CODE    6277H     001BH     UNIT         ?PR?_GETKEY?KEYREMO
            CODE    6292H     0019H     UNIT         ?PR?SAVEFWREVEE?ETC_EEP
            CODE    62ABH     0019H     UNIT         ?PR?_MCUTIMERDELAYXMS?SYSTIMER
            CODE    62C4H     0018H     UNIT         ?PR?_DELAY?CPU
            CODE    62DCH     0016H     UNIT         ?PR?INITVARS?CPU
            CODE    62F2H     0015H     UNIT         ?PR?_MCUTIMERGETEVENTID?SYSTIMER
            CODE    6307H     0014H     UNIT         ?PR?I2CDELAY?I2C
            CODE    631BH     0014H     UNIT         ?PR?_MCUTIMERGETEVENTTIME?SYSTIMER
            CODE    632FH     0013H     UNIT         ?PR?_MCUTIMERCLREVENTVALID?SYSTIMER
            CODE    6342H     0012H     UNIT         ?CO?ETC_EEP
            CODE    6354H     0012H     UNIT         ?PR?I2CSTART?I2C
            CODE    6366H     0011H     UNIT         ?PR?_MCUTIMERCHECKEVENTVALID?SYSTIMER
            CODE    6377H     000FH     UNIT         ?PR?TIMER2_INT?CPU
            CODE    6386H     000CH     UNIT         ?PR?_ABS?ABS
            CODE    6392H     000BH     UNIT         ?PR?RS2_READY?CPU
            CODE    639DH     0008H     UNIT         ?PR?_RS2_TX?CPU
            CODE    63A5H     0007H     UNIT         ?PR?GETBATTERYBTH?MAIN
            CODE    63ACH     0007H     UNIT         ?PR?GETBATTERYVOLTAGE?MAIN



OVERLAY MAP OF MODULE:   .\Output\ml070i_MRMCU (?C_STARTUP)


SEGMENT                                             BIT_GROUP          XDATA_GROUP
  +--> CALLED SEGMENT                            START    LENGTH     START    LENGTH
------------------------------------------------------------------------------------
?C_C51STARTUP                                    -----    -----      -----    -----
  +--> ?PR?MAIN?MAIN
  +--> ?C_INITSEG

?PR?MAIN?MAIN                                    -----    -----      -----    -----
  +--> ?PR?INITCPU?CPU
  +--> ?PR?SYSPOWERINITIAL?SYSPOWER
  +--> ?CO?MAIN
  +--> ?PR?_PRINTF?PRINTF
  +--> ?PR?MAIN_INIT?CPU
  +--> ?PR?INITVARS?CPU
  +--> ?PR?LOADEEPROM?MAIN
  +--> ?PR?INITIALTIMEREVENT?MAIN
  +--> ?PR?_SETAD5110STEP?MAIN
  +--> ?PR?CHECK_ADAP_IN?CPU
  +--> ?PR?MAIN_LOOP?MAIN
  +--> ?PR?WAITPOWERON?MAIN

BL51 BANKED LINKER/LOCATER V6.22.2.0                                                  05/12/2021  10:45:41  PAGE 5


?PR?SYSPOWERINITIAL?SYSPOWER                     -----    -----      -----    -----
  +--> ?PR?_MCUTIMERDELAYXMS?SYSTIMER
  +--> ?CO?SYSPOWER
  +--> ?PR?_DEBUG_MESSAGE?PRINTF

?PR?_DEBUG_MESSAGE?PRINTF                        -----    -----      01FFH    002EH
  +--> ?PR?_DOPRINT?PRINTF

?PR?_DOPRINT?PRINTF                              0021H.1  0000H.2    0234H    0015H
  +--> ?CO?PRINTF

?PR?_PRINTF?PRINTF                               -----    -----      0206H    002EH
  +--> ?PR?_DOPRINT?PRINTF

?PR?MAIN_INIT?CPU                                -----    -----      01FFH    0004H
  +--> ?PR?GETFWREVEE?ETC_EEP
  +--> ?PR?_READEEP?I2C
  +--> ?CO?CPU
  +--> ?PR?_PRINTF?PRINTF
  +--> ?PR?SAVEFWREVEE?ETC_EEP
  +--> ?PR?GETPROJECTNAMEEE?ETC_EEP
  +--> ?PR?CLEARBASICEE?ETC_EEP
  +--> ?PR?_WRITEEEP?I2C
  +--> ?PR?_DELAY?CPU

?PR?GETFWREVEE?ETC_EEP                           -----    -----      -----    -----
  +--> ?PR?_READEEP?I2C

?PR?_READEEP?I2C                                 -----    -----      0233H    0001H
  +--> ?PR?_READI2C?I2C
  +--> ?PR?_DELAY?CPU

?PR?_READI2C?I2C                                 -----    -----      0234H    0003H
  +--> ?PR?I2CSTART?I2C
  +--> ?PR?_I2CWRITEDATA?I2C
  +--> ?PR?I2CREADDATA?I2C
  +--> ?PR?I2CSTOP?I2C

?PR?I2CSTART?I2C                                 -----    -----      -----    -----
  +--> ?PR?I2CDELAY?I2C

?PR?_I2CWRITEDATA?I2C                            -----    -----      -----    -----
  +--> ?PR?I2CDELAY?I2C

?PR?I2CREADDATA?I2C                              -----    -----      -----    -----
  +--> ?PR?I2CDELAY?I2C

?PR?I2CSTOP?I2C                                  -----    -----      -----    -----
  +--> ?PR?I2CDELAY?I2C

?PR?SAVEFWREVEE?ETC_EEP                          -----    -----      -----    -----
  +--> ?PR?_WRITEEEP?I2C

?PR?_WRITEEEP?I2C                                -----    -----      0207H    0004H
  +--> ?PR?I2CSTART?I2C
  +--> ?PR?_I2CWRITEDATA?I2C
  +--> ?PR?I2CSTOP?I2C
BL51 BANKED LINKER/LOCATER V6.22.2.0                                                  05/12/2021  10:45:41  PAGE 6


  +--> ?PR?_DELAY?CPU

?PR?GETPROJECTNAMEEE?ETC_EEP                     -----    -----      0203H    0001H
  +--> ?PR?_READEEP?I2C

?PR?CLEARBASICEE?ETC_EEP                         -----    -----      -----    -----
  +--> ?CO?ETC_EEP
  +--> ?PR?_PRINTF?PRINTF
  +--> ?PR?_WRITEEEP?I2C

?PR?LOADEEPROM?MAIN                              -----    -----      -----    -----
  +--> ?PR?_READEEP?I2C
  +--> ?PR?_WRITEEEP?I2C

?PR?INITIALTIMEREVENT?MAIN                       -----    -----      -----    -----
  +--> ?PR?MCUTIMERINITIALTIMEREVENT?SYSTIMER
  +--> ?PR?_MCUTIMERACTIVETIMEREVENT?SYSTIMER

?PR?_MCUTIMERACTIVETIMEREVENT?SYSTIMER           -----    -----      0227H    0004H
  +--> ?PR?_MCUTIMERCHECKTIMEREVENT?SYSTIMER

?PR?_MCUTIMERCHECKTIMEREVENT?SYSTIMER            -----    -----      022BH    0005H
  +--> ?PR?MCUTIMERGETTIMERCOUNTER?SYSTIMER

?PR?MCUTIMERGETTIMERCOUNTER?SYSTIMER             -----    -----      0230H    0002H
  +--> ?PR?_ABS?ABS

?PR?_SETAD5110STEP?MAIN                          -----    -----      0203H    0002H
  +--> ?PR?_MAPPING1?MAIN
  +--> ?PR?_WRITEAD5110?I2C

?PR?_MAPPING1?MAIN                               -----    -----      0205H    000FH

?PR?_WRITEAD5110?I2C                             -----    -----      -----    -----
  +--> ?PR?I2CSTART?I2C
  +--> ?PR?_AD5110_I2CWRITEDATA?I2C
  +--> ?PR?I2CSTOP?I2C
  +--> ?PR?_DELAY?CPU

?PR?_AD5110_I2CWRITEDATA?I2C                     -----    -----      -----    -----
  +--> ?PR?I2CDELAY?I2C

?PR?CHECK_ADAP_IN?CPU                            -----    -----      -----    -----
  +--> ?PR?_MCUTIMERDELAYXMS?SYSTIMER

?PR?MAIN_LOOP?MAIN                               -----    -----      -----    -----
  +--> ?CO?MAIN
  +--> ?PR?_PRINTF?PRINTF
  +--> ?PR?_GETROTATENUMBER?MAIN
  +--> ?PR?DVRRECEIVEPASER?HS_DVRPROTOCOL
  +--> ?PR?SYSTIMERHANDLER?SYSTIMER
  +--> ?PR?SYSPOWERHANDLER?SYSPOWER
  +--> ?PR?SCANKEY?KEYREMO
  +--> ?PR?ENCORDERHANDLER_TELI?MAIN
  +--> ?PR?ENCORDERHANDLER?MAIN

?PR?_GETROTATENUMBER?MAIN                        -----    -----      01FFH    0004H
BL51 BANKED LINKER/LOCATER V6.22.2.0                                                  05/12/2021  10:45:41  PAGE 7


  +--> ?PR?_READEEP?I2C

?PR?DVRRECEIVEPASER?HS_DVRPROTOCOL               -----    -----      01FFH    0001H
  +--> ?PR?RS2_READY?CPU
  +--> ?PR?RS2_RX?CPU
  +--> ?PR?_USERINTERFACEBATTERYCHARGEMODE?S...
  +--> ?PR?_MCUTIMERCANCELTIMEREVENT?SYSTIMER
  +--> ?PR?_MCUTIMERACTIVETIMEREVENT?SYSTIMER
  +--> ?PR?_WRITEEEP?I2C
  +--> ?PR?_MCUTIMERREACTIVETIMEREVENT?SYSTIMER
  +--> ?PR?_READEEP?I2C

?PR?_USERINTERFACEBATTERYCHARGEMODE?S...         -----    -----      0203H    0001H
  +--> ?PR?_MCUTIMERCANCELTIMEREVENT?SYSTIMER
  +--> ?PR?_SET_PWM?CPU
  +--> ?PR?_MCUTIMERACTIVETIMEREVENT?SYSTIMER
  +--> ?PR?_USERINTERFACEPOWERSWITCH?SYSPOWER

?PR?_SET_PWM?CPU                                 -----    -----      0204H    0002H
  +--> ?CO?CPU
  +--> ?PR?_PRINTF?PRINTF

?PR?_USERINTERFACEPOWERSWITCH?SYSPOWER           -----    -----      0204H    0001H
  +--> ?CO?SYSPOWER
  +--> ?PR?_PRINTF?PRINTF
  +--> ?PR?_MCUTIMERDELAYXMS?SYSTIMER
  +--> ?PR?_MCUTIMERACTIVETIMEREVENT?SYSTIMER
  +--> ?PR?_MCU_SENDCMDTODVR?MAIN

?PR?_MCU_SENDCMDTODVR?MAIN                       -----    -----      0227H    000CH
  +--> ?CO?MAIN
  +--> ?PR?_READEEP?I2C
  +--> ?PR?_MCULIB_PROTOCOLSENDCMDWITHPARAMN...

?PR?_MCULIB_PROTOCOLSENDCMDWITHPARAMN...         -----    -----      0233H    0017H
  +--> ?PR?_MCULIB_PROTOCOLAPPEND?MAIN
  +--> ?PR?_RS2_TX?CPU

?PR?_MCULIB_PROTOCOLAPPEND?MAIN                  -----    -----      024AH    0007H

?PR?_MCUTIMERREACTIVETIMEREVENT?SYSTIMER         -----    -----      0200H    0004H
  +--> ?PR?_MCUTIMERCHECKTIMEREVENT?SYSTIMER

?PR?SYSTIMERHANDLER?SYSTIMER                     -----    -----      01FFH    0004H
  +--> ?PR?MCUTIMERGETTIMERCOUNTER?SYSTIMER
  +--> ?PR?_MCUTIMERCHECKEVENTVALID?SYSTIMER
  +--> ?PR?_MCUTIMERGETEVENTTIME?SYSTIMER
  +--> ?PR?_MCUTIMERCLREVENTVALID?SYSTIMER
  +--> ?PR?_MCUTIMERGETEVENTID?SYSTIMER
  +--> ?PR?_USERINTERFACETIMEREVENTPROC?SYST...
  +--> ?PR?_SYSTIMEREVENTPROC?SYSTIMER

?PR?_USERINTERFACETIMEREVENTPROC?SYST...         -----    -----      -----    -----
  +--> ?PR?_SETAD5110STEP?MAIN
  +--> ?PR?_WRITEEEP?I2C
  +--> ?PR?_MCU_SENDCMDTODVR?MAIN
  +--> ?PR?_USERINTERFACEBATTERYCHARGEMODE?S...
BL51 BANKED LINKER/LOCATER V6.22.2.0                                                  05/12/2021  10:45:41  PAGE 8


  +--> ?PR?_MCUTIMERACTIVETIMEREVENT?SYSTIMER
  +--> ?PR?ENTER_ISP?MAIN
  +--> ?PR?_USERINTERFACEPOWERSWITCH?SYSPOWER

?PR?ENTER_ISP?MAIN                               -----    -----      0203H    0001H
  +--> ?PR?ISP_INIT?MAIN
  +--> ?PR?_ISP_WRITE?MAIN

?PR?_ISP_WRITE?MAIN                              -----    -----      0204H    0006H

?PR?_SYSTIMEREVENTPROC?SYSTIMER                  -----    -----      -----    -----
  +--> ?PR?_POWERLED?CPU
  +--> ?PR?_MCUTIMERDELAYXMS?SYSTIMER
  +--> ?PR?CHECK_ADAP_IN?CPU
  +--> ?PR?_MCUTIMERCHECKEVENTVALID?SYSTIMER
  +--> ?PR?_MCUTIMERCANCELTIMEREVENT?SYSTIMER
  +--> ?PR?_MCUTIMERACTIVETIMEREVENT?SYSTIMER
  +--> ?PR?_MCU_SENDCMDTODVR?MAIN
  +--> ?PR?GETBATTERYVOLTAGE?MAIN
  +--> ?PR?GETBATTERYBTH?MAIN
  +--> ?PR?_READEEP?I2C
  +--> ?PR?_WRITEEEP?I2C
  +--> ?PR?_USERINTERFACEBATTERYCHARGEMODE?S...
  +--> ?PR?SHOWWORKINGTIMER?CPU

?PR?GETBATTERYVOLTAGE?MAIN                       -----    -----      -----    -----
  +--> ?PR?_GETADCVALUE?MAIN

?PR?GETBATTERYBTH?MAIN                           -----    -----      -----    -----
  +--> ?PR?_GETADCVALUE?MAIN

?PR?SHOWWORKINGTIMER?CPU                         -----    -----      0203H    0002H
  +--> ?CO?CPU
  +--> ?PR?_GRAPHICSPRINT?PRINTF

?PR?_GRAPHICSPRINT?PRINTF                        -----    -----      0205H    002FH
  +--> ?PR?_DOPRINT?PRINTF

?PR?SYSPOWERHANDLER?SYSPOWER                     -----    -----      -----    -----
  +--> ?PR?_SYSPOWERSWITCH?SYSPOWER

?PR?_SYSPOWERSWITCH?SYSPOWER                     -----    -----      01FFH    0001H
  +--> ?PR?_USERINTERFACEPOWERSWITCH?SYSPOWER

?PR?SCANKEY?KEYREMO                              -----    -----      -----    -----
  +--> ?PR?_GETKEY?KEYREMO
  +--> ?PR?_WRITEEEP?I2C
  +--> ?PR?_MCUTIMERACTIVETIMEREVENT?SYSTIMER

?PR?_GETKEY?KEYREMO                              0021H.1  0000H.1    -----    -----

?PR?ENCORDERHANDLER_TELI?MAIN                    -----    -----      01FFH    0028H
  +--> ?PR?_MCU_SENDCMDTODVR?MAIN
  +--> ?PR?_MCUTIMERCANCELTIMEREVENT?SYSTIMER
  +--> ?PR?_MCUTIMERACTIVETIMEREVENT?SYSTIMER

?PR?ENCORDERHANDLER?MAIN                         -----    -----      01FFH    0020H
BL51 BANKED LINKER/LOCATER V6.22.2.0                                                  05/12/2021  10:45:41  PAGE 9


  +--> ?PR?_MCU_SENDCMDTODVR?MAIN
  +--> ?PR?_MCUTIMERCANCELTIMEREVENT?SYSTIMER
  +--> ?PR?_MCUTIMERACTIVETIMEREVENT?SYSTIMER

?PR?WAITPOWERON?MAIN                             -----    -----      -----    -----
  +--> ?CO?MAIN
  +--> ?PR?_PRINTF?PRINTF
  +--> ?PR?_MCUTIMERCANCELTIMEREVENT?SYSTIMER
  +--> ?PR?SAVEROTATENUMBER?MAIN
  +--> ?PR?SYSPOWERHANDLER?SYSPOWER
  +--> ?PR?SYSTIMERHANDLER?SYSTIMER
  +--> ?PR?SCANKEY?KEYREMO
  +--> ?PR?_MCUTIMERACTIVETIMEREVENT?SYSTIMER
  +--> ?PR?CHECK_ADAP_IN?CPU
  +--> ?PR?SET_MCU_POWER_DOWN_MODE?CPU
  +--> ?PR?_WRITEEEP?I2C

?PR?SAVEROTATENUMBER?MAIN                        -----    -----      01FFH    0008H
  +--> ?PR?_READEEP?I2C
  +--> ?PR?_WRITEEEP?I2C

?PR?SET_MCU_POWER_DOWN_MODE?CPU                  -----    -----      -----    -----
  +--> ?CO?CPU
  +--> ?PR?_PRINTF?PRINTF

?C_INITSEG                                       -----    -----      -----    -----
  +--> ?CO?PRINTF



SYMBOL TABLE OF MODULE:  .\Output\ml070i_MRMCU (?C_STARTUP)

  VALUE           TYPE          NAME
  ----------------------------------

  -------         MODULE        ?C_STARTUP
  C:578EH         SEGMENT       ?C_C51STARTUP
  I:007AH         SEGMENT       ?STACK
  C:0000H         PUBLIC        ?C_STARTUP
  D:00E0H         SYMBOL        ACC
  D:00F0H         SYMBOL        B
  D:0083H         SYMBOL        DPH
  D:0082H         SYMBOL        DPL
  N:0000H         SYMBOL        IBPSTACK
  N:0100H         SYMBOL        IBPSTACKTOP
  N:0080H         SYMBOL        IDATALEN
  C:5791H         SYMBOL        IDATALOOP
  N:0000H         SYMBOL        PBPSTACK
  N:0100H         SYMBOL        PBPSTACKTOP
  N:0000H         SYMBOL        PDATALEN
  N:0000H         SYMBOL        PDATASTART
  N:0000H         SYMBOL        PPAGE
  N:0000H         SYMBOL        PPAGEENABLE
  D:00A0H         SYMBOL        PPAGE_SFR
  D:0081H         SYMBOL        SP
  C:578EH         SYMBOL        STARTUP1
  N:0000H         SYMBOL        XBPSTACK
BL51 BANKED LINKER/LOCATER V6.22.2.0                                                  05/12/2021  10:45:41  PAGE 10


  N:0000H         SYMBOL        XBPSTACKTOP
  N:0000H         SYMBOL        XDATALEN
  N:0000H         SYMBOL        XDATASTART
  C:0000H         LINE#         126
  C:578EH         LINE#         133
  C:5790H         LINE#         134
  C:5791H         LINE#         135
  C:5792H         LINE#         136
  C:5794H         LINE#         185
  C:5797H         LINE#         196
  -------         ENDMOD        ?C_STARTUP

  -------         MODULE        CPU
  C:0000H         SYMBOL        _ICE_DUMMY_
  D:0091H         PUBLIC        P1M0
  X:0289H         PUBLIC        second
  C:5BE1H         PUBLIC        InitCPU
  D:00B1H         PUBLIC        P3M0
  D:0096H         PUBLIC        P2M1
  C:22C6H         PUBLIC        timer0_int
  X:028AH         PUBLIC        FormatSDCard
  D:00B3H         PUBLIC        P4M0
  D:00B2H         PUBLIC        P3M1
  D:00B4H         PUBLIC        P4M1
  D:00B0H         PUBLIC        P3
  C:6377H         PUBLIC        timer2_int
  D:00E8H         PUBLIC        P4
  X:028BH         PUBLIC        FormatWait
  X:028CH         PUBLIC        Power_Msg_Count
  X:028EH         PUBLIC        IE_Temp
  D:00F9H         PUBLIC        CH
  D:0022H         PUBLIC        DVR_buf
  D:0040H         PUBLIC        keytic
  D:00A8H         PUBLIC        IE
  C:3953H         PUBLIC        ShowWorkingTimer
  D:00E9H         PUBLIC        CL
  D:0042H         PUBLIC        RS2_in
  B:0020H.0       PUBLIC        RepeatKey
  X:028FH         PUBLIC        LED_FLASH_COUNT
  D:0043H         PUBLIC        RS2_out
  C:62C4H         PUBLIC        _delay
  D:00FCH         PUBLIC        CCAP2H
  B:00E8H.0       PUBLIC        P4_0
  D:00FDH         PUBLIC        CCAP3H
  B:00E8H.1       PUBLIC        P4_1
  B:0090H.4       PUBLIC        P1_4
  B:0080H.5       PUBLIC        P0_5
  X:0291H         PUBLIC        minute
  B:00E8H.2       PUBLIC        P4_2
  D:00ECH         PUBLIC        CCAP2L
  B:00A8H.4       PUBLIC        ES
  D:00EDH         PUBLIC        CCAP3L
  D:00DCH         PUBLIC        CCAPM2
  D:00DDH         PUBLIC        CCAPM3
  D:00B8H         PUBLIC        IP
  B:0098H.0       PUBLIC        RI
  B:0098H.1       PUBLIC        TI
BL51 BANKED LINKER/LOCATER V6.22.2.0                                                  05/12/2021  10:45:41  PAGE 11


  D:0044H         PUBLIC        tic01
  B:0020H.1       PUBLIC        KeyReady
  C:623DH         PUBLIC        RS2_rx
  B:0020H.2       PUBLIC        RS_Xbusy
  D:0045H         PUBLIC        tic02
  D:00D9H         PUBLIC        CMOD
  D:00D8H         PUBLIC        CCON
  C:639DH         PUBLIC        _RS2_tx
  X:0292H         PUBLIC        Time5ms
  X:0293H         PUBLIC        month
  X:0294H         PUBLIC        keyticSec
  D:0046H         PUBLIC        Key
  C:61FFH         PUBLIC        int2_int
  C:621EH         PUBLIC        int3_int
  X:0295H         PUBLIC        bytEncorderCountTemp
  C:5662H         PUBLIC        ext0_int
  C:60C4H         PUBLIC        serial_int
  C:000EH         PUBLIC        ext1_int
  X:0297H         PUBLIC        EncorderCountINT
  D:0099H         PUBLIC        SBUF
  D:0087H         PUBLIC        PCON
  X:029BH         PUBLIC        bytPNFlagEncoder
  D:0098H         PUBLIC        SCON
  C:62DCH         PUBLIC        InitVars
  D:0089H         PUBLIC        TMOD
  D:0088H         PUBLIC        TCON
  C:4B41H         PUBLIC        main_init
  X:029CH         PUBLIC        day
  X:029DH         PUBLIC        bytFastEncorderCountTemp
  X:029EH         PUBLIC        hour
  B:00C0H.1       PUBLIC        IE2
  B:00C0H.5       PUBLIC        IE3
  C:55BDH         PUBLIC        _SET_PWM
  X:029FH         PUBLIC        PowerDownWait
  D:0047H         PUBLIC        tm01
  D:0049H         PUBLIC        stopWatch
  X:02A0H         PUBLIC        EncorderCount
  D:004BH         SYMBOL        RS_buf
  C:6095H         PUBLIC        SET_MCU_POWER_DOWN_MODE
  D:0069H         PUBLIC        tic_PWR_SAVING
  D:006DH         PUBLIC        tic_Init_time
  B:00A8H.5       PUBLIC        ET2
  B:00C8H.7       PUBLIC        TF2
  D:008CH         PUBLIC        TH0
  B:00A8H.0       PUBLIC        EX0
  D:008DH         PUBLIC        TH1
  X:02A4H         PUBLIC        bytHoldOn3SPowerOff
  B:00A8H.2       PUBLIC        EX1
  B:00C0H.2       PUBLIC        EX2
  B:00C0H.0       PUBLIC        IT2
  C:6392H         PUBLIC        RS2_ready
  C:625BH         PUBLIC        Check_ADAP_IN
  B:00C0H.6       PUBLIC        EX3
  B:00C0H.4       PUBLIC        IT3
  D:008AH         PUBLIC        TL0
  X:02A5H         PUBLIC        bytHoldOn3SPowerOffMode
  B:0020H.3       PUBLIC        RS2_Xbusy
BL51 BANKED LINKER/LOCATER V6.22.2.0                                                  05/12/2021  10:45:41  PAGE 12


  B:00C8H.2       PUBLIC        TR2
  X:02A6H         PUBLIC        updn_reg
  B:0020H.4       PUBLIC        PWR_SAVING_ACT_FLAG
  D:0071H         PUBLIC        RS_in
  D:0072H         PUBLIC        RS_out
  C:5FBBH         PUBLIC        serial2_int
  D:009AH         PUBLIC        S2BUF
  X:02AAH         PUBLIC        year1
  X:02ABH         PUBLIC        year2
  C:5A9EH         PUBLIC        _PowerLED
  D:00AAH         PUBLIC        S2CON
  D:00C8H         PUBLIC        T2CON
  D:00BAH         PUBLIC        S2BRT
  X:02ACH         PUBLIC        DVR_FACTORY_MODE
  D:0073H         PUBLIC        tm001
  D:00A6H         PUBLIC        AUXR2
  B:0020H.5       PUBLIC        ChangeKey
  D:0074H         PUBLIC        tic_pc
  D:0076H         PUBLIC        SystemClock
  D:0093H         PUBLIC        P0M0
  D:00ADH         PUBLIC        AUXIE
  -------         PROC          MAIN_INIT
  -------         DO            
  X:01FFH         SYMBOL        rev
  -------         ENDDO         
  C:4B41H         LINE#         100
  C:4B41H         LINE#         101
  C:4B41H         LINE#         104
  C:4B4AH         LINE#         107
  C:4B8CH         LINE#         109
  C:4B9BH         LINE#         110
  C:4B9BH         LINE#         111
  C:4BB5H         LINE#         112
  C:4BB8H         LINE#         113
  C:4BFAH         LINE#         114
  C:4BFAH         LINE#         118
  C:4C09H         LINE#         119
  C:4C09H         LINE#         122
  C:4C09H         LINE#         123
  C:4C0FH         LINE#         124
  C:4C12H         LINE#         125
  C:4C12H         LINE#         126
  C:4C14H         LINE#         128
  C:4C14H         LINE#         129
  C:4C1DH         LINE#         130
  C:4C26H         LINE#         131
  C:4C2DH         LINE#         133
  C:4C2DH         LINE#         136
  C:4C39H         LINE#         137
  C:4C39H         LINE#         138
  C:4C42H         LINE#         139
  C:4C4BH         LINE#         141
  C:4C53H         LINE#         142
  C:4C5BH         LINE#         143
  C:4C63H         LINE#         145
  C:4C6BH         LINE#         146
  C:4C73H         LINE#         147
BL51 BANKED LINKER/LOCATER V6.22.2.0                                                  05/12/2021  10:45:41  PAGE 13


  C:4C7BH         LINE#         149
  C:4C84H         LINE#         150
  C:4C84H         LINE#         153
  C:4C9CH         LINE#         156
  C:4CA1H         LINE#         159
  C:4CA9H         LINE#         160
  C:4CAEH         LINE#         162
  -------         ENDPROC       MAIN_INIT
  -------         PROC          INITCPU
  C:5BE1H         LINE#         170
  C:5BE1H         LINE#         171
  C:5BE1H         LINE#         175
  C:5BE4H         LINE#         183
  C:5BE7H         LINE#         185
  C:5BEAH         LINE#         187
  C:5BEDH         LINE#         195
  C:5BF3H         LINE#         197
  C:5BF6H         LINE#         198
  C:5BF9H         LINE#         202
  C:5BFCH         LINE#         205
  C:5BFEH         LINE#         206
  C:5C00H         LINE#         225
  C:5C03H         LINE#         226
  C:5C05H         LINE#         227
  C:5C07H         LINE#         234
  C:5C0AH         LINE#         235
  C:5C0DH         LINE#         238
  C:5C10H         LINE#         241
  C:5C13H         LINE#         243
  C:5C15H         LINE#         245
  C:5C17H         LINE#         246
  C:5C19H         LINE#         250
  C:5C1CH         LINE#         251
  C:5C1FH         LINE#         261
  C:5C22H         LINE#         264
  C:5C25H         LINE#         266
  C:5C28H         LINE#         268
  C:5C2BH         LINE#         269
  C:5C2DH         LINE#         270
  C:5C30H         LINE#         271
  C:5C32H         LINE#         273
  -------         ENDPROC       INITCPU
  -------         PROC          SET_MCU_POWER_DOWN_MODE
  C:6095H         LINE#         276
  C:6095H         LINE#         277
  C:6095H         LINE#         279
  C:609EH         LINE#         281
  C:60A0H         LINE#         282
  C:60A2H         LINE#         283
  C:60A4H         LINE#         285
  C:60A6H         LINE#         286
  C:60A8H         LINE#         287
  C:60AAH         LINE#         289
  C:60B0H         LINE#         290
  C:60B3H         LINE#         292
  C:60B9H         LINE#         293
  C:60BBH         LINE#         294
BL51 BANKED LINKER/LOCATER V6.22.2.0                                                  05/12/2021  10:45:41  PAGE 14


  C:60BDH         LINE#         295
  C:60C0H         LINE#         296
  C:60C1H         LINE#         297
  C:60C2H         LINE#         298
  C:60C3H         LINE#         302
  -------         ENDPROC       SET_MCU_POWER_DOWN_MODE
  -------         PROC          CHECK_ADAP_IN
  C:625BH         LINE#         305
  C:625BH         LINE#         306
  C:625BH         LINE#         308
  C:6261H         LINE#         309
  C:6261H         LINE#         310
  C:6268H         LINE#         312
  C:626EH         LINE#         313
  C:6271H         LINE#         315
  C:6274H         LINE#         316
  C:6274H         LINE#         318
  C:6276H         LINE#         319
  -------         ENDPROC       CHECK_ADAP_IN
  -------         PROC          _SET_PWM
  X:0204H         SYMBOL        index
  X:0205H         SYMBOL        val
  C:55BDH         LINE#         321
  C:55C5H         LINE#         322
  C:55C5H         LINE#         324
  C:55DEH         LINE#         326
  C:55F0H         LINE#         327
  C:55F0H         LINE#         328
  C:55F0H         LINE#         330
  C:55F3H         LINE#         331
  C:55FEH         LINE#         332
  C:5601H         LINE#         334
  C:5604H         LINE#         335
  C:5604H         LINE#         336
  C:5606H         LINE#         337
  C:5608H         LINE#         338
  C:5608H         LINE#         340
  C:5610H         LINE#         341
  C:5610H         LINE#         342
  C:5613H         LINE#         343
  C:5616H         LINE#         344
  C:5619H         LINE#         345
  C:561FH         LINE#         346
  C:5621H         LINE#         347
  C:5629H         LINE#         348
  C:5629H         LINE#         349
  C:562CH         LINE#         350
  C:562FH         LINE#         351
  C:5632H         LINE#         352
  C:563BH         LINE#         353
  C:563BH         LINE#         355
  C:5642H         LINE#         356
  C:5642H         LINE#         357
  C:5645H         LINE#         358
  C:5647H         LINE#         359
  C:5647H         LINE#         393
  C:5648H         LINE#         394
BL51 BANKED LINKER/LOCATER V6.22.2.0                                                  05/12/2021  10:45:41  PAGE 15


  C:5648H         LINE#         395
  C:564BH         LINE#         396
  C:5656H         LINE#         397
  C:5659H         LINE#         398
  C:565AH         LINE#         399
  C:565AH         LINE#         400
  C:565DH         LINE#         401
  C:565EH         LINE#         402
  C:565EH         LINE#         403
  C:5661H         LINE#         404
  C:5661H         LINE#         406
  C:5661H         LINE#         407
  C:5661H         LINE#         408
  C:5661H         LINE#         411
  -------         ENDPROC       _SET_PWM
  -------         PROC          TIMER0_INT
  -------         DO            
  D:000FH         SYMBOL        TempKey
  -------         ENDDO         
  C:22C6H         LINE#         420
  C:22D3H         LINE#         427
  C:22D5H         LINE#         432
  C:22D7H         LINE#         435
  C:22E2H         LINE#         436
  C:22E2H         LINE#         437
  C:22F0H         LINE#         438
  C:22F3H         LINE#         439
  C:22F5H         LINE#         440
  C:22F5H         LINE#         442
  C:22FBH         LINE#         443
  C:22FDH         LINE#         444
  C:2306H         LINE#         445
  C:2306H         LINE#         447
  C:230FH         LINE#         448
  C:2319H         LINE#         449
  C:2319H         LINE#         450
  C:2321H         LINE#         451
  C:2329H         LINE#         452
  C:2331H         LINE#         453
  C:2334H         LINE#         454
  C:2336H         LINE#         458
  C:2344H         LINE#         459
  C:2347H         LINE#         461
  C:234AH         LINE#         463
  C:2353H         LINE#         464
  C:2353H         LINE#         465
  C:236EH         LINE#         466
  C:236EH         LINE#         467
  C:236EH         LINE#         468
  C:2370H         LINE#         469
  C:2388H         LINE#         470
  C:2388H         LINE#         471
  C:2388H         LINE#         472
  C:238AH         LINE#         473
  C:23A2H         LINE#         474
  C:23A2H         LINE#         476
  C:23A2H         LINE#         477
BL51 BANKED LINKER/LOCATER V6.22.2.0                                                  05/12/2021  10:45:41  PAGE 16


  C:23A4H         LINE#         478
  C:23BFH         LINE#         479
  C:23BFH         LINE#         481
  C:23C3H         LINE#         482
  C:23C6H         LINE#         483
  C:23DEH         LINE#         484
  C:23DEH         LINE#         486
  C:23DEH         LINE#         487
  C:23E0H         LINE#         488
  C:23F8H         LINE#         489
  C:23F8H         LINE#         491
  C:23F8H         LINE#         492
  C:23FAH         LINE#         493
  C:2415H         LINE#         494
  C:2415H         LINE#         496
  C:2415H         LINE#         497
  C:2417H         LINE#         498
  C:243BH         LINE#         499
  C:243BH         LINE#         501
  C:2440H         LINE#         502
  C:2440H         LINE#         503
  C:2443H         LINE#         505
  C:2443H         LINE#         506
  C:245BH         LINE#         507
  C:245BH         LINE#         508
  C:2480H         LINE#         509
  C:248EH         LINE#         510
  C:248EH         LINE#         511
  C:24A6H         LINE#         512
  C:24A6H         LINE#         513
  C:24CBH         LINE#         514
  C:24D9H         LINE#         515
  C:24D9H         LINE#         516
  C:24F1H         LINE#         517
  C:24F1H         LINE#         518
  C:2516H         LINE#         519
  C:2524H         LINE#         520
  C:2524H         LINE#         521
  C:253CH         LINE#         522
  C:253CH         LINE#         523
  C:2561H         LINE#         524
  C:256FH         LINE#         525
  C:256FH         LINE#         526
  C:2587H         LINE#         527
  C:2587H         LINE#         528
  C:25ABH         LINE#         529
  C:25B9H         LINE#         530
  C:25B9H         LINE#         531
  C:25D1H         LINE#         532
  C:25D1H         LINE#         533
  C:25F5H         LINE#         534
  C:2603H         LINE#         535
  C:2603H         LINE#         536
  C:261BH         LINE#         537
  C:261BH         LINE#         538
  C:263FH         LINE#         539
  C:264DH         LINE#         540
BL51 BANKED LINKER/LOCATER V6.22.2.0                                                  05/12/2021  10:45:41  PAGE 17


  C:264DH         LINE#         541
  C:2665H         LINE#         542
  C:2665H         LINE#         543
  C:2689H         LINE#         544
  C:2697H         LINE#         545
  C:2697H         LINE#         546
  C:2697H         LINE#         558
  C:269DH         LINE#         559
  C:269DH         LINE#         560
  C:26ACH         LINE#         561
  C:26ACH         LINE#         562
  C:26CBH         LINE#         563
  C:26D2H         LINE#         564
  C:26D2H         LINE#         565
  C:26D2H         LINE#         566
  C:26D2H         LINE#         567
  C:26D2H         LINE#         576
  C:26E0H         LINE#         579
  C:26E8H         LINE#         580
  C:26EBH         LINE#         581
  C:26EDH         LINE#         583
  C:26F3H         LINE#         584
  C:26F3H         LINE#         588
  C:26F5H         LINE#         591
  C:26FCH         LINE#         592
  C:2701H         LINE#         594
  C:2703H         LINE#         596
  C:2703H         LINE#         597
  C:270DH         LINE#         598
  C:2715H         LINE#         601
  C:2723H         LINE#         602
  C:2737H         LINE#         603
  C:2741H         LINE#         604
  C:274FH         LINE#         646
  C:275BH         LINE#         647
  C:275BH         LINE#         648
  C:2763H         LINE#         649
  C:2763H         LINE#         650
  C:2774H         LINE#         651
  C:2774H         LINE#         652
  C:2777H         LINE#         653
  C:2779H         LINE#         654
  C:277BH         LINE#         655
  C:277BH         LINE#         656
  C:277DH         LINE#         657
  C:2799H         LINE#         658
  C:2799H         LINE#         659
  C:279CH         LINE#         660
  C:279CH         LINE#         661
  C:279FH         LINE#         662
  C:27A1H         LINE#         663
  C:27A6H         LINE#         664
  C:27A8H         LINE#         665
  C:27A8H         LINE#         666
  C:27AAH         LINE#         667
  C:27B4H         LINE#         669
  C:27B7H         LINE#         670
BL51 BANKED LINKER/LOCATER V6.22.2.0                                                  05/12/2021  10:45:41  PAGE 18


  C:27B7H         LINE#         671
  C:27BAH         LINE#         672
  C:27BCH         LINE#         673
  C:27C2H         LINE#         674
  C:27C4H         LINE#         675
  C:27C4H         LINE#         677
  C:27CAH         LINE#         678
  C:27CAH         LINE#         680
  C:27D2H         LINE#         681
  C:27D4H         LINE#         683
  C:27D4H         LINE#         684
  C:27EAH         LINE#         685
  C:27EDH         LINE#         686
  C:27EFH         LINE#         687
  C:27F1H         LINE#         689
  C:27F1H         LINE#         690
  C:27F4H         LINE#         691
  C:27F6H         LINE#         692
  C:27F6H         LINE#         694
  C:27F8H         LINE#         695
  C:27FEH         LINE#         696
  C:27FEH         LINE#         728
  C:27FEH         LINE#         730
  -------         ENDPROC       TIMER0_INT
  -------         PROC          SHOWWORKINGTIMER
  -------         DO            
  X:0203H         SYMBOL        val
  -------         ENDDO         
  C:3953H         LINE#         735
  C:3953H         LINE#         736
  C:3953H         LINE#         739
  C:395EH         LINE#         741
  C:3965H         LINE#         742
  C:3965H         LINE#         743
  C:3995H         LINE#         744
  C:3997H         LINE#         745
  C:399EH         LINE#         746
  C:399EH         LINE#         747
  C:39C1H         LINE#         748
  C:39C3H         LINE#         749
  C:39CCH         LINE#         750
  C:39CCH         LINE#         751
  C:39E0H         LINE#         752
  C:39E2H         LINE#         754
  C:39E2H         LINE#         755
  C:39F8H         LINE#         756
  C:39F8H         LINE#         760
  C:3A40H         LINE#         764
  C:3A4AH         LINE#         765
  C:3A54H         LINE#         766
  C:3A5DH         LINE#         767
  C:3A67H         LINE#         769
  C:3A71H         LINE#         770
  C:3A7BH         LINE#         771
  C:3A88H         LINE#         772
  C:3A90H         LINE#         774
  C:3A99H         LINE#         780
BL51 BANKED LINKER/LOCATER V6.22.2.0                                                  05/12/2021  10:45:41  PAGE 19


  C:3AA3H         LINE#         781
  C:3AA3H         LINE#         782
  C:3B02H         LINE#         783
  C:3B10H         LINE#         785
  C:3B12H         LINE#         787
  C:3B12H         LINE#         791
  C:3B4EH         LINE#         793
  C:3B5CH         LINE#         794
  C:3B73H         LINE#         796
  C:3B87H         LINE#         800
  C:3B87H         LINE#         803
  C:3BDAH         LINE#         807
  C:3BE4H         LINE#         808
  C:3BEEH         LINE#         809
  C:3BF8H         LINE#         810
  C:3C02H         LINE#         811
  C:3C0CH         LINE#         812
  C:3C16H         LINE#         813
  C:3C20H         LINE#         814
  C:3C2AH         LINE#         815
  C:3C34H         LINE#         816
  C:3C3FH         LINE#         818
  C:3C49H         LINE#         819
  C:3C51H         LINE#         820
  C:3C5BH         LINE#         821
  C:3C63H         LINE#         822
  C:3C6DH         LINE#         823
  C:3C75H         LINE#         824
  C:3C7FH         LINE#         825
  C:3C87H         LINE#         826
  C:3C8FH         LINE#         827
  C:3C99H         LINE#         828
  C:3CA3H         LINE#         829
  C:3CADH         LINE#         830
  C:3CB7H         LINE#         831
  C:3CC1H         LINE#         832
  C:3CCBH         LINE#         833
  C:3CD5H         LINE#         834
  C:3CDFH         LINE#         835
  C:3CE9H         LINE#         836
  C:3CF3H         LINE#         837
  C:3CFEH         LINE#         839
  C:3D0AH         LINE#         840
  C:3D15H         LINE#         842
  C:3D1FH         LINE#         843
  C:3D27H         LINE#         844
  C:3D31H         LINE#         845
  C:3D39H         LINE#         846
  C:3D45H         LINE#         847
  C:3D4BH         LINE#         849
  C:3D63H         LINE#         867
  -------         ENDPROC       SHOWWORKINGTIMER
  -------         PROC          INITVARS
  -------         DO            
  D:0007H         SYMBOL        j
  -------         ENDDO         
  C:62DCH         LINE#         877
BL51 BANKED LINKER/LOCATER V6.22.2.0                                                  05/12/2021  10:45:41  PAGE 20


  C:62DCH         LINE#         878
  C:62DCH         LINE#         880
  C:62E8H         LINE#         881
  C:62F1H         LINE#         883
  -------         ENDPROC       INITVARS
  -------         PROC          _POWERLED
  D:0007H         SYMBOL        flag
  C:5A9EH         LINE#         889
  C:5A9EH         LINE#         890
  C:5A9EH         LINE#         892
  C:5AD2H         LINE#         893
  C:5AD2H         LINE#         894
  C:5AD2H         LINE#         895
  C:5AD4H         LINE#         896
  C:5AD6H         LINE#         897
  C:5AD7H         LINE#         898
  C:5AD7H         LINE#         899
  C:5AD9H         LINE#         900
  C:5ADBH         LINE#         901
  C:5ADCH         LINE#         902
  C:5ADCH         LINE#         903
  C:5ADCH         LINE#         904
  C:5ADCH         LINE#         905
  C:5ADEH         LINE#         906
  C:5ADEH         LINE#         907
  C:5ADEH         LINE#         908
  C:5ADEH         LINE#         909
  C:5AE0H         LINE#         910
  C:5AE0H         LINE#         911
  C:5AE3H         LINE#         912
  C:5AE3H         LINE#         913
  C:5AE5H         LINE#         914
  C:5AE7H         LINE#         915
  C:5AE8H         LINE#         922
  C:5AE8H         LINE#         923
  C:5AEBH         LINE#         924
  C:5AEBH         LINE#         925
  C:5AEDH         LINE#         926
  C:5AEFH         LINE#         927
  C:5AF0H         LINE#         929
  C:5AF0H         LINE#         930
  C:5AF0H         LINE#         931
  C:5AF0H         LINE#         932
  C:5AF0H         LINE#         933
  C:5AF2H         LINE#         934
  C:5AF2H         LINE#         935
  C:5AF5H         LINE#         936
  C:5AF5H         LINE#         937
  C:5AF7H         LINE#         938
  C:5AF9H         LINE#         939
  C:5AFAH         LINE#         941
  C:5AFAH         LINE#         942
  C:5AFCH         LINE#         943
  C:5AFEH         LINE#         944
  C:5AFEH         LINE#         945
  C:5AFFH         LINE#         946
  C:5AFFH         LINE#         947
BL51 BANKED LINKER/LOCATER V6.22.2.0                                                  05/12/2021  10:45:41  PAGE 21


  C:5B02H         LINE#         948
  C:5B02H         LINE#         949
  C:5B04H         LINE#         950
  C:5B06H         LINE#         952
  C:5B06H         LINE#         953
  C:5B08H         LINE#         954
  C:5B08H         LINE#         956
  C:5B0AH         LINE#         958
  C:5B0BH         LINE#         959
  C:5B0BH         LINE#         960
  C:5B0EH         LINE#         961
  C:5B0EH         LINE#         962
  C:5B10H         LINE#         963
  C:5B12H         LINE#         965
  C:5B12H         LINE#         966
  C:5B14H         LINE#         967
  C:5B14H         LINE#         969
  C:5B16H         LINE#         972
  C:5B16H         LINE#         973
  C:5B16H         LINE#         974
  C:5B16H         LINE#         975
  C:5B16H         LINE#         976
  -------         ENDPROC       _POWERLED
  -------         PROC          EXT0_INT
  C:5662H         LINE#         985
  C:566FH         LINE#         987
  C:5671H         LINE#         988
  C:567AH         LINE#         989
  C:5697H         LINE#         991
  C:56B8H         LINE#         993
  C:56C5H         LINE#         994
  C:56C5H         LINE#         995
  C:56E4H         LINE#         996
  C:56E9H         LINE#         997
  C:56EBH         LINE#         999
  C:56F1H         LINE#         1001
  C:56F3H         LINE#         1002
  -------         ENDPROC       EXT0_INT
  -------         PROC          EXT1_INT
  C:000EH         LINE#         1004
  C:000EH         LINE#         1006
  C:0010H         LINE#         1009
  -------         ENDPROC       EXT1_INT
  -------         PROC          SERIAL_INT
  C:60C4H         LINE#         1032
  C:60CBH         LINE#         1038
  C:60CEH         LINE#         1047
  C:60D5H         LINE#         1048
  C:60D7H         LINE#         1049
  C:60E5H         LINE#         1053
  C:60E7H         LINE#         1055
  C:60E7H         LINE#         1057
  C:60EAH         LINE#         1058
  C:60ECH         LINE#         1059
  C:60EEH         LINE#         1060
  C:60EEH         LINE#         1061
  -------         ENDPROC       SERIAL_INT
BL51 BANKED LINKER/LOCATER V6.22.2.0                                                  05/12/2021  10:45:41  PAGE 22


  -------         PROC          SERIAL2_INT
  C:5FBBH         LINE#         1065
  C:5FC2H         LINE#         1070
  C:5FCAH         LINE#         1071
  C:5FCAH         LINE#         1073
  C:5FCDH         LINE#         1075
  C:5FD4H         LINE#         1078
  C:5FD6H         LINE#         1079
  C:5FE4H         LINE#         1080
  C:5FE4H         LINE#         1082
  C:5FECH         LINE#         1083
  C:5FECH         LINE#         1084
  C:5FEFH         LINE#         1085
  C:5FF1H         LINE#         1086
  C:5FF1H         LINE#         1087
  -------         ENDPROC       SERIAL2_INT
  -------         PROC          RS2_READY
  C:6392H         LINE#         1123
  C:6392H         LINE#         1124
  C:6392H         LINE#         1125
  C:639AH         LINE#         1126
  C:639CH         LINE#         1127
  -------         ENDPROC       RS2_READY
  -------         PROC          RS2_RX
  -------         DO            
  D:0007H         SYMBOL        ret
  -------         ENDDO         
  C:623DH         LINE#         1131
  C:623DH         LINE#         1132
  C:623DH         LINE#         1135
  C:6240H         LINE#         1136
  C:6247H         LINE#         1137
  C:6249H         LINE#         1138
  C:6254H         LINE#         1139
  C:6257H         LINE#         1140
  C:625AH         LINE#         1142
  C:625AH         LINE#         1143
  -------         ENDPROC       RS2_RX
  -------         PROC          _RS2_TX
  D:0007H         SYMBOL        tx_buf
  C:639DH         LINE#         1160
  C:639DH         LINE#         1161
  C:639DH         LINE#         1163
  C:63A0H         LINE#         1164
  C:63A2H         LINE#         1165
  C:63A4H         LINE#         1166
  -------         ENDPROC       _RS2_TX
  -------         PROC          TIMER2_INT
  C:6377H         LINE#         1207
  C:6379H         LINE#         1366
  C:637BH         LINE#         1368
  C:6383H         LINE#         1370
  -------         ENDPROC       TIMER2_INT
  -------         PROC          _DELAY
  D:0007H         SYMBOL        cnt
  -------         DO            
  D:0004H         SYMBOL        ttic01
BL51 BANKED LINKER/LOCATER V6.22.2.0                                                  05/12/2021  10:45:41  PAGE 23


  -------         ENDDO         
  C:62C4H         LINE#         1372
  C:62C4H         LINE#         1373
  C:62C4H         LINE#         1376
  C:62D2H         LINE#         1377
  C:62D2H         LINE#         1379
  C:62DBH         LINE#         1380
  -------         ENDPROC       _DELAY
  -------         PROC          INT2_INT
  C:61FFH         LINE#         1384
  C:6205H         LINE#         1386
  C:6207H         LINE#         1387
  C:6209H         LINE#         1388
  C:620CH         LINE#         1389
  C:6212H         LINE#         1390
  C:6217H         LINE#         1391
  -------         ENDPROC       INT2_INT
  -------         PROC          INT3_INT
  C:621EH         LINE#         1393
  C:6224H         LINE#         1395
  C:6226H         LINE#         1396
  C:6228H         LINE#         1397
  C:622BH         LINE#         1398
  C:6231H         LINE#         1399
  C:6236H         LINE#         1400
  -------         ENDPROC       INT3_INT
  -------         ENDMOD        CPU

  -------         MODULE        ETC_EEP
  C:0000H         SYMBOL        _ICE_DUMMY_
  C:5D66H         PUBLIC        GetProjectNameEE
  C:535CH         PUBLIC        ClearBasicEE
  C:6292H         PUBLIC        SaveFWRevEE
  C:5CD2H         PUBLIC        GetFWRevEE
  -------         PROC          GETFWREVEE
  -------         DO            
  D:0004H         SYMBOL        rev
  -------         ENDDO         
  C:5CD2H         LINE#         17
  C:5CD2H         LINE#         18
  C:5CD2H         LINE#         19
  C:5CD8H         LINE#         26
  C:5D1BH         LINE#         28
  C:5D1BH         LINE#         29
  -------         ENDPROC       GETFWREVEE
  -------         PROC          GETPROJECTNAMEEE
  -------         DO            
  X:0203H         SYMBOL        rev
  -------         ENDDO         
  C:5D66H         LINE#         31
  C:5D66H         LINE#         32
  C:5D66H         LINE#         33
  C:5D6CH         LINE#         35
  C:5D7AH         LINE#         36
  C:5D89H         LINE#         37
  C:5D98H         LINE#         38
  C:5DA7H         LINE#         40
BL51 BANKED LINKER/LOCATER V6.22.2.0                                                  05/12/2021  10:45:41  PAGE 24


  C:5DACH         LINE#         41
  -------         ENDPROC       GETPROJECTNAMEEE
  -------         PROC          SAVEFWREVEE
  C:6292H         LINE#         43
  C:6292H         LINE#         44
  C:6292H         LINE#         51
  C:629AH         LINE#         52
  C:62A2H         LINE#         53
  -------         ENDPROC       SAVEFWREVEE
  -------         PROC          CLEARBASICEE
  C:535CH         LINE#         67
  C:535CH         LINE#         68
  C:535CH         LINE#         70
  C:5365H         LINE#         72
  C:536DH         LINE#         73
  C:5376H         LINE#         74
  C:537FH         LINE#         75
  C:5388H         LINE#         79
  C:5391H         LINE#         82
  C:539AH         LINE#         84
  C:53A2H         LINE#         86
  C:53AAH         LINE#         88
  C:53B2H         LINE#         90
  C:53BBH         LINE#         92
  C:53C3H         LINE#         94
  C:53CCH         LINE#         95
  C:53D4H         LINE#         97
  C:53DDH         LINE#         98
  C:53E5H         LINE#         100
  C:53EEH         LINE#         101
  C:53F6H         LINE#         103
  C:53FFH         LINE#         104
  C:5407H         LINE#         106
  C:540FH         LINE#         107
  C:5417H         LINE#         108
  C:541FH         LINE#         110
  C:5427H         LINE#         111
  C:542FH         LINE#         112
  -------         ENDPROC       CLEARBASICEE
  -------         ENDMOD        ETC_EEP

  -------         MODULE        HS_DVRPROTOCOL
  C:0000H         SYMBOL        _ICE_DUMMY_
  X:0000H         PUBLIC        protocol_data_count
  D:00B2H         PUBLIC        P3M1
  D:00A8H         PUBLIC        IE
  X:0001H         PUBLIC        protocol_len
  D:00B8H         PUBLIC        IP
  X:0002H         PUBLIC        protocol_type
  B:0021H.3       PUBLIC        protocol_escape_flag
  D:00B7H         PUBLIC        IPH
  X:0003H         PUBLIC        protocol_chksum
  X:0004H         PUBLIC        protocol_param
  X:0005H         PUBLIC        protocol_data
  C:17E9H         PUBLIC        DvrReceivePaser
  X:0105H         PUBLIC        protocol_state
  -------         PROC          DVRRECEIVEPASER
BL51 BANKED LINKER/LOCATER V6.22.2.0                                                  05/12/2021  10:45:41  PAGE 25


  -------         DO            
  X:01FFH         SYMBOL        c
  -------         ENDDO         
  C:17E9H         LINE#         45
  C:17E9H         LINE#         46
  C:17E9H         LINE#         48
  C:17F2H         LINE#         49
  C:17F2H         LINE#         50
  C:17FAH         LINE#         52
  C:1800H         LINE#         53
  C:1800H         LINE#         57
  C:1802H         LINE#         58
  C:1807H         LINE#         59
  C:180DH         LINE#         61
  C:180DH         LINE#         63
  C:1813H         LINE#         64
  C:1813H         LINE#         65
  C:1816H         LINE#         67
  C:1816H         LINE#         69
  C:1819H         LINE#         70
  C:1819H         LINE#         71
  C:181BH         LINE#         72
  C:1822H         LINE#         73
  C:1822H         LINE#         75
  C:182BH         LINE#         76
  C:182BH         LINE#         77
  C:183BH         LINE#         78
  C:183BH         LINE#         80
  C:1850H         LINE#         81
  C:1850H         LINE#         82
  C:1850H         LINE#         83
  C:1858H         LINE#         84
  C:1871H         LINE#         85
  C:1871H         LINE#         86
  C:1871H         LINE#         87
  C:1871H         LINE#         88
  C:1871H         LINE#         89
  C:1871H         LINE#         90
  C:1871H         LINE#         91
  C:1871H         LINE#         92
  C:1871H         LINE#         93
  C:1871H         LINE#         94
  C:1871H         LINE#         95
  C:1871H         LINE#         96
  C:1871H         LINE#         97
  C:1871H         LINE#         98
  C:1871H         LINE#         99
  C:1871H         LINE#         100
  C:1871H         LINE#         101
  C:1871H         LINE#         103
  C:1877H         LINE#         104
  C:1878H         LINE#         105
  C:1878H         LINE#         106
  C:1878H         LINE#         107
  C:187BH         LINE#         108
  C:187BH         LINE#         109
  C:187BH         LINE#         111
BL51 BANKED LINKER/LOCATER V6.22.2.0                                                  05/12/2021  10:45:41  PAGE 26


  C:187BH         LINE#         112
  C:1883H         LINE#         113
  C:189EH         LINE#         114
  C:189EH         LINE#         115
  C:189EH         LINE#         116
  C:189EH         LINE#         117
  C:189EH         LINE#         118
  C:189EH         LINE#         119
  C:189EH         LINE#         120
  C:189EH         LINE#         121
  C:189EH         LINE#         122
  C:189EH         LINE#         123
  C:189EH         LINE#         124
  C:189EH         LINE#         125
  C:189EH         LINE#         126
  C:189EH         LINE#         127
  C:189EH         LINE#         128
  C:189EH         LINE#         129
  C:189EH         LINE#         130
  C:189EH         LINE#         132
  C:18A4H         LINE#         133
  C:18A4H         LINE#         134
  C:18A4H         LINE#         135
  C:18A6H         LINE#         137
  C:18A6H         LINE#         138
  C:18ABH         LINE#         139
  C:18B1H         LINE#         144
  C:18B1H         LINE#         145
  C:18B2H         LINE#         146
  C:18B2H         LINE#         147
  C:18B2H         LINE#         148
  C:18B5H         LINE#         149
  C:18B5H         LINE#         150
  C:18B5H         LINE#         152
  C:18B5H         LINE#         153
  C:18D2H         LINE#         154
  C:18D2H         LINE#         155
  C:18D2H         LINE#         156
  C:18D2H         LINE#         157
  C:18D2H         LINE#         158
  C:18D2H         LINE#         159
  C:18D2H         LINE#         160
  C:18D2H         LINE#         161
  C:18D2H         LINE#         162
  C:18D2H         LINE#         163
  C:18D2H         LINE#         164
  C:18D2H         LINE#         165
  C:18D2H         LINE#         166
  C:18D2H         LINE#         167
  C:18D2H         LINE#         168
  C:18D2H         LINE#         169
  C:18D2H         LINE#         172
  C:18E6H         LINE#         173
  C:18ECH         LINE#         174
  C:18F9H         LINE#         175
  C:18FFH         LINE#         179
  C:18FFH         LINE#         184
BL51 BANKED LINKER/LOCATER V6.22.2.0                                                  05/12/2021  10:45:41  PAGE 27


  C:1900H         LINE#         185
  C:1900H         LINE#         186
  C:1900H         LINE#         187
  C:1903H         LINE#         188
  C:1903H         LINE#         189
  C:1903H         LINE#         191
  C:1903H         LINE#         192
  C:1912H         LINE#         193
  C:1912H         LINE#         198
  C:194DH         LINE#         199
  C:194DH         LINE#         200
  C:194DH         LINE#         204
  C:1954H         LINE#         205
  C:195DH         LINE#         206
  C:196AH         LINE#         207
  C:196AH         LINE#         208
  C:196EH         LINE#         209
  C:1973H         LINE#         210
  C:1978H         LINE#         211
  C:1978H         LINE#         212
  C:1981H         LINE#         213
  C:198AH         LINE#         214
  C:198DH         LINE#         215
  C:1990H         LINE#         216
  C:1990H         LINE#         220
  C:1995H         LINE#         221
  C:19A1H         LINE#         222
  C:19A7H         LINE#         223
  C:19AAH         LINE#         224
  C:19AAH         LINE#         229
  C:19B0H         LINE#         230
  C:19B3H         LINE#         231
  C:19B3H         LINE#         236
  C:19B9H         LINE#         237
  C:19BCH         LINE#         238
  C:19BCH         LINE#         251
  C:19DDH         LINE#         252
  C:19FEH         LINE#         254
  C:1A1FH         LINE#         255
  C:1A40H         LINE#         257
  C:1A61H         LINE#         258
  C:1A82H         LINE#         260
  C:1AA3H         LINE#         261
  C:1AC4H         LINE#         263
  C:1AD0H         LINE#         264
  C:1ADCH         LINE#         266
  C:1AE8H         LINE#         267
  C:1AF4H         LINE#         269
  C:1B00H         LINE#         270
  C:1B0CH         LINE#         272
  C:1B18H         LINE#         273
  C:1B24H         LINE#         275
  C:1B2AH         LINE#         277
  C:1B2DH         LINE#         279
  C:1B2DH         LINE#         285
  C:1B3AH         LINE#         286
  C:1B3DH         LINE#         288
BL51 BANKED LINKER/LOCATER V6.22.2.0                                                  05/12/2021  10:45:41  PAGE 28


  C:1B4FH         LINE#         290
  C:1B58H         LINE#         291
  C:1B5DH         LINE#         293
  C:1B67H         LINE#         294
  C:1B70H         LINE#         321
  C:1B73H         LINE#         323
  C:1B73H         LINE#         328
  C:1B7CH         LINE#         329
  C:1B7CH         LINE#         330
  C:1B83H         LINE#         334
  C:1B86H         LINE#         335
  C:1B8FH         LINE#         336
  C:1B8FH         LINE#         337
  C:1B94H         LINE#         338
  C:1B9BH         LINE#         342
  C:1B9BH         LINE#         343
  C:1B9EH         LINE#         345
  C:1B9EH         LINE#         349
  C:1BA4H         LINE#         350
  C:1BA7H         LINE#         352
  C:1BA7H         LINE#         357
  C:1BADH         LINE#         358
  C:1BADH         LINE#         359
  C:1BB4H         LINE#         360
  C:1BB9H         LINE#         363
  C:1BBEH         LINE#         364
  C:1BC3H         LINE#         365
  C:1BC8H         LINE#         366
  C:1BCDH         LINE#         367
  C:1BD2H         LINE#         368
  C:1BD7H         LINE#         370
  C:1BDDH         LINE#         372
  C:1BE0H         LINE#         373
  C:1BE8H         LINE#         374
  C:1BE8H         LINE#         375
  C:1BEEH         LINE#         376
  C:1BEEH         LINE#         377
  C:1BEEH         LINE#         378
  C:1BF0H         LINE#         379
  C:1BFBH         LINE#         380
  C:1BFBH         LINE#         381
  C:1C02H         LINE#         382
  C:1C05H         LINE#         383
  C:1C0EH         LINE#         384
  C:1C13H         LINE#         385
  C:1C13H         LINE#         387
  C:1C16H         LINE#         389
  C:1C16H         LINE#         394
  C:1C21H         LINE#         395
  C:1C21H         LINE#         396
  C:1C28H         LINE#         397
  C:1C2DH         LINE#         401
  C:1C2FH         LINE#         402
  C:1C3BH         LINE#         403
  C:1C3BH         LINE#         404
  C:1C42H         LINE#         405
  C:1C47H         LINE#         406
BL51 BANKED LINKER/LOCATER V6.22.2.0                                                  05/12/2021  10:45:41  PAGE 29


  C:1C4EH         LINE#         408
  C:1C5AH         LINE#         409
  C:1C5EH         LINE#         410
  C:1C5EH         LINE#         411
  C:1C6EH         LINE#         412
  C:1C6EH         LINE#         413
  C:1C75H         LINE#         414
  C:1C7CH         LINE#         415
  C:1C81H         LINE#         416
  C:1C88H         LINE#         417
  C:1C92H         LINE#         418
  C:1C9AH         LINE#         422
  C:1CA6H         LINE#         423
  C:1CAAH         LINE#         424
  C:1CACH         LINE#         425
  C:1CBCH         LINE#         426
  C:1CBCH         LINE#         427
  C:1CC1H         LINE#         431
  C:1CC1H         LINE#         433
  C:1CC6H         LINE#         435
  C:1CD1H         LINE#         436
  C:1CD7H         LINE#         438
  C:1CD9H         LINE#         440
  C:1CD9H         LINE#         444
  C:1CDFH         LINE#         445
  C:1CE1H         LINE#         447
  C:1CE1H         LINE#         449
  C:1CE9H         LINE#         450
  C:1CE9H         LINE#         451
  C:1CF1H         LINE#         452
  C:1CF7H         LINE#         453
  C:1CF9H         LINE#         455
  C:1CF9H         LINE#         456
  C:1D01H         LINE#         457
  C:1D06H         LINE#         458
  C:1D06H         LINE#         465
  C:1D08H         LINE#         466
  C:1D08H         LINE#         467
  C:1D13H         LINE#         468
  C:1D18H         LINE#         470
  C:1D1BH         LINE#         475
  C:1D24H         LINE#         478
  C:1D26H         LINE#         479
  C:1D26H         LINE#         483
  C:1D2CH         LINE#         484
  C:1D2EH         LINE#         485
  C:1D2EH         LINE#         489
  C:1D37H         LINE#         490
  C:1D39H         LINE#         491
  C:1D39H         LINE#         493
  C:1D41H         LINE#         494
  C:1D41H         LINE#         495
  C:1D46H         LINE#         496
  C:1D49H         LINE#         497
  C:1D4CH         LINE#         498
  C:1D4FH         LINE#         499
  C:1D54H         LINE#         500
BL51 BANKED LINKER/LOCATER V6.22.2.0                                                  05/12/2021  10:45:41  PAGE 30


  C:1D56H         LINE#         502
  C:1D56H         LINE#         503
  C:1D5BH         LINE#         504
  C:1D5EH         LINE#         505
  C:1D61H         LINE#         506
  C:1D64H         LINE#         507
  C:1D6AH         LINE#         508
  C:1D6AH         LINE#         515
  C:1D6AH         LINE#         516
  C:1D6AH         LINE#         517
  C:1D6AH         LINE#         518
  C:1D6AH         LINE#         520
  C:1D6AH         LINE#         522
  C:1D6AH         LINE#         526
  C:1D6AH         LINE#         527
  C:1D6FH         LINE#         528
  C:1D6FH         LINE#         529
  C:1D6FH         LINE#         530
  C:1D6FH         LINE#         531
  C:1D6FH         LINE#         532
  C:1D6FH         LINE#         535
  -------         ENDPROC       DVRRECEIVEPASER
  -------         ENDMOD        HS_DVRPROTOCOL

  -------         MODULE        I2C
  C:0000H         SYMBOL        _ICE_DUMMY_
  B:0090H.0       PUBLIC        P1_0
  B:0090H.1       PUBLIC        P1_1
  C:602FH         PUBLIC        I2CReadData
  C:5FF6H         PUBLIC        _ReadI2C
  C:5A23H         PUBLIC        _I2CWriteData
  C:6354H         PUBLIC        I2CStart
  C:630BH         PUBLIC        I2Cdelay
  C:6178H         PUBLIC        _ReadEEP
  C:61BFH         PUBLIC        _WriteAD5110
  C:0016H         PUBLIC        I2CStop
  C:5DADH         PUBLIC        _WriteEEP
  C:59A5H         PUBLIC        _AD5110_I2CWriteData
  C:6307H         SYMBOL        L?0054
  -------         PROC          L?0053
  -------         ENDPROC       L?0053
  C:6307H         SYMBOL        L?0054
  -------         PROC          I2CDELAY
  -------         DO            
  D:0007H         SYMBOL        i
  -------         ENDDO         
  C:630BH         LINE#         34
  C:630BH         LINE#         35
  C:630BH         LINE#         37
  C:6317H         LINE#         38
  C:631AH         LINE#         39
  -------         ENDPROC       I2CDELAY
  -------         PROC          _WRITEEEP
  X:0207H         SYMBOL        index
  X:0209H         SYMBOL        dat
  -------         DO            
  X:020AH         SYMBOL        addr
BL51 BANKED LINKER/LOCATER V6.22.2.0                                                  05/12/2021  10:45:41  PAGE 31


  -------         ENDDO         
  C:5DADH         LINE#         42
  C:5DB8H         LINE#         43
  C:5DB8H         LINE#         46
  C:5DD0H         LINE#         48
  C:5DD3H         LINE#         49
  C:5DDBH         LINE#         50
  C:5DE4H         LINE#         51
  C:5DECH         LINE#         52
  C:5DEFH         LINE#         58
  -------         ENDPROC       _WRITEEEP
  -------         PROC          _READEEP
  D:0004H         SYMBOL        index
  -------         DO            
  X:0233H         SYMBOL        val
  D:0007H         SYMBOL        addr
  -------         ENDDO         
  C:6178H         LINE#         61
  C:617CH         LINE#         62
  C:617CH         LINE#         66
  C:618BH         LINE#         68
  C:6193H         LINE#         73
  C:6198H         LINE#         74
  C:619DH         LINE#         75
  -------         ENDPROC       _READEEP
  -------         PROC          _READI2C
  X:0234H         SYMBOL        addr
  X:0235H         SYMBOL        index
  -------         DO            
  X:0236H         SYMBOL        val
  -------         ENDDO         
  C:5FF6H         LINE#         77
  C:5FFEH         LINE#         78
  C:5FFEH         LINE#         81
  C:6001H         LINE#         82
  C:6009H         LINE#         83
  C:6011H         LINE#         84
  C:6014H         LINE#         85
  C:601EH         LINE#         86
  C:6026H         LINE#         87
  C:6029H         LINE#         89
  C:602EH         LINE#         90
  -------         ENDPROC       _READI2C
  -------         PROC          I2CSTART
  C:6354H         LINE#         106
  C:6354H         LINE#         107
  C:6354H         LINE#         108
  C:6359H         LINE#         109
  C:635EH         LINE#         110
  C:6363H         LINE#         111
  C:6365H         LINE#         112
  -------         ENDPROC       I2CSTART
  -------         PROC          I2CSTOP
  C:0016H         LINE#         114
  C:0016H         LINE#         115
  C:0016H         LINE#         116
  C:001BH         LINE#         117
BL51 BANKED LINKER/LOCATER V6.22.2.0                                                  05/12/2021  10:45:41  PAGE 32


  C:0020H         LINE#         118
  C:0022H         LINE#         119
  -------         ENDPROC       I2CSTOP
  -------         PROC          _I2CWRITEDATA
  D:0006H         SYMBOL        value
  C:5A23H         LINE#         121
  C:5A25H         LINE#         122
  C:5A25H         LINE#         124
  C:5A32H         LINE#         125
  C:5A3FH         LINE#         126
  C:5A4CH         LINE#         127
  C:5A59H         LINE#         129
  C:5A66H         LINE#         130
  C:5A73H         LINE#         131
  C:5A80H         LINE#         132
  C:5A8DH         LINE#         135
  C:5A8FH         LINE#         136
  C:5A91H         LINE#         137
  C:5A93H         LINE#         138
  C:5A95H         LINE#         140
  C:5A97H         LINE#         141
  C:5A99H         LINE#         142
  C:5A9BH         LINE#         143
  C:5A9DH         LINE#         144
  -------         ENDPROC       _I2CWRITEDATA
  -------         PROC          I2CREADDATA
  -------         DO            
  D:0004H         SYMBOL        i
  D:0006H         SYMBOL        value
  -------         ENDDO         
  C:602FH         LINE#         146
  C:602FH         LINE#         147
  C:602FH         LINE#         149
  C:6031H         LINE#         151
  C:6036H         LINE#         152
  C:6038H         LINE#         154
  C:603BH         LINE#         155
  C:603DH         LINE#         156
  C:6041H         LINE#         157
  C:6047H         LINE#         158
  C:6049H         LINE#         159
  C:6054H         LINE#         160
  C:6057H         LINE#         162
  C:6059H         LINE#         163
  C:605BH         LINE#         164
  C:605DH         LINE#         165
  C:605FH         LINE#         167
  C:6061H         LINE#         169
  -------         ENDPROC       I2CREADDATA
  -------         PROC          _AD5110_I2CWRITEDATA
  D:0006H         SYMBOL        value
  C:59A5H         LINE#         172
  C:59A7H         LINE#         173
  C:59A7H         LINE#         175
  C:59B4H         LINE#         176
  C:59C1H         LINE#         177
  C:59CEH         LINE#         178
BL51 BANKED LINKER/LOCATER V6.22.2.0                                                  05/12/2021  10:45:41  PAGE 33


  C:59DBH         LINE#         180
  C:59E8H         LINE#         181
  C:59F5H         LINE#         182
  C:5A02H         LINE#         183
  C:5A0FH         LINE#         186
  C:5A11H         LINE#         187
  C:5A13H         LINE#         188
  C:5A15H         LINE#         189
  C:5A17H         LINE#         190
  C:5A1AH         LINE#         191
  C:5A1CH         LINE#         192
  C:5A1EH         LINE#         193
  C:5A20H         LINE#         194
  C:5A22H         LINE#         196
  -------         ENDPROC       _AD5110_I2CWRITEDATA
  -------         PROC          _WRITEAD5110
  D:0002H         SYMBOL        index
  D:0005H         SYMBOL        dat
  -------         DO            
  D:0006H         SYMBOL        addr
  -------         ENDDO         
  C:61BFH         LINE#         229
  C:61C3H         LINE#         230
  C:61C3H         LINE#         233
  C:61C5H         LINE#         235
  C:61C8H         LINE#         236
  C:61CDH         LINE#         237
  C:61D2H         LINE#         238
  C:61D7H         LINE#         239
  C:61DAH         LINE#         245
  -------         ENDPROC       _WRITEAD5110
  -------         ENDMOD        I2C

  -------         MODULE        KEYREMO
  C:0000H         SYMBOL        _ICE_DUMMY_
  C:6277H         PUBLIC        _GetKey
  C:5C33H         PUBLIC        Scankey
  -------         PROC          SCANKEY
  C:5C33H         LINE#         33
  C:5C33H         LINE#         34
  C:5C33H         LINE#         36
  C:5C3BH         LINE#         37
  C:5C3BH         LINE#         39
  C:5C4BH         LINE#         40
  C:5C4BH         LINE#         41
  C:5C4FH         LINE#         42
  C:5C55H         LINE#         43
  C:5C57H         LINE#         44
  C:5C67H         LINE#         45
  C:5C67H         LINE#         46
  C:5C6BH         LINE#         47
  C:5C6FH         LINE#         48
  C:5C73H         LINE#         49
  C:5C7AH         LINE#         50
  C:5C7AH         LINE#         52
  C:5C83H         LINE#         53
  C:5C83H         LINE#         55
BL51 BANKED LINKER/LOCATER V6.22.2.0                                                  05/12/2021  10:45:41  PAGE 34


  -------         ENDPROC       SCANKEY
  -------         PROC          _GETKEY
  D:0007H         SYMBOL        repeat
  -------         DO            
  B:0021H.1       SYMBOL        ready
  -------         ENDDO         
  C:6277H         LINE#         60
  C:6277H         LINE#         61
  C:6277H         LINE#         65
  C:627BH         LINE#         66
  C:627DH         LINE#         68
  C:6283H         LINE#         69
  C:6289H         LINE#         70
  C:628FH         LINE#         72
  C:6291H         LINE#         73
  -------         ENDPROC       _GETKEY
  -------         ENDMOD        KEYREMO

  -------         MODULE        MAIN
  C:0000H         SYMBOL        _ICE_DUMMY_
  C:49CBH         PUBLIC        _Mapping1
  C:56FEH         PUBLIC        _mcuLib_ProtocolSendCmdWithParamNum
  D:00B2H         PUBLIC        P3M1
  C:4CAFH         PUBLIC        _GetRotateNumber
  D:00E7H         PUBLIC        ISPCR
  D:00E8H         PUBLIC        P4
  X:0106H         PUBLIC        ulongRotateNumber
  C:2C83H         PUBLIC        EncorderHandler_TELI
  X:010AH         PUBLIC        PowerFlag
  B:0080H.0       PUBLIC        P0_0
  X:010BH         PUBLIC        LowBatteryFlag
  B:0080H.1       PUBLIC        P0_1
  X:010CH         PUBLIC        UserRange
  B:00B0H.4       PUBLIC        P3_4
  B:00B0H.5       PUBLIC        P3_5
  C:5F01H         PUBLIC        _SetAD5110Step
  C:3530H         PUBLIC        _MCU_SendCmdToDVR
  X:0112H         PUBLIC        g_stBatteryInfo
  D:00C6H         PUBLIC        ADCV
  X:0118H         PUBLIC        DVRChangeCurrent
  X:0119H         PUBLIC        EncorderLen_Offset
  X:011BH         PUBLIC        EncorderLenint
  C:5923H         PUBLIC        main
  D:00E6H         PUBLIC        SCMD
  X:011CH         PUBLIC        bytBatteryStopCharge
  X:011DH         PUBLIC        g_stDVRInfo
  X:011FH         PUBLIC        PowerOffToOnFlag
  X:0120H         PUBLIC        bytFastEncoderMode
  D:00E3H         PUBLIC        IFADRH
  D:00E5H         PUBLIC        IFMT
  X:0121H         PUBLIC        Power_down_mode
  D:00E4H         PUBLIC        IFADRL
  X:0122H         PUBLIC        bytBatteryStopChargeCount
  X:0123H         PUBLIC        TDecimal1
  X:0127H         PUBLIC        ulongRotateNumberTELI
  X:012BH         PUBLIC        TDecimal2
  X:012FH         PUBLIC        TDecimal3
BL51 BANKED LINKER/LOCATER V6.22.2.0                                                  05/12/2021  10:45:41  PAGE 35


  X:0133H         PUBLIC        TDecimal4
  X:0137H         PUBLIC        TEncorder1
  X:013BH         PUBLIC        AD5110Range
  X:0141H         PUBLIC        TEncorder2
  X:0145H         PUBLIC        TEncorder3
  X:0149H         PUBLIC        TEncorder4
  C:5B87H         SYMBOL        _?ix1000
  C:5E7EH         PUBLIC        main_loop
  C:3D6EH         PUBLIC        LoadEEPROM
  X:014DH         PUBLIC        EncorderCountPN_offset
  C:619EH         PUBLIC        enter_isp
  D:00E2H         PUBLIC        IFD
  X:014EH         PUBLIC        EncorderLenfloaat
  X:0152H         PUBLIC        EncorderLen
  C:63ACH         PUBLIC        GetBatteryVoltage
  C:5B8EH         PUBLIC        InitialTimerEvent
  C:6062H         PUBLIC        _isp_write
  C:63A5H         PUBLIC        GetBatteryBTH
  X:0156H         PUBLIC        EncorderCountPN
  C:0006H         PUBLIC        isp_init
  X:0157H         PUBLIC        Decimal1
  X:015BH         PUBLIC        DebugLevel
  X:015CH         PUBLIC        Decimal2
  X:0160H         PUBLIC        Decimal3
  C:5097H         PUBLIC        WaitPowerOn
  X:0164H         PUBLIC        Decimal4
  X:0168H         PUBLIC        PWR_START_flag
  X:0169H         PUBLIC        Encorder1
  X:016DH         PUBLIC        Encorder2
  D:00C5H         PUBLIC        ADCTL
  X:0171H         PUBLIC        Encorder3
  C:61DFH         PUBLIC        _GetADCValue
  X:0175H         PUBLIC        Encorder4
  D:00E8H         PUBLIC        ADCVL
  X:0179H         PUBLIC        AD5110_setp
  C:4161H         PUBLIC        SaveRotateNumber
  X:01A2H         PUBLIC        CameraVolt
  C:552AH         PUBLIC        _mcuLib_ProtocolAppend
  C:30E4H         PUBLIC        EncorderHandler
  -------         PROC          _ISP_WRITE
  D:0001H         SYMBOL        buf
  D:0005H         SYMBOL        addr_high
  X:0208H         SYMBOL        addr_low
  X:0209H         SYMBOL        len
  C:6062H         LINE#         100
  C:6062H         LINE#         101
  C:6062H         LINE#         102
  C:6065H         LINE#         103
  C:6067H         LINE#         105
  C:6067H         LINE#         106
  C:606DH         LINE#         107
  C:6072H         LINE#         108
  C:6075H         LINE#         109
  C:6078H         LINE#         111
  C:607FH         LINE#         112
  C:6085H         LINE#         113
  C:6088H         LINE#         114
BL51 BANKED LINKER/LOCATER V6.22.2.0                                                  05/12/2021  10:45:41  PAGE 36


  C:6088H         LINE#         115
  C:6089H         LINE#         116
  C:608BH         LINE#         117
  C:608BH         LINE#         118
  C:6091H         LINE#         119
  C:6091H         LINE#         120
  C:6094H         LINE#         121
  -------         ENDPROC       _ISP_WRITE
  -------         PROC          ISP_INIT
  C:0006H         LINE#         123
  C:0006H         LINE#         124
  C:0006H         LINE#         125
  C:0009H         LINE#         126
  -------         ENDPROC       ISP_INIT
  -------         PROC          ENTER_ISP
  -------         DO            
  X:0203H         SYMBOL        mark
  -------         ENDDO         
  C:619EH         LINE#         128
  C:619EH         LINE#         129
  C:619EH         LINE#         131
  C:61A3H         LINE#         132
  C:61A6H         LINE#         133
  C:61BBH         LINE#         134
  C:61BEH         LINE#         135
  -------         ENDPROC       ENTER_ISP
  C:5512H         SYMBOL        L?0141
  C:5522H         SYMBOL        L?0142
  -------         PROC          L?0140
  -------         ENDPROC       L?0140
  C:5512H         SYMBOL        L?0141
  C:5522H         SYMBOL        L?0142
  -------         PROC          _MCULIB_PROTOCOLAPPEND
  X:024AH         SYMBOL        pucBuf
  X:024DH         SYMBOL        piLen
  X:0250H         SYMBOL        ucByte
  C:552AH         LINE#         138
  C:5535H         LINE#         139
  C:5543H         LINE#         140
  C:5567H         LINE#         141
  C:5577H         LINE#         142
  C:5580H         LINE#         143
  C:5580H         LINE#         144
  C:5582H         LINE#         145
  C:55AAH         LINE#         146
  C:55BAH         LINE#         147
  C:55BAH         LINE#         148
  C:55BCH         LINE#         149
  -------         ENDPROC       _MCULIB_PROTOCOLAPPEND
  -------         PROC          _MCULIB_PROTOCOLSENDCMDWITHPARAMNUM
  D:0007H         SYMBOL        ucType
  X:0234H         SYMBOL        pucParam
  X:0237H         SYMBOL        ucSize
  -------         DO            
  D:0005H         SYMBOL        ucChecksum
  X:0238H         SYMBOL        pucBuf
  X:0248H         SYMBOL        iLen
BL51 BANKED LINKER/LOCATER V6.22.2.0                                                  05/12/2021  10:45:41  PAGE 37


  X:0249H         SYMBOL        i
  -------         ENDDO         
  C:56FEH         LINE#         151
  C:5709H         LINE#         152
  C:5709H         LINE#         157
  C:570FH         LINE#         158
  C:5715H         LINE#         159
  C:5716H         LINE#         160
  C:5719H         LINE#         161
  C:571DH         LINE#         162
  C:5720H         LINE#         164
  C:5733H         LINE#         165
  C:5746H         LINE#         166
  C:5749H         LINE#         167
  C:5751H         LINE#         169
  C:5763H         LINE#         171
  C:5774H         LINE#         172
  C:5783H         LINE#         173
  C:578BH         LINE#         176
  C:578DH         LINE#         177
  -------         ENDPROC       _MCULIB_PROTOCOLSENDCMDWITHPARAMNUM
  -------         PROC          _MCU_SENDCMDTODVR
  X:0227H         SYMBOL        ucType
  -------         DO            
  X:0228H         SYMBOL        buf
  D:0002H         SYMBOL        val
  X:022FH         SYMBOL        encoder
  -------         ENDDO         
  C:3530H         LINE#         180
  C:3535H         LINE#         181
  C:3535H         LINE#         182
  C:3548H         LINE#         185
  C:3570H         LINE#         186
  C:3570H         LINE#         187
  C:3570H         LINE#         188
  C:357CH         LINE#         189
  C:3588H         LINE#         190
  C:3594H         LINE#         191
  C:35A2H         LINE#         192
  C:35A5H         LINE#         194
  C:35A5H         LINE#         199
  C:35DCH         LINE#         201
  C:35F0H         LINE#         202
  C:35F9H         LINE#         204
  C:35FEH         LINE#         234
  C:3603H         LINE#         245
  C:3610H         LINE#         247
  C:3613H         LINE#         249
  C:362CH         LINE#         252
  C:367BH         LINE#         256
  C:3683H         LINE#         258
  C:3690H         LINE#         259
  C:3697H         LINE#         261
  C:36A4H         LINE#         262
  C:36ABH         LINE#         264
  C:36B1H         LINE#         265
  C:36B8H         LINE#         267
BL51 BANKED LINKER/LOCATER V6.22.2.0                                                  05/12/2021  10:45:41  PAGE 38


  C:36C0H         LINE#         268
  C:36C7H         LINE#         270
  C:36CFH         LINE#         271
  C:36D6H         LINE#         273
  C:36DCH         LINE#         274
  C:36E3H         LINE#         276
  C:36EEH         LINE#         277
  C:36F5H         LINE#         279
  C:3739H         LINE#         282
  C:3739H         LINE#         283
  C:3740H         LINE#         284
  C:3740H         LINE#         289
  C:374EH         LINE#         290
  C:3751H         LINE#         292
  C:3751H         LINE#         293
  C:375FH         LINE#         294
  C:375FH         LINE#         295
  C:3765H         LINE#         296
  C:376CH         LINE#         300
  C:376CH         LINE#         301
  C:377AH         LINE#         302
  C:377DH         LINE#         304
  C:377DH         LINE#         305
  C:378BH         LINE#         306
  C:378EH         LINE#         308
  C:378EH         LINE#         309
  C:379CH         LINE#         310
  C:379FH         LINE#         311
  C:379FH         LINE#         312
  C:37A7H         LINE#         313
  C:37ACH         LINE#         315
  C:37C0H         LINE#         317
  C:37DEH         LINE#         318
  C:37E3H         LINE#         319
  C:380AH         LINE#         320
  C:3830H         LINE#         321
  C:3856H         LINE#         323
  C:3873H         LINE#         324
  C:3878H         LINE#         325
  C:389EH         LINE#         326
  C:38C3H         LINE#         327
  C:38E8H         LINE#         329
  C:3904H         LINE#         330
  C:3909H         LINE#         331
  C:392EH         LINE#         332
  C:3941H         LINE#         341
  C:3952H         LINE#         342
  C:3952H         LINE#         343
  C:3952H         LINE#         344
  C:3952H         LINE#         346
  C:3952H         LINE#         348
  -------         ENDPROC       _MCU_SENDCMDTODVR
  -------         PROC          INITIALTIMEREVENT
  C:5B8EH         LINE#         351
  C:5B8EH         LINE#         352
  C:5B8EH         LINE#         353
  C:5B91H         LINE#         354
BL51 BANKED LINKER/LOCATER V6.22.2.0                                                  05/12/2021  10:45:41  PAGE 39


  C:5B9AH         LINE#         355
  C:5BA3H         LINE#         356
  C:5BACH         LINE#         357
  C:5BB5H         LINE#         358
  C:5BBEH         LINE#         359
  C:5BC7H         LINE#         360
  C:5BD0H         LINE#         361
  C:5BD9H         LINE#         362
  C:5BE0H         LINE#         368
  -------         ENDPROC       INITIALTIMEREVENT
  -------         PROC          _MAPPING1
  X:0205H         SYMBOL        fromValue
  X:0207H         SYMBOL        fromRange
  X:020AH         SYMBOL        toValue
  X:020DH         SYMBOL        toRange
  -------         DO            
  X:0210H         SYMBOL        a
  X:0212H         SYMBOL        b
  -------         ENDDO         
  C:49CBH         LINE#         370
  C:49DCH         LINE#         371
  C:49DCH         LINE#         378
  C:49F4H         LINE#         379
  C:4A1AH         LINE#         380
  C:4A42H         LINE#         382
  C:4A47H         LINE#         384
  C:4A7CH         LINE#         385
  C:4A7FH         LINE#         386
  C:4A7FH         LINE#         387
  C:4AA6H         LINE#         388
  C:4ACEH         LINE#         390
  C:4AD3H         LINE#         392
  C:4B3EH         LINE#         393
  C:4B3EH         LINE#         395
  C:4B40H         LINE#         397
  -------         ENDPROC       _MAPPING1
  -------         PROC          _SETAD5110STEP
  D:0007H         SYMBOL        newv
  -------         DO            
  X:0203H         SYMBOL        regv
  -------         ENDDO         
  C:5F01H         LINE#         399
  C:5F01H         LINE#         400
  C:5F01H         LINE#         404
  C:5F26H         LINE#         405
  -------         ENDPROC       _SETAD5110STEP
  -------         PROC          _GETROTATENUMBER
  D:0003H         SYMBOL        index
  -------         DO            
  X:01FFH         SYMBOL        ret
  -------         ENDDO         
  C:4CAFH         LINE#         409
  C:4CB1H         LINE#         410
  C:4CB1H         LINE#         411
  C:4CBBH         LINE#         413
  C:4CC3H         LINE#         414
  C:4CC3H         LINE#         415
BL51 BANKED LINKER/LOCATER V6.22.2.0                                                  05/12/2021  10:45:41  PAGE 40


  C:4CD3H         LINE#         416
  C:4CECH         LINE#         418
  C:4D20H         LINE#         419
  C:4D39H         LINE#         421
  C:4D51H         LINE#         426
  C:4D54H         LINE#         428
  C:4D54H         LINE#         429
  C:4D65H         LINE#         430
  C:4D7EH         LINE#         432
  C:4DB2H         LINE#         433
  C:4DCBH         LINE#         435
  C:4DFFH         LINE#         441
  C:4DFFH         LINE#         444
  C:4E0DH         LINE#         445
  -------         ENDPROC       _GETROTATENUMBER
  -------         PROC          SAVEROTATENUMBER
  -------         DO            
  X:01FFH         SYMBOL        temp
  X:0203H         SYMBOL        val
  -------         ENDDO         
  C:4161H         LINE#         447
  C:4161H         LINE#         448
  C:4161H         LINE#         449
  C:416BH         LINE#         451
  C:417FH         LINE#         454
  C:4190H         LINE#         455
  C:41A9H         LINE#         456
  C:41DDH         LINE#         457
  C:41F6H         LINE#         458
  C:422AH         LINE#         460
  C:424FH         LINE#         461
  C:424FH         LINE#         463
  C:426BH         LINE#         464
  C:426BH         LINE#         465
  C:428DH         LINE#         470
  C:428DH         LINE#         471
  C:42A0H         LINE#         472
  C:42B9H         LINE#         473
  C:42CCH         LINE#         474
  C:42E5H         LINE#         475
  C:42F8H         LINE#         480
  C:42F8H         LINE#         482
  C:430CH         LINE#         484
  C:431DH         LINE#         485
  C:4336H         LINE#         486
  C:436AH         LINE#         487
  C:4383H         LINE#         488
  C:43B7H         LINE#         490
  C:43DCH         LINE#         491
  C:43DCH         LINE#         493
  C:43F8H         LINE#         494
  C:43F8H         LINE#         495
  C:441AH         LINE#         502
  C:441AH         LINE#         503
  C:442DH         LINE#         504
  C:4446H         LINE#         505
  C:4459H         LINE#         506
BL51 BANKED LINKER/LOCATER V6.22.2.0                                                  05/12/2021  10:45:41  PAGE 41


  C:4472H         LINE#         507
  C:4485H         LINE#         512
  C:4485H         LINE#         513
  -------         ENDPROC       SAVEROTATENUMBER
  -------         PROC          LOADEEPROM
  C:3D6EH         LINE#         514
  C:3D6EH         LINE#         515
  C:3D6EH         LINE#         516
  C:3D7AH         LINE#         517
  C:3D86H         LINE#         518
  C:3D92H         LINE#         519
  C:3D9EH         LINE#         521
  C:3DABH         LINE#         522
  C:3DABH         LINE#         523
  C:3DAEH         LINE#         524
  C:3DB6H         LINE#         525
  C:3DB6H         LINE#         527
  C:3DC3H         LINE#         528
  C:3DC3H         LINE#         529
  C:3DC5H         LINE#         530
  C:3DCCH         LINE#         531
  C:3DCCH         LINE#         533
  C:3DD9H         LINE#         534
  C:3DD9H         LINE#         535
  C:3DDCH         LINE#         536
  C:3DE4H         LINE#         537
  C:3DE4H         LINE#         539
  C:3E17H         LINE#         540
  C:3E4AH         LINE#         542
  C:3E7DH         LINE#         543
  C:3EB0H         LINE#         545
  C:3EE3H         LINE#         546
  C:3F16H         LINE#         548
  C:3F49H         LINE#         549
  C:3F7CH         LINE#         552
  C:3F8DH         LINE#         553
  C:3FA6H         LINE#         554
  C:3FDAH         LINE#         555
  C:3FF3H         LINE#         556
  C:4027H         LINE#         558
  C:4038H         LINE#         559
  C:4051H         LINE#         560
  C:4085H         LINE#         561
  C:409EH         LINE#         562
  C:40D2H         LINE#         566
  C:40DCH         LINE#         567
  C:40E3H         LINE#         569
  C:40EBH         LINE#         570
  C:40EBH         LINE#         571
  C:40F1H         LINE#         572
  C:40F1H         LINE#         573
  C:40F9H         LINE#         574
  C:40FFH         LINE#         575
  C:40FFH         LINE#         577
  C:4107H         LINE#         578
  C:4107H         LINE#         579
  C:4107H         LINE#         580
BL51 BANKED LINKER/LOCATER V6.22.2.0                                                  05/12/2021  10:45:41  PAGE 42


  C:4107H         LINE#         581
  C:4107H         LINE#         583
  C:4109H         LINE#         585
  C:4109H         LINE#         587
  C:4111H         LINE#         588
  C:4111H         LINE#         589
  C:4119H         LINE#         590
  C:411FH         LINE#         593
  C:4127H         LINE#         594
  C:412CH         LINE#         595
  C:412EH         LINE#         596
  C:4136H         LINE#         597
  C:4136H         LINE#         598
  C:413DH         LINE#         599
  C:4142H         LINE#         600
  C:4142H         LINE#         601
  C:4142H         LINE#         604
  C:414EH         LINE#         606
  C:4157H         LINE#         607
  C:4157H         LINE#         608
  C:4159H         LINE#         609
  C:4160H         LINE#         610
  C:4160H         LINE#         614
  -------         ENDPROC       LOADEEPROM
  -------         PROC          _GETADCVALUE
  D:0007H         SYMBOL        sel
  C:61DFH         LINE#         616
  C:61DFH         LINE#         617
  C:61DFH         LINE#         619
  C:61E4H         LINE#         621
  C:61E9H         LINE#         623
  C:61FEH         LINE#         625
  -------         ENDPROC       _GETADCVALUE
  -------         PROC          GETBATTERYBTH
  -------         DO            
  D:0006H         SYMBOL        max
  -------         ENDDO         
  C:63A5H         LINE#         627
  C:63A5H         LINE#         628
  C:63A5H         LINE#         629
  C:63A7H         LINE#         630
  -------         ENDPROC       GETBATTERYBTH
  -------         PROC          GETBATTERYVOLTAGE
  -------         DO            
  D:0006H         SYMBOL        max
  -------         ENDDO         
  C:63ACH         LINE#         638
  C:63ACH         LINE#         639
  C:63ACH         LINE#         640
  C:63AEH         LINE#         641
  -------         ENDPROC       GETBATTERYVOLTAGE
  -------         PROC          ENCORDERHANDLER
  -------         DO            
  X:01FFH         SYMBOL        EncorderCountTemp
  X:0201H         SYMBOL        temp_val
  X:0203H         SYMBOL        EncorderParaTemp1
  X:0207H         SYMBOL        EncorderParaTemp2
BL51 BANKED LINKER/LOCATER V6.22.2.0                                                  05/12/2021  10:45:41  PAGE 43


  X:020BH         SYMBOL        EncorderParaTemp3
  X:020FH         SYMBOL        EncorderParaTemp4
  X:0213H         SYMBOL        EncorderOffset1
  X:0217H         SYMBOL        EncorderOffset2
  X:021BH         SYMBOL        EncorderOffset3
  -------         ENDDO         
  C:30E4H         LINE#         651
  C:30E4H         LINE#         652
  C:30E4H         LINE#         662
  C:30EAH         LINE#         663
  C:30EAH         LINE#         676
  C:311AH         LINE#         677
  C:314AH         LINE#         678
  C:317AH         LINE#         679
  C:31AAH         LINE#         710
  C:31D3H         LINE#         711
  C:320DH         LINE#         712
  C:3247H         LINE#         721
  C:3259H         LINE#         722
  C:3259H         LINE#         723
  C:325EH         LINE#         724
  C:326AH         LINE#         725
  C:326CH         LINE#         727
  C:326CH         LINE#         728
  C:3272H         LINE#         729
  C:3294H         LINE#         730
  C:3294H         LINE#         751
  C:32AFH         LINE#         752
  C:32AFH         LINE#         763
  C:32F6H         LINE#         768
  C:3338H         LINE#         769
  C:3338H         LINE#         773
  C:3338H         LINE#         774
  C:3338H         LINE#         787
  C:333BH         LINE#         788
  C:3354H         LINE#         789
  C:3354H         LINE#         794
  C:33B3H         LINE#         805
  C:33B3H         LINE#         811
  C:33B3H         LINE#         812
  C:33B3H         LINE#         821
  C:33B6H         LINE#         823
  C:33CFH         LINE#         824
  C:33CFH         LINE#         828
  C:342EH         LINE#         835
  C:342EH         LINE#         839
  C:342EH         LINE#         840
  C:342EH         LINE#         849
  C:3430H         LINE#         878
  C:3442H         LINE#         879
  C:3442H         LINE#         883
  C:34A1H         LINE#         891
  C:34C2H         LINE#         897
  C:34EEH         LINE#         901
  C:3513H         LINE#         915
  C:3513H         LINE#         917
  C:3515H         LINE#         923
BL51 BANKED LINKER/LOCATER V6.22.2.0                                                  05/12/2021  10:45:41  PAGE 44


  C:351CH         LINE#         924
  C:351CH         LINE#         925
  C:3521H         LINE#         926
  C:3526H         LINE#         927
  C:352FH         LINE#         928
  C:352FH         LINE#         933
  C:352FH         LINE#         935
  -------         ENDPROC       ENCORDERHANDLER
  -------         PROC          ENCORDERHANDLER_TELI
  -------         DO            
  X:01FFH         SYMBOL        EncorderCountTemp
  X:0203H         SYMBOL        temp_val
  X:0207H         SYMBOL        EncorderCount_T
  X:020BH         SYMBOL        EncorderParaTemp1
  X:020FH         SYMBOL        EncorderParaTemp2
  X:0213H         SYMBOL        EncorderParaTemp3
  X:0217H         SYMBOL        EncorderParaTemp4
  X:021BH         SYMBOL        EncorderOffset1
  X:021FH         SYMBOL        EncorderOffset2
  X:0223H         SYMBOL        EncorderOffset3
  -------         ENDDO         
  C:2C83H         LINE#         937
  C:2C83H         LINE#         938
  C:2C83H         LINE#         951
  C:2C89H         LINE#         952
  C:2C89H         LINE#         953
  C:2C9DH         LINE#         968
  C:2CCDH         LINE#         969
  C:2CFDH         LINE#         970
  C:2D2DH         LINE#         971
  C:2D5DH         LINE#         1002
  C:2D86H         LINE#         1003
  C:2DC0H         LINE#         1004
  C:2DFAH         LINE#         1013
  C:2E0CH         LINE#         1014
  C:2E0CH         LINE#         1015
  C:2E11H         LINE#         1016
  C:2E18H         LINE#         1017
  C:2E1AH         LINE#         1019
  C:2E1AH         LINE#         1020
  C:2E20H         LINE#         1021
  C:2E37H         LINE#         1022
  C:2E37H         LINE#         1044
  C:2E6BH         LINE#         1045
  C:2E6BH         LINE#         1058
  C:2EBAH         LINE#         1064
  C:2EFDH         LINE#         1065
  C:2EFDH         LINE#         1069
  C:2EFDH         LINE#         1070
  C:2EFDH         LINE#         1083
  C:2F00H         LINE#         1084
  C:2F30H         LINE#         1085
  C:2F30H         LINE#         1091
  C:2F7CH         LINE#         1102
  C:2F7CH         LINE#         1108
  C:2F7CH         LINE#         1109
  C:2F7CH         LINE#         1118
BL51 BANKED LINKER/LOCATER V6.22.2.0                                                  05/12/2021  10:45:41  PAGE 45


  C:2F7FH         LINE#         1120
  C:2FB0H         LINE#         1121
  C:2FB0H         LINE#         1126
  C:2FFCH         LINE#         1133
  C:2FFCH         LINE#         1137
  C:2FFCH         LINE#         1138
  C:2FFCH         LINE#         1147
  C:2FFEH         LINE#         1176
  C:301CH         LINE#         1177
  C:301CH         LINE#         1182
  C:306BH         LINE#         1189
  C:3081H         LINE#         1196
  C:30A2H         LINE#         1200
  C:30C7H         LINE#         1215
  C:30C7H         LINE#         1217
  C:30C9H         LINE#         1231
  C:30D0H         LINE#         1232
  C:30D0H         LINE#         1233
  C:30D5H         LINE#         1234
  C:30DAH         LINE#         1235
  C:30E3H         LINE#         1236
  C:30E3H         LINE#         1241
  C:30E3H         LINE#         1243
  -------         ENDPROC       ENCORDERHANDLER_TELI
  -------         PROC          MAIN_LOOP
  C:5E7EH         LINE#         1246
  C:5E7EH         LINE#         1247
  C:5E7EH         LINE#         1249
  C:5E87H         LINE#         1251
  C:5E92H         LINE#         1252
  C:5E9DH         LINE#         1257
  C:5E9DH         LINE#         1258
  C:5E9DH         LINE#         1267
  C:5EA0H         LINE#         1268
  C:5EA3H         LINE#         1272
  C:5EA6H         LINE#         1273
  C:5EA9H         LINE#         1275
  C:5EB1H         LINE#         1276
  C:5EB6H         LINE#         1278
  C:5EB9H         LINE#         1283
  C:5EBFH         LINE#         1284
  C:5EBFH         LINE#         1286
  C:5EBFH         LINE#         1288
  -------         ENDPROC       MAIN_LOOP
  -------         PROC          MAIN
  C:5923H         LINE#         1290
  C:5923H         LINE#         1291
  C:5923H         LINE#         1293
  C:5926H         LINE#         1295
  C:5929H         LINE#         1297
  C:5932H         LINE#         1299
  C:5935H         LINE#         1303
  C:5937H         LINE#         1305
  C:5939H         LINE#         1308
  C:593CH         LINE#         1311
  C:593FH         LINE#         1314
  C:5942H         LINE#         1316
BL51 BANKED LINKER/LOCATER V6.22.2.0                                                  05/12/2021  10:45:41  PAGE 46


  C:594AH         LINE#         1317
  C:5960H         LINE#         1322
  C:5972H         LINE#         1323
  C:5976H         LINE#         1325
  C:5980H         LINE#         1326
  C:5988H         LINE#         1328
  C:5988H         LINE#         1330
  C:598EH         LINE#         1331
  C:5993H         LINE#         1333
  C:5993H         LINE#         1334
  C:5995H         LINE#         1337
  C:5995H         LINE#         1338
  C:599DH         LINE#         1339
  C:59A0H         LINE#         1341
  C:59A3H         LINE#         1342
  -------         ENDPROC       MAIN
  -------         PROC          WAITPOWERON
  C:5097H         LINE#         1345
  C:5097H         LINE#         1346
  C:5097H         LINE#         1348
  C:50A0H         LINE#         1349
  C:50A8H         LINE#         1351
  C:50B4H         LINE#         1352
  C:50B8H         LINE#         1354
  C:50BFH         LINE#         1355
  C:50C4H         LINE#         1356
  C:50CBH         LINE#         1357
  C:50D0H         LINE#         1360
  C:50D5H         LINE#         1361
  C:50D7H         LINE#         1362
  C:50DBH         LINE#         1365
  C:50DEH         LINE#         1367
  C:50DEH         LINE#         1368
  C:50DEH         LINE#         1376
  C:50E1H         LINE#         1377
  C:50E4H         LINE#         1378
  C:50E7H         LINE#         1380
  C:50EFH         LINE#         1381
  C:50EFH         LINE#         1385
  C:510DH         LINE#         1386
  C:510DH         LINE#         1387
  C:5113H         LINE#         1388
  C:511CH         LINE#         1389
  C:511EH         LINE#         1390
  C:5132H         LINE#         1391
  C:5132H         LINE#         1392
  C:5137H         LINE#         1393
  C:513CH         LINE#         1394
  C:513EH         LINE#         1395
  C:5146H         LINE#         1396
  C:5149H         LINE#         1400
  C:514BH         LINE#         1403
  C:5154H         LINE#         1404
  C:515EH         LINE#         1405
  C:5163H         LINE#         1406
  C:516DH         LINE#         1407
  C:5172H         LINE#         1408
BL51 BANKED LINKER/LOCATER V6.22.2.0                                                  05/12/2021  10:45:41  PAGE 47


  C:5174H         LINE#         1409
  C:5176H         LINE#         1411
  C:517DH         LINE#         1412
  C:5184H         LINE#         1413
  C:518CH         LINE#         1414
  C:5195H         LINE#         1416
  C:5198H         LINE#         1418
  -------         ENDPROC       WAITPOWERON
  -------         ENDMOD        MAIN

  -------         MODULE        MONITOR
  C:0000H         SYMBOL        _ICE_DUMMY_
  X:0251H         PUBLIC        Monitor_I2C
  X:0252H         PUBLIC        MonRdata
  X:0253H         PUBLIC        argc
  X:0254H         PUBLIC        MonWdata
  B:0020H.6       PUBLIC        AccessEnable
  B:0020H.7       PUBLIC        echo
  X:0255H         PUBLIC        monstr
  X:0273H         PUBLIC        MonIndex
  X:0274H         PUBLIC        argv
  B:0021H.0       SYMBOL        indirect
  D:0010H         PUBLIC        MonAddress
  -------         ENDMOD        MONITOR

  -------         MODULE        PRINTF
  C:0000H         SYMBOL        _ICE_DUMMY_
  C:5CC1H         PUBLIC        Hex
  D:0099H         PUBLIC        SBUF
  C:1D78H         PUBLIC        _DoPrint
  C:5DF4H         PUBLIC        _GraphicsPrint
  C:5F7DH         PUBLIC        _DEBUG_MESSAGE
  X:02ADH         SYMBOL        _PrintColor
  C:5F3FH         PUBLIC        _Printf
  C:1D70H         SYMBOL        L?0093
  -------         PROC          L?0092
  -------         ENDPROC       L?0092
  C:1D70H         SYMBOL        L?0093
  -------         PROC          _DOPRINT
  X:0234H         SYMBOL        fmt
  X:0237H         SYMBOL        ap
  -------         DO            
  X:023AH         SYMBOL        ch
  X:023BH         SYMBOL        i
  X:023CH         SYMBOL        value
  B:0021H.1       SYMBOL        fl_zero
  B:0021H.2       SYMBOL        fl_num
  X:0240H         SYMBOL        fl_len
  X:0241H         SYMBOL        cnt
  X:0242H         SYMBOL        mask
  X:0246H         SYMBOL        ptr
  -------         ENDDO         
  C:1D78H         LINE#         39
  C:1D83H         LINE#         40
  C:1D83H         LINE#         48
  C:1D8DH         LINE#         54
  C:1D8DH         LINE#         58
BL51 BANKED LINKER/LOCATER V6.22.2.0                                                  05/12/2021  10:45:41  PAGE 48


  C:1DADH         LINE#         59
  C:1DADH         LINE#         60
  C:1DBEH         LINE#         61
  C:1DC8H         LINE#         62
  C:1DD1H         LINE#         63
  C:1DD1H         LINE#         64
  C:1DD1H         LINE#         68
  C:1DD3H         LINE#         69
  C:1DD5H         LINE#         70
  C:1DDAH         LINE#         72
  C:1DF1H         LINE#         74
  C:1DF6H         LINE#         75
  C:1DF8H         LINE#         76
  C:1E0FH         LINE#         77
  C:1E0FH         LINE#         78
  C:1E0FH         LINE#         79
  C:1E11H         LINE#         80
  C:1E2DH         LINE#         81
  C:1E37H         LINE#         82
  C:1E4EH         LINE#         83
  C:1E4EH         LINE#         87
  C:1E54H         LINE#         89
  C:1E68H         LINE#         90
  C:1E68H         LINE#         91
  C:1E87H         LINE#         92
  C:1E87H         LINE#         93
  C:1EA4H         LINE#         94
  C:1EA4H         LINE#         98
  C:1ED0H         LINE#         100
  C:1ED0H         LINE#         101
  C:1ED0H         LINE#         103
  C:1EE3H         LINE#         104
  C:1EE3H         LINE#         105
  C:1F03H         LINE#         106
  C:1F18H         LINE#         107
  C:1F1AH         LINE#         109
  C:1F1AH         LINE#         110
  C:1F3FH         LINE#         111
  C:1F55H         LINE#         112
  C:1F57H         LINE#         114
  C:1F57H         LINE#         115
  C:1F5BH         LINE#         116
  C:1F74H         LINE#         117
  C:1F74H         LINE#         118
  C:1F74H         LINE#         120
  C:1F86H         LINE#         121
  C:1F8EH         LINE#         122
  C:1FABH         LINE#         123
  C:1FABH         LINE#         125
  C:1FB4H         LINE#         126
  C:1FD3H         LINE#         128
  C:1FEDH         LINE#         129
  C:2017H         LINE#         130
  C:2032H         LINE#         131
  C:203AH         LINE#         132
  C:203AH         LINE#         134
  C:208FH         LINE#         136
BL51 BANKED LINKER/LOCATER V6.22.2.0                                                  05/12/2021  10:45:41  PAGE 49


  C:208FH         LINE#         137
  C:20B6H         LINE#         138
  C:20DEH         LINE#         139
  C:20E0H         LINE#         140
  C:20EBH         LINE#         142
  C:2118H         LINE#         143
  C:2135H         LINE#         145
  C:2151H         LINE#         146
  C:2154H         LINE#         147
  C:2154H         LINE#         148
  C:2154H         LINE#         150
  C:2154H         LINE#         151
  C:2154H         LINE#         153
  C:2164H         LINE#         154
  C:217EH         LINE#         155
  C:2199H         LINE#         156
  C:21B2H         LINE#         157
  C:21B2H         LINE#         159
  C:21C0H         LINE#         161
  C:21E0H         LINE#         162
  C:221BH         LINE#         163
  C:2223H         LINE#         164
  C:2223H         LINE#         166
  C:2223H         LINE#         177
  C:2241H         LINE#         178
  C:2254H         LINE#         179
  C:2270H         LINE#         180
  C:2270H         LINE#         185
  C:2270H         LINE#         186
  C:2292H         LINE#         187
  C:22A3H         LINE#         188
  C:22A3H         LINE#         190
  C:22A3H         LINE#         191
  C:22C2H         LINE#         192
  C:22C5H         LINE#         193
  C:22C5H         LINE#         194
  C:22C5H         LINE#         195
  -------         ENDPROC       _DOPRINT
  -------         PROC          _PRINTF
  X:0206H         SYMBOL        fmt
  -------         DO            
  X:0209H         SYMBOL        ellipsis_40
  X:0231H         SYMBOL        ap
  -------         ENDDO         
  C:5F3FH         LINE#         202
  C:5F4AH         LINE#         203
  C:5F4AH         LINE#         206
  C:5F58H         LINE#         207
  C:5F73H         LINE#         208
  C:5F7CH         LINE#         209
  -------         ENDPROC       _PRINTF
  -------         PROC          _DEBUG_MESSAGE
  X:01FFH         SYMBOL        fmt
  -------         DO            
  X:0202H         SYMBOL        ellipsis_40
  X:022AH         SYMBOL        ap
  -------         ENDDO         
BL51 BANKED LINKER/LOCATER V6.22.2.0                                                  05/12/2021  10:45:41  PAGE 50


  C:5F7DH         LINE#         211
  C:5F88H         LINE#         212
  C:5F88H         LINE#         214
  C:5F96H         LINE#         216
  C:5FB1H         LINE#         218
  C:5FBAH         LINE#         220
  -------         ENDPROC       _DEBUG_MESSAGE
  -------         PROC          _GRAPHICSPRINT
  X:0205H         SYMBOL        mode
  X:0206H         SYMBOL        Message
  -------         DO            
  X:0209H         SYMBOL        ellipsis_40
  X:0231H         SYMBOL        ap
  -------         ENDDO         
  C:5DF4H         LINE#         280
  C:5E02H         LINE#         281
  C:5E02H         LINE#         301
  C:5E10H         LINE#         302
  C:5E2BH         LINE#         303
  C:5E34H         LINE#         304
  C:5E39H         LINE#         307
  -------         ENDPROC       _GRAPHICSPRINT
  -------         ENDMOD        PRINTF

  -------         MODULE        SYSPOWER
  C:0000H         SYMBOL        _ICE_DUMMY_
  D:00B2H         PUBLIC        P3M1
  B:00A0H.0       PUBLIC        P2_0
  B:0080H.2       PUBLIC        P0_2
  B:00A0H.1       PUBLIC        P2_1
  B:0080H.3       PUBLIC        P0_3
  B:00E8H.0       PUBLIC        P4_0
  B:00A0H.2       PUBLIC        P2_2
  B:0080H.4       PUBLIC        P0_4
  C:589FH         PUBLIC        SysPowerHandler
  B:00E8H.1       PUBLIC        P4_1
  B:00E8H.2       PUBLIC        P4_2
  B:0080H.6       PUBLIC        P0_6
  B:00A0H.6       PUBLIC        P2_6
  B:00B0H.6       PUBLIC        P3_6
  B:00B0H.7       PUBLIC        P3_7
  C:6120H         PUBLIC        SysPowerInitial
  C:5437H         PUBLIC        _UserInterfacePowerSwitch
  C:614CH         PUBLIC        _SysPowerSwitch
  I:0011H         PUBLIC        g_stPowerInfo
  C:4486H         PUBLIC        _UserInterfaceBatteryChargeMode
  -------         PROC          SYSPOWERINITIAL
  C:6120H         LINE#         69
  C:6120H         LINE#         70
  C:6120H         LINE#         71
  C:6122H         LINE#         72
  C:6124H         LINE#         73
  C:6126H         LINE#         74
  C:6128H         LINE#         75
  C:612AH         LINE#         76
  C:612CH         LINE#         77
  C:612EH         LINE#         78
BL51 BANKED LINKER/LOCATER V6.22.2.0                                                  05/12/2021  10:45:41  PAGE 51


  C:6130H         LINE#         79
  C:6132H         LINE#         80
  C:6134H         LINE#         81
  C:6136H         LINE#         82
  C:6138H         LINE#         83
  C:613AH         LINE#         84
  C:613CH         LINE#         86
  C:6143H         LINE#         88
  -------         ENDPROC       SYSPOWERINITIAL
  -------         PROC          SYSPOWERHANDLER
  C:589FH         LINE#         97
  C:589FH         LINE#         98
  C:589FH         LINE#         100
  C:58B0H         LINE#         101
  C:58B0H         LINE#         102
  C:58B0H         LINE#         104
  C:58BEH         LINE#         105
  C:58BEH         LINE#         106
  C:58BEH         LINE#         107
  C:58C0H         LINE#         108
  C:58C2H         LINE#         110
  C:58C2H         LINE#         111
  C:58C4H         LINE#         112
  C:58C6H         LINE#         114
  C:58C6H         LINE#         115
  C:58CBH         LINE#         116
  C:58CBH         LINE#         118
  C:58CBH         LINE#         119
  C:58CBH         LINE#         120
  C:58CBH         LINE#         121
  C:58CBH         LINE#         122
  C:58CBH         LINE#         123
  C:58CBH         LINE#         124
  C:58CBH         LINE#         126
  C:58D3H         LINE#         128
  C:58D5H         LINE#         130
  C:58D5H         LINE#         132
  C:58E5H         LINE#         133
  C:58E5H         LINE#         134
  C:58E5H         LINE#         135
  C:58E7H         LINE#         136
  C:58E9H         LINE#         138
  C:58E9H         LINE#         139
  C:58EBH         LINE#         140
  C:58EDH         LINE#         143
  C:58EDH         LINE#         144
  C:58F2H         LINE#         145
  C:58F2H         LINE#         147
  C:58F2H         LINE#         148
  C:58F2H         LINE#         149
  C:58F2H         LINE#         151
  C:58FAH         LINE#         153
  C:58FCH         LINE#         155
  C:58FCH         LINE#         157
  C:5906H         LINE#         158
  C:5906H         LINE#         159
  C:5906H         LINE#         160
BL51 BANKED LINKER/LOCATER V6.22.2.0                                                  05/12/2021  10:45:41  PAGE 52


  C:590BH         LINE#         161
  C:590BH         LINE#         163
  C:590BH         LINE#         164
  C:590BH         LINE#         165
  C:590BH         LINE#         167
  C:5913H         LINE#         169
  C:5913H         LINE#         170
  C:5913H         LINE#         171
  C:5913H         LINE#         172
  C:5913H         LINE#         175
  C:5922H         LINE#         177
  -------         ENDPROC       SYSPOWERHANDLER
  -------         PROC          _USERINTERFACEBATTERYCHARGEMODE
  X:0203H         SYMBOL        enumSwitch
  C:4486H         LINE#         179
  C:448BH         LINE#         180
  C:448BH         LINE#         182
  C:4490H         LINE#         183
  C:4495H         LINE#         184
  C:449AH         LINE#         185
  C:449FH         LINE#         186
  C:44A4H         LINE#         187
  C:44A9H         LINE#         189
  C:44DBH         LINE#         190
  C:44DBH         LINE#         191
  C:44DBH         LINE#         192
  C:44E2H         LINE#         197
  C:44EBH         LINE#         199
  C:44FAH         LINE#         200
  C:44FDH         LINE#         201
  C:4507H         LINE#         202
  C:4507H         LINE#         203
  C:4513H         LINE#         204
  C:4515H         LINE#         206
  C:4515H         LINE#         207
  C:451BH         LINE#         208
  C:4520H         LINE#         209
  C:452AH         LINE#         210
  C:452FH         LINE#         212
  C:4531H         LINE#         213
  C:4531H         LINE#         214
  C:4534H         LINE#         215
  C:453EH         LINE#         216
  C:453EH         LINE#         217
  C:4548H         LINE#         218
  C:454DH         LINE#         220
  C:454FH         LINE#         221
  C:4552H         LINE#         223
  C:4552H         LINE#         225
  C:4555H         LINE#         226
  C:4555H         LINE#         228
  C:455DH         LINE#         229
  C:455DH         LINE#         233
  C:455FH         LINE#         235
  C:4561H         LINE#         237
  C:4561H         LINE#         238
  C:4568H         LINE#         242
BL51 BANKED LINKER/LOCATER V6.22.2.0                                                  05/12/2021  10:45:41  PAGE 53


  C:4568H         LINE#         244
  C:4571H         LINE#         247
  C:4580H         LINE#         248
  C:4585H         LINE#         249
  C:458FH         LINE#         250
  C:45A1H         LINE#         251
  C:45A6H         LINE#         253
  C:45A6H         LINE#         255
  C:45A9H         LINE#         257
  C:45A9H         LINE#         258
  C:45C3H         LINE#         259
  C:45C8H         LINE#         260
  C:45DCH         LINE#         261
  C:45E1H         LINE#         263
  C:45E1H         LINE#         264
  C:45E1H         LINE#         266
  C:45E1H         LINE#         267
  C:45E1H         LINE#         285
  C:45E1H         LINE#         286
  C:45E1H         LINE#         288
  C:45E4H         LINE#         289
  C:45E4H         LINE#         292
  C:45ECH         LINE#         293
  C:45ECH         LINE#         294
  C:45EEH         LINE#         299
  C:45F0H         LINE#         301
  C:45F0H         LINE#         302
  C:45F7H         LINE#         306
  C:45F7H         LINE#         307
  C:4600H         LINE#         310
  C:460FH         LINE#         311
  C:4614H         LINE#         312
  C:461EH         LINE#         313
  C:4630H         LINE#         314
  C:4635H         LINE#         316
  C:4635H         LINE#         317
  C:4637H         LINE#         319
  C:4637H         LINE#         320
  C:464BH         LINE#         321
  C:4650H         LINE#         323
  C:4650H         LINE#         324
  C:4652H         LINE#         326
  C:4652H         LINE#         327
  C:4652H         LINE#         346
  C:4652H         LINE#         347
  C:4652H         LINE#         348
  C:4655H         LINE#         349
  C:4655H         LINE#         351
  C:465DH         LINE#         352
  C:465DH         LINE#         353
  C:465FH         LINE#         357
  C:4661H         LINE#         360
  C:4661H         LINE#         361
  C:4668H         LINE#         365
  C:4668H         LINE#         367
  C:4671H         LINE#         369
  C:4680H         LINE#         370
BL51 BANKED LINKER/LOCATER V6.22.2.0                                                  05/12/2021  10:45:41  PAGE 54


  C:4685H         LINE#         371
  C:468FH         LINE#         372
  C:468FH         LINE#         373
  C:46A1H         LINE#         374
  C:46A5H         LINE#         376
  C:46A7H         LINE#         378
  C:46AAH         LINE#         380
  C:46AAH         LINE#         381
  C:46C4H         LINE#         382
  C:46C8H         LINE#         383
  C:46DCH         LINE#         384
  C:46E0H         LINE#         386
  C:46E0H         LINE#         387
  C:46E9H         LINE#         389
  C:46EEH         LINE#         390
  C:46F4H         LINE#         408
  C:46F4H         LINE#         409
  C:46F4H         LINE#         410
  C:46F7H         LINE#         411
  C:46F7H         LINE#         412
  C:46FEH         LINE#         416
  C:4707H         LINE#         418
  C:4716H         LINE#         419
  C:471DH         LINE#         420
  C:4727H         LINE#         421
  C:472EH         LINE#         422
  C:4738H         LINE#         423
  C:473FH         LINE#         425
  C:473FH         LINE#         426
  C:4745H         LINE#         427
  C:4745H         LINE#         428
  C:4747H         LINE#         429
  C:4747H         LINE#         434
  C:4751H         LINE#         435
  C:4758H         LINE#         437
  C:475AH         LINE#         439
  C:4760H         LINE#         440
  C:4762H         LINE#         442
  C:4762H         LINE#         447
  C:476CH         LINE#         448
  C:476CH         LINE#         449
  C:4771H         LINE#         450
  C:4778H         LINE#         451
  C:477AH         LINE#         453
  C:477CH         LINE#         455
  C:4783H         LINE#         456
  C:4787H         LINE#         458
  C:4790H         LINE#         460
  C:4790H         LINE#         461
  C:4790H         LINE#         463
  -------         ENDPROC       _USERINTERFACEBATTERYCHARGEMODE
  -------         PROC          _USERINTERFACEPOWERSWITCH
  X:0204H         SYMBOL        enumSwitch
  C:5437H         LINE#         648
  C:543CH         LINE#         649
  C:543CH         LINE#         650
  C:544DH         LINE#         653
BL51 BANKED LINKER/LOCATER V6.22.2.0                                                  05/12/2021  10:45:41  PAGE 55


  C:547EH         LINE#         654
  C:547EH         LINE#         655
  C:547EH         LINE#         656
  C:547EH         LINE#         657
  C:547EH         LINE#         660
  C:5480H         LINE#         661
  C:5482H         LINE#         662
  C:5484H         LINE#         663
  C:5486H         LINE#         664
  C:5488H         LINE#         665
  C:548AH         LINE#         666
  C:5491H         LINE#         667
  C:5493H         LINE#         669
  C:549CH         LINE#         670
  C:54A2H         LINE#         686
  C:54A4H         LINE#         687
  C:54A4H         LINE#         688
  C:54A6H         LINE#         689
  C:54A8H         LINE#         690
  C:54AFH         LINE#         691
  C:54B1H         LINE#         692
  C:54B3H         LINE#         694
  C:54BFH         LINE#         695
  C:54BFH         LINE#         696
  C:54C3H         LINE#         697
  C:54C8H         LINE#         698
  C:54C8H         LINE#         700
  C:54CBH         LINE#         701
  C:54CDH         LINE#         703
  C:54CDH         LINE#         704
  C:54CDH         LINE#         705
  C:54CDH         LINE#         707
  C:54CFH         LINE#         708
  C:54D1H         LINE#         709
  C:54D3H         LINE#         710
  C:54D5H         LINE#         711
  C:54D7H         LINE#         712
  C:54D9H         LINE#         713
  C:54DBH         LINE#         714
  C:54DDH         LINE#         715
  C:54DFH         LINE#         716
  C:54E1H         LINE#         721
  C:54E3H         LINE#         725
  C:54E5H         LINE#         728
  C:54ECH         LINE#         729
  C:54F5H         LINE#         730
  C:54F7H         LINE#         732
  C:54F7H         LINE#         736
  C:54F9H         LINE#         737
  C:54FBH         LINE#         738
  C:54FDH         LINE#         739
  C:54FFH         LINE#         741
  C:5501H         LINE#         742
  C:5503H         LINE#         747
  C:5506H         LINE#         748
  C:5506H         LINE#         750
  C:5506H         LINE#         752
BL51 BANKED LINKER/LOCATER V6.22.2.0                                                  05/12/2021  10:45:41  PAGE 56


  C:5506H         LINE#         753
  C:5506H         LINE#         756
  C:550FH         LINE#         758
  -------         ENDPROC       _USERINTERFACEPOWERSWITCH
  -------         PROC          _SYSPOWERSWITCH
  X:01FFH         SYMBOL        enumSwitch
  C:614CH         LINE#         765
  C:6151H         LINE#         766
  C:6151H         LINE#         769
  C:616FH         LINE#         770
  C:616FH         LINE#         771
  C:616FH         LINE#         775
  C:616FH         LINE#         776
  C:616FH         LINE#         777
  C:616FH         LINE#         778
  C:616FH         LINE#         779
  C:616FH         LINE#         780
  C:616FH         LINE#         785
  C:616FH         LINE#         786
  C:616FH         LINE#         787
  C:616FH         LINE#         788
  C:616FH         LINE#         789
  C:616FH         LINE#         790
  C:6177H         LINE#         793
  C:6177H         LINE#         795
  C:6177H         LINE#         796
  C:6177H         LINE#         797
  C:6177H         LINE#         799
  -------         ENDPROC       _SYSPOWERSWITCH
  -------         ENDMOD        SYSPOWER

  -------         MODULE        SYSTIMER
  C:0000H         SYMBOL        _ICE_DUMMY_
  X:01A3H         PUBLIC        BATERY_STAT_TEMP
  D:00B2H         PUBLIC        P3M1
  X:01A4H         PUBLIC        BattDetectHighStop_COUNT
  C:632FH         PUBLIC        _MCUTimerClrEventValid
  X:01A5H         PUBLIC        BattDetect1_COUNT
  X:01A6H         PUBLIC        STAT1_temp
  X:01A7H         PUBLIC        BattDetect2_COUNT
  X:01A8H         PUBLIC        STAT2_temp
  C:581AH         PUBLIC        SysTimerHandler
  X:01A9H         PUBLIC        BattDetect3_COUNT
  B:0021H.4       PUBLIC        g_bNotifyTimer0Int
  X:01AAH         PUBLIC        BattDetect4_COUNT
  X:01ABH         PUBLIC        BattDetect5_COUNT
  X:01ACH         PUBLIC        PWM_TEMP
  B:0080H.0       PUBLIC        P0_0
  X:01ADH         PUBLIC        TEMP_LOW_WARN_COUNT
  B:0080H.1       PUBLIC        P0_1
  B:00E8H.2       PUBLIC        P4_2
  C:62AFH         PUBLIC        _MCUTimerDelayXms
  B:00A0H.6       PUBLIC        P2_6
  B:00B0H.7       PUBLIC        P3_7
  X:01AEH         PUBLIC        g_usTimerCounter
  C:62F2H         PUBLIC        _MCUTimerGetEventID
  C:631BH         PUBLIC        _MCUTimerGetEventTime
BL51 BANKED LINKER/LOCATER V6.22.2.0                                                  05/12/2021  10:45:41  PAGE 57


  X:01B0H         PUBLIC        TEMP_HIGH_COUNT
  X:01B1H         PUBLIC        BattDetectStartUp_COUNT
  C:527EH         PUBLIC        _MCUTimerReactiveTimerEvent
  X:01B2H         PUBLIC        BatteryVoltage
  X:01B4H         PUBLIC        g_stTimerEvent
  X:01F0H         PUBLIC        WDT_Echo_Count
  X:01F1H         PUBLIC        TEMP_HIGH_WARN_COUNT
  X:01F2H         PUBLIC        BatteryBTH
  C:5EC0H         PUBLIC        _MCUTimerCancelTimerEvent
  C:003EH         PUBLIC        MCUTimerInitialTimerEvent
  C:6366H         PUBLIC        _MCUTimerCheckEventValid
  X:01F4H         PUBLIC        STAT1_Flag
  X:01F5H         PUBLIC        STAT2_Flag
  X:01F6H         PUBLIC        TEMP_NORMAL_COUNT
  X:01F7H         PUBLIC        TEMP_STAT
  C:519FH         PUBLIC        _MCUTimerActiveTimerEvent
  C:4F69H         PUBLIC        _MCUTimerCheckTimerEvent
  X:01F8H         PUBLIC        BattDetectHigh_COUNT
  C:4E0EH         PUBLIC        _UserInterfaceTimerEventProc
  C:0066H         PUBLIC        _SysTimerEventProc
  X:01F9H         PUBLIC        BATERY_STAT
  X:01FAH         PUBLIC        BattDetectNoStartUp_COUNT
  X:01FBH         PUBLIC        CHARGE_TEMP_NORMAL
  X:01FCH         PUBLIC        CHARGE_TEMP_ABNORMAL
  X:01FDH         PUBLIC        TEMP_LOW_COUNT
  C:5D1CH         PUBLIC        MCUTimerGetTimerCounter
  X:01FEH         PUBLIC        BattDetectMin_COUNT
  C:62ABH         SYMBOL        L?0377
  -------         PROC          L?0376
  -------         ENDPROC       L?0376
  C:62ABH         SYMBOL        L?0377
  -------         PROC          _MCUTIMERDELAYXMS
  D:0006H         SYMBOL        usNum
  C:62AFH         LINE#         126
  C:62AFH         LINE#         127
  C:62AFH         LINE#         128
  C:62B3H         LINE#         129
  C:62B3H         LINE#         130
  C:62B5H         LINE#         132
  C:62B5H         LINE#         133
  C:62B5H         LINE#         134
  C:62B8H         LINE#         135
  C:62B8H         LINE#         136
  C:62BAH         LINE#         138
  C:62C3H         LINE#         139
  C:62C3H         LINE#         140
  C:62C3H         LINE#         142
  C:62C3H         LINE#         144
  C:62C3H         LINE#         145
  C:62C3H         LINE#         146
  C:62C3H         LINE#         147
  C:62C3H         LINE#         148
  -------         ENDPROC       _MCUTIMERDELAYXMS
  -------         PROC          _MCUTIMERGETEVENTTIME
  D:0007H         SYMBOL        ucEventIndex
  C:631BH         LINE#         155
  C:631BH         LINE#         156
BL51 BANKED LINKER/LOCATER V6.22.2.0                                                  05/12/2021  10:45:41  PAGE 58


  C:631BH         LINE#         157
  C:632EH         LINE#         158
  -------         ENDPROC       _MCUTIMERGETEVENTTIME
  -------         PROC          _MCUTIMERGETEVENTID
  D:0007H         SYMBOL        ucEventIndex
  C:62F2H         LINE#         165
  C:62F2H         LINE#         166
  C:62F2H         LINE#         167
  C:6306H         LINE#         168
  -------         ENDPROC       _MCUTIMERGETEVENTID
  -------         PROC          _MCUTIMERCLREVENTVALID
  D:0007H         SYMBOL        ucEventIndex
  C:632FH         LINE#         177
  C:632FH         LINE#         178
  C:632FH         LINE#         179
  C:6341H         LINE#         180
  -------         ENDPROC       _MCUTIMERCLREVENTVALID
  -------         PROC          _MCUTIMERCHECKEVENTVALID
  D:0007H         SYMBOL        ucEventIndex
  C:6366H         LINE#         187
  C:6366H         LINE#         188
  C:6366H         LINE#         189
  C:6376H         LINE#         190
  -------         ENDPROC       _MCUTIMERCHECKEVENTVALID
  -------         PROC          MCUTIMERGETTIMERCOUNTER
  -------         DO            
  X:0230H         SYMBOL        usPresentTime
  -------         ENDDO         
  C:5D1CH         LINE#         197
  C:5D1CH         LINE#         198
  C:5D1CH         LINE#         199
  C:5D2BH         LINE#         203
  C:5D4EH         LINE#         204
  C:5D4EH         LINE#         205
  C:5D5DH         LINE#         206
  C:5D5DH         LINE#         208
  C:5D65H         LINE#         209
  -------         ENDPROC       MCUTIMERGETTIMERCOUNTER
  -------         PROC          _MCUTIMERCHECKTIMEREVENT
  X:022BH         SYMBOL        usTime
  -------         DO            
  X:022DH         SYMBOL        ucTimerEventCnt
  X:022EH         SYMBOL        usPresentTime
  -------         ENDDO         
  C:4F69H         LINE#         215
  C:4F71H         LINE#         216
  C:4F71H         LINE#         217
  C:4F74H         LINE#         218
  C:4F78H         LINE#         220
  C:4F83H         LINE#         222
  C:4F9AH         LINE#         223
  C:4F9AH         LINE#         224
  C:4FA4H         LINE#         225
  C:4FA4H         LINE#         227
  C:4FE6H         LINE#         229
  C:4FE6H         LINE#         230
  C:4FEDH         LINE#         233
BL51 BANKED LINKER/LOCATER V6.22.2.0                                                  05/12/2021  10:45:41  PAGE 59


  C:5002H         LINE#         234
  C:5002H         LINE#         235
  C:5017H         LINE#         236
  C:5017H         LINE#         237
  C:503DH         LINE#         238
  C:503DH         LINE#         239
  C:5067H         LINE#         240
  C:5069H         LINE#         242
  C:5069H         LINE#         243
  C:507EH         LINE#         244
  C:507EH         LINE#         245
  C:507EH         LINE#         246
  C:5087H         LINE#         248
  C:508EH         LINE#         249
  C:508EH         LINE#         251
  C:5096H         LINE#         252
  -------         ENDPROC       _MCUTIMERCHECKTIMEREVENT
  -------         PROC          MCUTIMERINITIALTIMEREVENT
  -------         DO            
  D:0007H         SYMBOL        ucTimerEventCnt
  -------         ENDDO         
  C:003EH         LINE#         259
  C:003EH         LINE#         260
  C:003EH         LINE#         261
  C:0040H         LINE#         263
  C:004AH         LINE#         264
  C:004AH         LINE#         265
  C:005CH         LINE#         266
  C:005FH         LINE#         269
  -------         ENDPROC       MCUTIMERINITIALTIMEREVENT
  C:519BH         SYMBOL        L?0375
  -------         PROC          L?0374
  -------         ENDPROC       L?0374
  C:519BH         SYMBOL        L?0375
  -------         PROC          _MCUTIMERACTIVETIMEREVENT
  X:0227H         SYMBOL        usTime
  X:0229H         SYMBOL        ucEventID
  -------         DO            
  X:022AH         SYMBOL        ucEventIndex
  -------         ENDDO         
  C:519FH         LINE#         277
  C:51AAH         LINE#         278
  C:51AAH         LINE#         279
  C:51ADH         LINE#         282
  C:51BCH         LINE#         283
  C:51BCH         LINE#         284
  C:51D2H         LINE#         285
  C:51D2H         LINE#         286
  C:51E2H         LINE#         287
  C:51E2H         LINE#         289
  C:51E2H         LINE#         290
  C:51E2H         LINE#         291
  C:51EAH         LINE#         294
  C:5200H         LINE#         295
  C:5200H         LINE#         296
  C:5214H         LINE#         297
  C:5214H         LINE#         298
BL51 BANKED LINKER/LOCATER V6.22.2.0                                                  05/12/2021  10:45:41  PAGE 60


  C:522AH         LINE#         299
  C:5246H         LINE#         300
  C:5274H         LINE#         302
  C:5274H         LINE#         303
  C:527DH         LINE#         306
  -------         ENDPROC       _MCUTIMERACTIVETIMEREVENT
  -------         PROC          _MCUTIMERCANCELTIMEREVENT
  D:0007H         SYMBOL        ucEventID
  -------         DO            
  D:0006H         SYMBOL        ucEventIndex
  -------         ENDDO         
  C:5EC0H         LINE#         313
  C:5EC0H         LINE#         314
  C:5EC0H         LINE#         315
  C:5EC2H         LINE#         318
  C:5ECCH         LINE#         319
  C:5ECCH         LINE#         320
  C:5EE2H         LINE#         321
  C:5EE2H         LINE#         322
  C:5EEAH         LINE#         323
  C:5EEAH         LINE#         324
  C:5EFDH         LINE#         326
  C:5EFDH         LINE#         327
  C:5EFDH         LINE#         328
  C:5F00H         LINE#         329
  -------         ENDPROC       _MCUTIMERCANCELTIMEREVENT
  -------         PROC          _MCUTIMERREACTIVETIMEREVENT
  X:0200H         SYMBOL        usTime
  X:0202H         SYMBOL        ucEventID
  -------         DO            
  X:0203H         SYMBOL        ucEventIndex
  -------         ENDDO         
  C:527EH         LINE#         338
  C:5289H         LINE#         339
  C:5289H         LINE#         340
  C:528CH         LINE#         343
  C:529BH         LINE#         344
  C:529BH         LINE#         345
  C:52B1H         LINE#         346
  C:52B1H         LINE#         347
  C:52BEH         LINE#         348
  C:52BEH         LINE#         349
  C:52C0H         LINE#         351
  C:52C0H         LINE#         352
  C:52C0H         LINE#         353
  C:52C8H         LINE#         356
  C:52DEH         LINE#         357
  C:52DEH         LINE#         358
  C:52F2H         LINE#         359
  C:52F2H         LINE#         360
  C:5308H         LINE#         361
  C:5324H         LINE#         362
  C:5352H         LINE#         364
  C:5352H         LINE#         365
  C:535BH         LINE#         366
  -------         ENDPROC       _MCUTIMERREACTIVETIMEREVENT
  -------         PROC          _USERINTERFACETIMEREVENTPROC
BL51 BANKED LINKER/LOCATER V6.22.2.0                                                  05/12/2021  10:45:41  PAGE 61


  D:0007H         SYMBOL        ucEventID
  C:4E0EH         LINE#         369
  C:4E0EH         LINE#         370
  C:4E0EH         LINE#         372
  C:4E56H         LINE#         373
  C:4E56H         LINE#         375
  C:4E56H         LINE#         376
  C:4E56H         LINE#         377
  C:4E56H         LINE#         381
  C:4E58H         LINE#         383
  C:4E58H         LINE#         384
  C:4E58H         LINE#         385
  C:4E58H         LINE#         389
  C:4E58H         LINE#         390
  C:4E60H         LINE#         392
  C:4E6CH         LINE#         396
  C:4E6CH         LINE#         397
  C:4E6CH         LINE#         398
  C:4E6EH         LINE#         402
  C:4E70H         LINE#         403
  C:4E70H         LINE#         404
  C:4E72H         LINE#         408
  C:4E74H         LINE#         409
  C:4E74H         LINE#         413
  C:4E7CH         LINE#         414
  C:4E7CH         LINE#         415
  C:4E83H         LINE#         416
  C:4E8BH         LINE#         417
  C:4E93H         LINE#         418
  C:4E96H         LINE#         419
  C:4E98H         LINE#         421
  C:4E98H         LINE#         422
  C:4EA0H         LINE#         423
  C:4EA8H         LINE#         424
  C:4EB0H         LINE#         425
  C:4EBAH         LINE#         426
  C:4EBAH         LINE#         427
  C:4EBBH         LINE#         428
  C:4EBBH         LINE#         430
  C:4ECAH         LINE#         431
  C:4ECAH         LINE#         432
  C:4ECFH         LINE#         436
  C:4ECFH         LINE#         444
  C:4ECFH         LINE#         446
  C:4ECFH         LINE#         448
  C:4EDEH         LINE#         449
  C:4EDEH         LINE#         450
  C:4EE6H         LINE#         451
  C:4EEAH         LINE#         455
  C:4EEAH         LINE#         456
  C:4EEBH         LINE#         458
  C:4EEBH         LINE#         459
  C:4EF5H         LINE#         460
  C:4EFFH         LINE#         461
  C:4F04H         LINE#         462
  C:4F0EH         LINE#         463
  C:4F13H         LINE#         464
BL51 BANKED LINKER/LOCATER V6.22.2.0                                                  05/12/2021  10:45:41  PAGE 62


  C:4F19H         LINE#         465
  C:4F1DH         LINE#         470
  C:4F1EH         LINE#         472
  C:4F1EH         LINE#         476
  C:4F2BH         LINE#         477
  C:4F2BH         LINE#         478
  C:4F2FH         LINE#         479
  C:4F32H         LINE#         480
  C:4F37H         LINE#         481
  C:4F40H         LINE#         483
  C:4F43H         LINE#         484
  C:4F44H         LINE#         486
  C:4F44H         LINE#         487
  C:4F49H         LINE#         488
  C:4F49H         LINE#         489
  C:4F49H         LINE#         491
  C:4F49H         LINE#         495
  C:4F50H         LINE#         496
  C:4F55H         LINE#         497
  C:4F5EH         LINE#         498
  C:4F5EH         LINE#         500
  C:4F5EH         LINE#         504
  C:4F61H         LINE#         505
  C:4F61H         LINE#         507
  C:4F61H         LINE#         511
  C:4F61H         LINE#         513
  C:4F61H         LINE#         514
  C:4F63H         LINE#         518
  C:4F68H         LINE#         519
  C:4F68H         LINE#         521
  C:4F68H         LINE#         525
  C:4F68H         LINE#         533
  C:4F68H         LINE#         536
  C:4F68H         LINE#         538
  -------         ENDPROC       _USERINTERFACETIMEREVENTPROC
  -------         PROC          SYSTIMERHANDLER
  -------         DO            
  X:01FFH         SYMBOL        ucTimerEventIndex
  X:0200H         SYMBOL        ucTimerEventID
  X:0201H         SYMBOL        usPresentTime
  -------         ENDDO         
  C:581AH         LINE#         545
  C:581AH         LINE#         546
  C:581AH         LINE#         547
  C:581FH         LINE#         548
  C:5821H         LINE#         549
  C:5825H         LINE#         551
  C:5836H         LINE#         552
  C:5836H         LINE#         553
  C:5841H         LINE#         555
  C:584BH         LINE#         556
  C:584BH         LINE#         557
  C:584BH         LINE#         558
  C:584BH         LINE#         560
  C:5860H         LINE#         561
  C:5860H         LINE#         562
  C:5868H         LINE#         565
BL51 BANKED LINKER/LOCATER V6.22.2.0                                                  05/12/2021  10:45:41  PAGE 63


  C:5875H         LINE#         567
  C:587EH         LINE#         568
  C:587EH         LINE#         569
  C:5883H         LINE#         571
  C:5885H         LINE#         572
  C:5885H         LINE#         574
  C:5893H         LINE#         575
  C:5893H         LINE#         576
  C:5896H         LINE#         578
  C:5896H         LINE#         579
  C:5896H         LINE#         582
  C:5896H         LINE#         583
  C:589EH         LINE#         585
  -------         ENDPROC       SYSTIMERHANDLER
  -------         PROC          _SYSTIMEREVENTPROC
  D:0007H         SYMBOL        enumEventID
  C:0066H         LINE#         592
  C:0066H         LINE#         593
  C:0066H         LINE#         595
  C:00DFH         LINE#         596
  C:00DFH         LINE#         597
  C:00DFH         LINE#         598
  C:00E1H         LINE#         599
  C:00E3H         LINE#         601
  C:00E3H         LINE#         602
  C:00E5H         LINE#         603
  C:00E7H         LINE#         605
  C:00E7H         LINE#         606
  C:00E9H         LINE#         607
  C:00EBH         LINE#         609
  C:00EBH         LINE#         610
  C:00F0H         LINE#         611
  C:00F0H         LINE#         613
  C:00F0H         LINE#         614
  C:00F5H         LINE#         615
  C:00F9H         LINE#         616
  C:00FCH         LINE#         618
  C:00FCH         LINE#         619
  C:0101H         LINE#         620
  C:0103H         LINE#         621
  C:0106H         LINE#         623
  C:0106H         LINE#         624
  C:010BH         LINE#         625
  C:010DH         LINE#         627
  C:0110H         LINE#         629
  C:0110H         LINE#         630
  C:0115H         LINE#         631
  C:0117H         LINE#         633
  C:011AH         LINE#         635
  C:011AH         LINE#         636
  C:011FH         LINE#         637
  C:0121H         LINE#         638
  C:0124H         LINE#         639
  C:0124H         LINE#         641
  C:0124H         LINE#         642
  C:0129H         LINE#         643
  C:012BH         LINE#         644
BL51 BANKED LINKER/LOCATER V6.22.2.0                                                  05/12/2021  10:45:41  PAGE 64


  C:012EH         LINE#         645
  C:012EH         LINE#         646
  C:0133H         LINE#         647
  C:0138H         LINE#         648
  C:013BH         LINE#         649
  C:0140H         LINE#         650
  C:0143H         LINE#         652
  C:0148H         LINE#         653
  C:014BH         LINE#         654
  C:0150H         LINE#         655
  C:0153H         LINE#         657
  C:0158H         LINE#         658
  C:015BH         LINE#         659
  C:0160H         LINE#         660
  C:0163H         LINE#         662
  C:0163H         LINE#         663
  C:0166H         LINE#         665
  C:0166H         LINE#         667
  C:016EH         LINE#         668
  C:016EH         LINE#         670
  C:017AH         LINE#         671
  C:017AH         LINE#         673
  C:0181H         LINE#         674
  C:0181H         LINE#         679
  C:0184H         LINE#         680
  C:0189H         LINE#         681
  C:0189H         LINE#         683
  C:0190H         LINE#         684
  C:0190H         LINE#         685
  C:0190H         LINE#         686
  C:0190H         LINE#         690
  C:0190H         LINE#         692
  C:0190H         LINE#         694
  C:0192H         LINE#         696
  C:0192H         LINE#         697
  C:019EH         LINE#         698
  C:019EH         LINE#         699
  C:01A5H         LINE#         700
  C:01A5H         LINE#         701
  C:01A8H         LINE#         702
  C:01ADH         LINE#         706
  C:01ADH         LINE#         708
  C:01B4H         LINE#         709
  C:01B4H         LINE#         713
  C:01B7H         LINE#         714
  C:01BCH         LINE#         715
  C:01BCH         LINE#         716
  C:01BCH         LINE#         717
  C:01BCH         LINE#         719
  C:01BEH         LINE#         720
  C:01C1H         LINE#         721
  C:01C1H         LINE#         723
  C:01C8H         LINE#         724
  C:01CDH         LINE#         726
  C:01CFH         LINE#         728
  C:01D2H         LINE#         729
  C:01D2H         LINE#         733
BL51 BANKED LINKER/LOCATER V6.22.2.0                                                  05/12/2021  10:45:41  PAGE 65


  C:01D9H         LINE#         734
  C:01DAH         LINE#         735
  C:01DAH         LINE#         738
  C:01E5H         LINE#         740
  C:01F0H         LINE#         743
  C:0200H         LINE#         744
  C:0209H         LINE#         745
  C:021BH         LINE#         746
  C:0224H         LINE#         747
  C:0236H         LINE#         748
  C:023FH         LINE#         749
  C:0251H         LINE#         750
  C:025AH         LINE#         751
  C:026CH         LINE#         752
  C:0274H         LINE#         753
  C:0286H         LINE#         754
  C:028EH         LINE#         755
  C:02A0H         LINE#         756
  C:02A7H         LINE#         757
  C:02C1H         LINE#         758
  C:02C3H         LINE#         759
  C:02E2H         LINE#         760
  C:02EAH         LINE#         762
  C:02F0H         LINE#         764
  C:02FFH         LINE#         766
  C:030EH         LINE#         769
  C:0326H         LINE#         770
  C:032EH         LINE#         771
  C:0340H         LINE#         772
  C:0348H         LINE#         773
  C:035AH         LINE#         774
  C:035CH         LINE#         775
  C:036EH         LINE#         776
  C:0376H         LINE#         777
  C:0388H         LINE#         778
  C:0390H         LINE#         779
  C:0390H         LINE#         780
  C:0397H         LINE#         781
  C:039CH         LINE#         782
  C:03A2H         LINE#         783
  C:03A2H         LINE#         785
  C:03ACH         LINE#         786
  C:03B2H         LINE#         788
  C:03C1H         LINE#         790
  C:03C9H         LINE#         791
  C:03D2H         LINE#         792
  C:03D4H         LINE#         794
  C:03DCH         LINE#         795
  C:03E8H         LINE#         796
  C:03EAH         LINE#         808
  C:03EBH         LINE#         809
  C:03EBH         LINE#         813
  C:03F6H         LINE#         817
  C:03FEH         LINE#         828
  C:03FEH         LINE#         829
  C:0409H         LINE#         830
  C:0409H         LINE#         831
BL51 BANKED LINKER/LOCATER V6.22.2.0                                                  05/12/2021  10:45:41  PAGE 66


  C:040EH         LINE#         832
  C:0412H         LINE#         833
  C:0416H         LINE#         834
  C:0418H         LINE#         835
  C:041AH         LINE#         836
  C:041EH         LINE#         837
  C:0422H         LINE#         838
  C:0426H         LINE#         839
  C:042AH         LINE#         840
  C:042EH         LINE#         841
  C:042EH         LINE#         845
  C:043EH         LINE#         846
  C:043EH         LINE#         847
  C:0443H         LINE#         848
  C:0447H         LINE#         849
  C:044BH         LINE#         850
  C:044DH         LINE#         851
  C:044FH         LINE#         852
  C:0455H         LINE#         853
  C:0456H         LINE#         854
  C:0456H         LINE#         855
  C:0456H         LINE#         856
  C:0459H         LINE#         857
  C:046BH         LINE#         858
  C:046BH         LINE#         860
  C:0470H         LINE#         861
  C:0474H         LINE#         862
  C:0478H         LINE#         863
  C:047AH         LINE#         864
  C:047CH         LINE#         865
  C:0480H         LINE#         866
  C:0484H         LINE#         867
  C:0488H         LINE#         868
  C:048EH         LINE#         869
  C:0491H         LINE#         870
  C:04A3H         LINE#         871
  C:04A3H         LINE#         873
  C:04A9H         LINE#         874
  C:04AEH         LINE#         875
  C:04B2H         LINE#         876
  C:04B4H         LINE#         877
  C:04B6H         LINE#         878
  C:04BAH         LINE#         879
  C:04BAH         LINE#         880
  C:04BAH         LINE#         881
  C:04BAH         LINE#         882
  C:04BCH         LINE#         883
  C:04CEH         LINE#         884
  C:04CEH         LINE#         886
  C:04D3H         LINE#         887
  C:04D9H         LINE#         888
  C:04DEH         LINE#         889
  C:04E0H         LINE#         890
  C:04E2H         LINE#         891
  C:04E6H         LINE#         892
  C:04E9H         LINE#         893
  C:04E9H         LINE#         895
BL51 BANKED LINKER/LOCATER V6.22.2.0                                                  05/12/2021  10:45:41  PAGE 67


  C:04ECH         LINE#         896
  C:04FEH         LINE#         897
  C:04FEH         LINE#         899
  C:0503H         LINE#         900
  C:0507H         LINE#         901
  C:050DH         LINE#         902
  C:0510H         LINE#         903
  C:0512H         LINE#         904
  C:0516H         LINE#         905
  C:051AH         LINE#         906
  C:051DH         LINE#         907
  C:051DH         LINE#         909
  C:0520H         LINE#         910
  C:0532H         LINE#         911
  C:0532H         LINE#         913
  C:0537H         LINE#         914
  C:053BH         LINE#         915
  C:053FH         LINE#         916
  C:0543H         LINE#         917
  C:0546H         LINE#         918
  C:054AH         LINE#         919
  C:054EH         LINE#         920
  C:0551H         LINE#         921
  C:0551H         LINE#         923
  C:0554H         LINE#         924
  C:0566H         LINE#         925
  C:0566H         LINE#         927
  C:056BH         LINE#         928
  C:056FH         LINE#         929
  C:0573H         LINE#         930
  C:0575H         LINE#         931
  C:0579H         LINE#         932
  C:057EH         LINE#         933
  C:0582H         LINE#         934
  C:0585H         LINE#         935
  C:0585H         LINE#         938
  C:0587H         LINE#         939
  C:05A1H         LINE#         940
  C:05A1H         LINE#         941
  C:05A5H         LINE#         942
  C:05A9H         LINE#         943
  C:05ADH         LINE#         944
  C:05AFH         LINE#         945
  C:05B1H         LINE#         946
  C:05B5H         LINE#         947
  C:05BBH         LINE#         948
  C:05BFH         LINE#         949
  C:05BFH         LINE#         951
  C:05C1H         LINE#         952
  C:05E0H         LINE#         953
  C:05E0H         LINE#         954
  C:05E4H         LINE#         955
  C:05E8H         LINE#         956
  C:05ECH         LINE#         957
  C:05EEH         LINE#         958
  C:05F0H         LINE#         959
  C:05F4H         LINE#         960
BL51 BANKED LINKER/LOCATER V6.22.2.0                                                  05/12/2021  10:45:41  PAGE 68


  C:05FAH         LINE#         961
  C:05FFH         LINE#         962
  C:05FFH         LINE#         964
  C:0601H         LINE#         966
  C:0601H         LINE#         967
  C:0606H         LINE#         968
  C:060AH         LINE#         969
  C:060EH         LINE#         970
  C:0610H         LINE#         971
  C:0612H         LINE#         972
  C:0616H         LINE#         973
  C:061AH         LINE#         974
  C:0620H         LINE#         975
  C:0625H         LINE#         976
  C:0625H         LINE#         978
  C:0634H         LINE#         979
  C:063CH         LINE#         981
  C:0641H         LINE#         983
  C:0649H         LINE#         984
  C:0649H         LINE#         985
  C:064FH         LINE#         986
  C:0654H         LINE#         987
  C:0654H         LINE#         988
  C:065CH         LINE#         989
  C:065CH         LINE#         990
  C:0662H         LINE#         991
  C:0667H         LINE#         992
  C:0667H         LINE#         993
  C:066FH         LINE#         994
  C:066FH         LINE#         995
  C:0675H         LINE#         996
  C:067AH         LINE#         997
  C:067AH         LINE#         998
  C:0682H         LINE#         999
  C:0682H         LINE#         1000
  C:0687H         LINE#         1001
  C:068CH         LINE#         1002
  C:068CH         LINE#         1003
  C:0694H         LINE#         1004
  C:0694H         LINE#         1005
  C:0698H         LINE#         1006
  C:069CH         LINE#         1007
  C:069CH         LINE#         1009
  C:06A4H         LINE#         1010
  C:06A4H         LINE#         1011
  C:06AAH         LINE#         1012
  C:06AFH         LINE#         1013
  C:06AFH         LINE#         1015
  C:06B7H         LINE#         1016
  C:06B7H         LINE#         1017
  C:06BBH         LINE#         1018
  C:06C0H         LINE#         1019
  C:06C0H         LINE#         1021
  C:06C8H         LINE#         1022
  C:06C8H         LINE#         1023
  C:06CEH         LINE#         1024
  C:06D1H         LINE#         1025
BL51 BANKED LINKER/LOCATER V6.22.2.0                                                  05/12/2021  10:45:41  PAGE 69


  C:06D1H         LINE#         1027
  C:06D9H         LINE#         1028
  C:06D9H         LINE#         1029
  C:06DDH         LINE#         1030
  C:06E2H         LINE#         1031
  C:06E2H         LINE#         1033
  C:06EAH         LINE#         1034
  C:06EAH         LINE#         1035
  C:06F0H         LINE#         1036
  C:06F5H         LINE#         1037
  C:06F5H         LINE#         1039
  C:0701H         LINE#         1040
  C:0701H         LINE#         1041
  C:0703H         LINE#         1042
  C:070CH         LINE#         1043
  C:070CH         LINE#         1045
  C:072CH         LINE#         1047
  C:072CH         LINE#         1048
  C:0731H         LINE#         1050
  C:073CH         LINE#         1051
  C:0743H         LINE#         1057
  C:074CH         LINE#         1058
  C:074CH         LINE#         1060
  C:0754H         LINE#         1061
  C:0754H         LINE#         1062
  C:0760H         LINE#         1063
  C:0760H         LINE#         1067
  C:0764H         LINE#         1068
  C:076DH         LINE#         1070
  C:0777H         LINE#         1071
  C:077FH         LINE#         1072
  C:077FH         LINE#         1074
  C:0784H         LINE#         1075
  C:0784H         LINE#         1077
  C:0793H         LINE#         1078
  C:0793H         LINE#         1082
  C:079BH         LINE#         1083
  C:079EH         LINE#         1085
  C:07A2H         LINE#         1115
  C:07A5H         LINE#         1117
  C:07A5H         LINE#         1122
  C:07B0H         LINE#         1123
  C:07B0H         LINE#         1124
  C:07B8H         LINE#         1131
  C:07B9H         LINE#         1140
  C:07C1H         LINE#         1141
  C:07C9H         LINE#         1144
  C:07C9H         LINE#         1145
  C:07D4H         LINE#         1146
  C:07D4H         LINE#         1147
  C:07E8H         LINE#         1148
  C:07E8H         LINE#         1149
  C:07EEH         LINE#         1150
  C:07F6H         LINE#         1151
  C:07F6H         LINE#         1153
  C:07F6H         LINE#         1157
  C:07FCH         LINE#         1158
BL51 BANKED LINKER/LOCATER V6.22.2.0                                                  05/12/2021  10:45:41  PAGE 70


  C:07FCH         LINE#         1164
  C:07FFH         LINE#         1166
  C:0805H         LINE#         1168
  C:0805H         LINE#         1170
  C:0808H         LINE#         1171
  C:0808H         LINE#         1172
  C:0813H         LINE#         1173
  C:0818H         LINE#         1174
  C:081BH         LINE#         1175
  C:081BH         LINE#         1179
  C:0826H         LINE#         1191
  C:0839H         LINE#         1192
  C:0839H         LINE#         1193
  C:083EH         LINE#         1194
  C:0842H         LINE#         1195
  C:0846H         LINE#         1196
  C:084CH         LINE#         1197
  C:084DH         LINE#         1198
  C:0850H         LINE#         1199
  C:0869H         LINE#         1200
  C:0869H         LINE#         1201
  C:086EH         LINE#         1202
  C:0872H         LINE#         1203
  C:0876H         LINE#         1204
  C:087AH         LINE#         1205
  C:0880H         LINE#         1206
  C:0883H         LINE#         1207
  C:0895H         LINE#         1208
  C:0895H         LINE#         1209
  C:089BH         LINE#         1210
  C:08A0H         LINE#         1211
  C:08A4H         LINE#         1212
  C:08A8H         LINE#         1213
  C:08A8H         LINE#         1214
  C:08AAH         LINE#         1215
  C:08BCH         LINE#         1216
  C:08BCH         LINE#         1217
  C:08C1H         LINE#         1218
  C:08C5H         LINE#         1219
  C:08CBH         LINE#         1220
  C:08D0H         LINE#         1221
  C:08D0H         LINE#         1223
  C:08D2H         LINE#         1224
  C:08E4H         LINE#         1225
  C:08E4H         LINE#         1226
  C:08E9H         LINE#         1227
  C:08EFH         LINE#         1228
  C:08F4H         LINE#         1229
  C:08F8H         LINE#         1230
  C:08F8H         LINE#         1231
  C:08FAH         LINE#         1233
  C:08FAH         LINE#         1236
  C:0901H         LINE#         1237
  C:0906H         LINE#         1239
  C:090CH         LINE#         1240
  C:0911H         LINE#         1241
  C:0915H         LINE#         1242
BL51 BANKED LINKER/LOCATER V6.22.2.0                                                  05/12/2021  10:45:41  PAGE 71


  C:0919H         LINE#         1243
  C:091DH         LINE#         1244
  C:0921H         LINE#         1245
  C:0921H         LINE#         1247
  C:0977H         LINE#         1249
  C:097DH         LINE#         1252
  C:0985H         LINE#         1253
  C:0985H         LINE#         1254
  C:098BH         LINE#         1255
  C:0990H         LINE#         1256
  C:0997H         LINE#         1257
  C:099AH         LINE#         1258
  C:09A1H         LINE#         1259
  C:09A1H         LINE#         1261
  C:09A9H         LINE#         1262
  C:09A9H         LINE#         1263
  C:09AFH         LINE#         1264
  C:09B4H         LINE#         1265
  C:09BBH         LINE#         1266
  C:09BEH         LINE#         1267
  C:09C5H         LINE#         1268
  C:09C5H         LINE#         1270
  C:09CDH         LINE#         1271
  C:09CDH         LINE#         1272
  C:09D1H         LINE#         1273
  C:09D6H         LINE#         1274
  C:09DDH         LINE#         1275
  C:09E0H         LINE#         1276
  C:09E7H         LINE#         1277
  C:09E7H         LINE#         1279
  C:09EFH         LINE#         1280
  C:09EFH         LINE#         1281
  C:09F5H         LINE#         1282
  C:09FAH         LINE#         1283
  C:0A01H         LINE#         1284
  C:0A04H         LINE#         1285
  C:0A0BH         LINE#         1286
  C:0A0BH         LINE#         1288
  C:0A13H         LINE#         1289
  C:0A13H         LINE#         1290
  C:0A19H         LINE#         1291
  C:0A1EH         LINE#         1292
  C:0A25H         LINE#         1293
  C:0A28H         LINE#         1294
  C:0A2FH         LINE#         1295
  C:0A2FH         LINE#         1305
  C:0A3EH         LINE#         1308
  C:0A57H         LINE#         1309
  C:0A57H         LINE#         1310
  C:0A5DH         LINE#         1311
  C:0A62H         LINE#         1312
  C:0A64H         LINE#         1314
  C:0A64H         LINE#         1315
  C:0A69H         LINE#         1316
  C:0A6FH         LINE#         1318
  C:0A6FH         LINE#         1320
  C:0A77H         LINE#         1321
BL51 BANKED LINKER/LOCATER V6.22.2.0                                                  05/12/2021  10:45:41  PAGE 72


  C:0A77H         LINE#         1322
  C:0A78H         LINE#         1323
  C:0A8DH         LINE#         1324
  C:0A94H         LINE#         1328
  C:0A96H         LINE#         1329
  C:0A9EH         LINE#         1330
  C:0A9EH         LINE#         1331
  C:0A9FH         LINE#         1332
  C:0AA6H         LINE#         1333
  C:0AA6H         LINE#         1365
  C:0AAEH         LINE#         1366
  C:0AB4H         LINE#         1368
  C:0AB8H         LINE#         1369
  C:0ABBH         LINE#         1371
  C:0ABBH         LINE#         1374
  C:0AC8H         LINE#         1375
  C:0AC8H         LINE#         1379
  C:0ACCH         LINE#         1380
  C:0ACFH         LINE#         1381
  C:0AD5H         LINE#         1382
  C:0AD5H         LINE#         1383
  C:0AD8H         LINE#         1385
  C:0AD8H         LINE#         1401
  C:0AE3H         LINE#         1402
  C:0AE3H         LINE#         1403
  C:0AF0H         LINE#         1404
  C:0AF0H         LINE#         1405
  C:0AF4H         LINE#         1407
  C:0AF6H         LINE#         1412
  C:0AFEH         LINE#         1413
  C:0B07H         LINE#         1414
  C:0B09H         LINE#         1416
  C:0B11H         LINE#         1417
  C:0B1AH         LINE#         1418
  C:0B1CH         LINE#         1420
  C:0B1CH         LINE#         1422
  C:0B27H         LINE#         1423
  C:0B27H         LINE#         1424
  C:0B29H         LINE#         1425
  C:0B2CH         LINE#         1427
  C:0B2CH         LINE#         1429
  C:0B36H         LINE#         1430
  C:0B36H         LINE#         1432
  C:0B59H         LINE#         1433
  C:0B59H         LINE#         1434
  C:0B64H         LINE#         1435
  C:0B68H         LINE#         1437
  C:0B6AH         LINE#         1438
  C:0B6DH         LINE#         1439
  C:0B77H         LINE#         1440
  C:0B7AH         LINE#         1444
  C:0B84H         LINE#         1445
  C:0B84H         LINE#         1447
  C:0BA7H         LINE#         1448
  C:0BA7H         LINE#         1449
  C:0BB2H         LINE#         1450
  C:0BB6H         LINE#         1452
BL51 BANKED LINKER/LOCATER V6.22.2.0                                                  05/12/2021  10:45:41  PAGE 73


  C:0BB8H         LINE#         1453
  C:0BBAH         LINE#         1454
  C:0BC4H         LINE#         1455
  C:0BC6H         LINE#         1457
  C:0BC6H         LINE#         1458
  C:0BC8H         LINE#         1459
  C:0BD2H         LINE#         1460
  C:0BD2H         LINE#         1462
  C:0BF5H         LINE#         1463
  C:0BF5H         LINE#         1464
  C:0C00H         LINE#         1465
  C:0C04H         LINE#         1467
  C:0C06H         LINE#         1468
  C:0C08H         LINE#         1469
  C:0C12H         LINE#         1470
  C:0C19H         LINE#         1472
  C:0C22H         LINE#         1473
  C:0C22H         LINE#         1476
  C:0C22H         LINE#         1478
  C:0C28H         LINE#         1481
  C:0C2AH         LINE#         1483
  C:0C2AH         LINE#         1484
  C:0C31H         LINE#         1485
  C:0C33H         LINE#         1486
  C:0C36H         LINE#         1487
  C:0C3BH         LINE#         1488
  C:0C4BH         LINE#         1489
  C:0C50H         LINE#         1490
  C:0C59H         LINE#         1491
  C:0C62H         LINE#         1492
  C:0C62H         LINE#         1494
  C:0C64H         LINE#         1496
  C:0C65H         LINE#         1498
  C:0C65H         LINE#         1500
  C:0C98H         LINE#         1502
  C:0C98H         LINE#         1503
  C:0C9EH         LINE#         1504
  C:0CA8H         LINE#         1505
  C:0CB0H         LINE#         1510
  C:0CB9H         LINE#         1511
  C:0CB9H         LINE#         1514
  C:0CBAH         LINE#         1516
  C:0CBAH         LINE#         1518
  C:0CC2H         LINE#         1519
  C:0CCAH         LINE#         1528
  C:0CE1H         LINE#         1529
  C:0CE1H         LINE#         1530
  C:0CE6H         LINE#         1531
  C:0CEFH         LINE#         1532
  C:0CEFH         LINE#         1534
  C:0D06H         LINE#         1535
  C:0D06H         LINE#         1536
  C:0D0BH         LINE#         1537
  C:0D14H         LINE#         1538
  C:0D14H         LINE#         1571
  C:0D1CH         LINE#         1572
  C:0D1CH         LINE#         1573
BL51 BANKED LINKER/LOCATER V6.22.2.0                                                  05/12/2021  10:45:41  PAGE 74


  C:0D2AH         LINE#         1574
  C:0D2AH         LINE#         1578
  C:0D31H         LINE#         1579
  C:0D34H         LINE#         1580
  C:0D34H         LINE#         1582
  C:0D34H         LINE#         1584
  C:0D5AH         LINE#         1585
  C:0D5AH         LINE#         1587
  C:0D5AH         LINE#         1589
  C:0D67H         LINE#         1590
  C:0D67H         LINE#         1594
  C:0D6BH         LINE#         1595
  C:0D6BH         LINE#         1604
  C:0D77H         LINE#         1605
  C:0D77H         LINE#         1609
  C:0D7BH         LINE#         1610
  C:0D84H         LINE#         1611
  C:0D8EH         LINE#         1612
  C:0D96H         LINE#         1613
  C:0D96H         LINE#         1614
  C:0D9DH         LINE#         1642
  C:0DA0H         LINE#         1643
  C:0DA0H         LINE#         1644
  C:0DA0H         LINE#         1645
  C:0DBFH         LINE#         1646
  C:0DBFH         LINE#         1647
  C:0DC4H         LINE#         1649
  C:0DCEH         LINE#         1650
  C:0DD6H         LINE#         1655
  C:0DD9H         LINE#         1656
  C:0DDBH         LINE#         1657
  C:0DF7H         LINE#         1658
  C:0DF7H         LINE#         1659
  C:0DF9H         LINE#         1660
  C:0E00H         LINE#         1662
  C:0E0CH         LINE#         1663
  C:0E10H         LINE#         1664
  C:0E10H         LINE#         1666
  C:0E1BH         LINE#         1667
  C:0E1BH         LINE#         1668
  C:0E23H         LINE#         1672
  C:0E23H         LINE#         1674
  C:0E2AH         LINE#         1675
  C:0E2FH         LINE#         1676
  C:0E31H         LINE#         1678
  C:0E31H         LINE#         1679
  C:0E38H         LINE#         1681
  C:0E43H         LINE#         1682
  C:0E43H         LINE#         1683
  C:0E4BH         LINE#         1687
  C:0E4BH         LINE#         1688
  C:0E4DH         LINE#         1689
  C:0E4DH         LINE#         1690
  C:0E4DH         LINE#         1691
  C:0E4DH         LINE#         1692
  C:0E4DH         LINE#         1693
  C:0E4DH         LINE#         1695
BL51 BANKED LINKER/LOCATER V6.22.2.0                                                  05/12/2021  10:45:41  PAGE 75


  C:0E54H         LINE#         1706
  C:0E5BH         LINE#         1707
  C:0E5BH         LINE#         1712
  C:0E5BH         LINE#         1772
  C:0E61H         LINE#         1773
  C:0E64H         LINE#         1774
  C:0E64H         LINE#         1788
  C:0E6CH         LINE#         1789
  C:0E6CH         LINE#         1791
  C:0E7AH         LINE#         1792
  C:0E7AH         LINE#         1793
  C:0E82H         LINE#         1794
  C:0E82H         LINE#         1796
  C:0E8BH         LINE#         1797
  C:0E91H         LINE#         1798
  C:0E93H         LINE#         1800
  C:0E93H         LINE#         1801
  C:0E96H         LINE#         1802
  C:0E96H         LINE#         1806
  C:0E98H         LINE#         1807
  C:0E98H         LINE#         1812
  C:0E9DH         LINE#         1815
  C:0EA6H         LINE#         1816
  C:0EA6H         LINE#         1818
  C:0EA8H         LINE#         1820
  C:0EA9H         LINE#         1822
  C:0EA9H         LINE#         1823
  C:0EB6H         LINE#         1824
  C:0EB8H         LINE#         1825
  C:0EBAH         LINE#         1827
  C:0EBAH         LINE#         1828
  C:0EC4H         LINE#         1829
  C:0EC6H         LINE#         1830
  C:0EC8H         LINE#         1831
  C:0EC8H         LINE#         1832
  C:0ED2H         LINE#         1833
  C:0ED4H         LINE#         1834
  C:0ED6H         LINE#         1836
  C:0ED6H         LINE#         1837
  C:0EE0H         LINE#         1838
  C:0EE2H         LINE#         1839
  C:0EE4H         LINE#         1842
  C:0EE4H         LINE#         1843
  C:0EEEH         LINE#         1844
  C:0EF3H         LINE#         1845
  C:0EF3H         LINE#         1848
  C:0EF3H         LINE#         1850
  C:0EFAH         LINE#         1852
  C:0EFFH         LINE#         1853
  C:0EFFH         LINE#         1854
  C:0F00H         LINE#         1855
  C:0F06H         LINE#         1856
  C:0F06H         LINE#         1858
  C:0F0EH         LINE#         1859
  C:0F0EH         LINE#         1860
  C:0F0FH         LINE#         1861
  C:0F15H         LINE#         1862
BL51 BANKED LINKER/LOCATER V6.22.2.0                                                  05/12/2021  10:45:41  PAGE 76


  C:0F15H         LINE#         1864
  C:0F1DH         LINE#         1865
  C:0F1DH         LINE#         1866
  C:0F1EH         LINE#         1867
  C:0F24H         LINE#         1868
  C:0F24H         LINE#         1870
  C:0F27H         LINE#         1872
  C:0F30H         LINE#         1873
  C:0F30H         LINE#         1875
  C:0F30H         LINE#         1877
  C:0F36H         LINE#         1879
  C:0F36H         LINE#         1881
  C:0F36H         LINE#         1882
  C:0F36H         LINE#         1883
  C:0F36H         LINE#         1884
  -------         ENDPROC       _SYSTIMEREVENTPROC
  -------         ENDMOD        SYSTIMER

  -------         MODULE        ?C?FPADD
  C:0F3EH         PUBLIC        ?C?FPADD
  C:0F3AH         PUBLIC        ?C?FPSUB
  -------         ENDMOD        ?C?FPADD

  -------         MODULE        ?C?FPMUL
  C:102FH         PUBLIC        ?C?FPMUL
  -------         ENDMOD        ?C?FPMUL

  -------         MODULE        ?C?FPDIV
  C:1138H         PUBLIC        ?C?FPDIV
  -------         ENDMOD        ?C?FPDIV

  -------         MODULE        ?C?FCAST
  C:11DFH         PUBLIC        ?C?FCASTC
  C:11DAH         PUBLIC        ?C?FCASTI
  C:11D5H         PUBLIC        ?C?FCASTL
  -------         ENDMOD        ?C?FCAST

  -------         MODULE        ?C?CASTF
  C:1213H         PUBLIC        ?C?CASTF
  -------         ENDMOD        ?C?CASTF

  -------         MODULE        ?C?COPY
  C:1364H         PUBLIC        ?C?COPY
  -------         ENDMOD        ?C?COPY

  -------         MODULE        ?C?CLDPTR
  C:138AH         PUBLIC        ?C?CLDPTR
  -------         ENDMOD        ?C?CLDPTR

  -------         MODULE        ?C?CLDOPTR
  C:13A3H         PUBLIC        ?C?CLDOPTR
  -------         ENDMOD        ?C?CLDOPTR

  -------         MODULE        ?C?CILDPTR
  C:13D0H         PUBLIC        ?C?CILDPTR
  -------         ENDMOD        ?C?CILDPTR

BL51 BANKED LINKER/LOCATER V6.22.2.0                                                  05/12/2021  10:45:41  PAGE 77


  -------         MODULE        ?C?CSTOPTR
  C:13F2H         PUBLIC        ?C?CSTOPTR
  -------         ENDMOD        ?C?CSTOPTR

  -------         MODULE        ?C?IMUL
  C:1414H         PUBLIC        ?C?IMUL
  -------         ENDMOD        ?C?IMUL

  -------         MODULE        ?C?UIDIV
  C:1426H         PUBLIC        ?C?UIDIV
  -------         ENDMOD        ?C?UIDIV

  -------         MODULE        ?C?SIDIV
  C:147BH         PUBLIC        ?C?SIDIV
  -------         ENDMOD        ?C?SIDIV

  -------         MODULE        ?C?IILDX
  C:14B1H         PUBLIC        ?C?IILDX
  -------         ENDMOD        ?C?IILDX

  -------         MODULE        ?C?ILDIX
  C:14C7H         PUBLIC        ?C?ILDIX
  -------         ENDMOD        ?C?ILDIX

  -------         MODULE        ?C?ILDPTR
  C:14DDH         PUBLIC        ?C?ILDPTR
  -------         ENDMOD        ?C?ILDPTR

  -------         MODULE        ?C?ILDOPTR
  C:1508H         PUBLIC        ?C?ILDOPTR
  -------         ENDMOD        ?C?ILDOPTR

  -------         MODULE        ?C?ISTPTR
  C:1540H         PUBLIC        ?C?ISTPTR
  -------         ENDMOD        ?C?ISTPTR

  -------         MODULE        ?C?LMUL
  C:155FH         PUBLIC        ?C?LMUL
  -------         ENDMOD        ?C?LMUL

  -------         MODULE        ?C?ULDIV
  C:15EAH         PUBLIC        ?C?ULDIV
  -------         ENDMOD        ?C?ULDIV

  -------         MODULE        ?C?SLDIV
  C:5E3AH         PUBLIC        ?C?SLDIV
  -------         ENDMOD        ?C?SLDIV

  -------         MODULE        ?C?LNEG
  C:167CH         PUBLIC        ?C?LNEG
  -------         ENDMOD        ?C?LNEG

  -------         MODULE        ?C?SLCMP
  C:168AH         PUBLIC        ?C?SLCMP
  -------         ENDMOD        ?C?SLCMP

  -------         MODULE        ?C?ULCMP
BL51 BANKED LINKER/LOCATER V6.22.2.0                                                  05/12/2021  10:45:41  PAGE 78


  C:16A0H         PUBLIC        ?C?ULCMP
  -------         ENDMOD        ?C?ULCMP

  -------         MODULE        ?C?ULSHR
  C:16B1H         PUBLIC        ?C?ULSHR
  -------         ENDMOD        ?C?ULSHR

  -------         MODULE        ?C?SLSHR
  C:16C4H         PUBLIC        ?C?SLSHR
  -------         ENDMOD        ?C?SLSHR

  -------         MODULE        ?C?LSHL
  C:16D8H         PUBLIC        ?C?LSHL
  -------         ENDMOD        ?C?LSHL

  -------         MODULE        ?C?LLDPTR
  C:16EBH         PUBLIC        ?C?LLDPTR
  -------         ENDMOD        ?C?LLDPTR

  -------         MODULE        ?C?LSTXDATA
  C:170BH         PUBLIC        ?C?LSTXDATA
  -------         ENDMOD        ?C?LSTXDATA

  -------         MODULE        ?C?LSTKXDATA
  C:1717H         PUBLIC        ?C?LSTKXDATA
  -------         ENDMOD        ?C?LSTKXDATA

  -------         MODULE        ?C?PLDPTR
  C:1748H         PUBLIC        ?C?PLDPTR
  -------         ENDMOD        ?C?PLDPTR

  -------         MODULE        ?C?CCASE
  C:1768H         PUBLIC        ?C?CCASE
  -------         ENDMOD        ?C?CCASE

  -------         MODULE        ABS
  C:6386H         PUBLIC        _ABS
  -------         ENDMOD        ABS

  -------         MODULE        ?C?LLDIDATA
  C:178EH         PUBLIC        ?C?LLDIDATA
  -------         ENDMOD        ?C?LLDIDATA

  -------         MODULE        ?C?LLDXDATA
  C:179AH         PUBLIC        ?C?LLDXDATA
  -------         ENDMOD        ?C?LLDXDATA

  -------         MODULE        ?C?LLDPDATA
  C:17A6H         PUBLIC        ?C?LLDPDATA
  -------         ENDMOD        ?C?LLDPDATA

  -------         MODULE        ?C?LLDCODE
  C:17B2H         PUBLIC        ?C?LLDCODE
  -------         ENDMOD        ?C?LLDCODE

  -------         MODULE        ?C?PLDIDATA
  C:17C2H         PUBLIC        ?C?PLDIDATA
BL51 BANKED LINKER/LOCATER V6.22.2.0                                                  05/12/2021  10:45:41  PAGE 79


  -------         ENDMOD        ?C?PLDIDATA

  -------         MODULE        ?C?PLDXDATA
  C:17CBH         PUBLIC        ?C?PLDXDATA
  -------         ENDMOD        ?C?PLDXDATA

  -------         MODULE        ?C?PLDPDATA
  C:17D4H         PUBLIC        ?C?PLDPDATA
  -------         ENDMOD        ?C?PLDPDATA

  -------         MODULE        ?C?PLDCODE
  C:17DDH         PUBLIC        ?C?PLDCODE
  -------         ENDMOD        ?C?PLDCODE

Program Size: data=109.5 xdata=709 code=25502
LINK/LOCATE RUN COMPLETE.  0 WARNING(S),  0 ERROR(S)
