BL51 BANKED LINKER/LOCATER V6.22.2.0                                                    05/20/2021  15:51:07  PAGE 1


BL51 BANKED LINKER/LOCATER V6.22.2.0, INVOKED BY:
C:\KEIL_V5\C51\BIN\BL51.EXE .\Output\STARTUP.obj, .\Output\CPU.obj, .\Output\etc_eep.obj, .\Output\HS_DVRProtocol.obj, .
>> \Output\i2c.obj, .\Output\keyremo.obj, .\Output\main.obj, .\Output\monitor.obj, .\Output\Printf.obj, .\Output\SysPowe
>> r.obj, .\Output\SysTimer.obj TO .\Output\ml070i_MRMCU PRINT (.\Listings\ml070i_MRMCU.m51) RAMSIZE (256)


MEMORY MODEL: LARGE WITH FLOATING POINT ARITHMETIC


INPUT MODULES INCLUDED:
  .\Output\STARTUP.obj (?C_STARTUP)
  .\Output\CPU.obj (CPU)
  .\Output\etc_eep.obj (ETC_EEP)
  .\Output\HS_DVRProtocol.obj (HS_DVRPROTOCOL)
  .\Output\i2c.obj (I2C)
  .\Output\keyremo.obj (KEYREMO)
  .\Output\main.obj (MAIN)
  .\Output\monitor.obj (MONITOR)
  .\Output\Printf.obj (PRINTF)
  .\Output\SysPower.obj (SYSPOWER)
  .\Output\SysTimer.obj (SYSTIMER)
  C:\KEIL_V5\C51\LIB\C51FPL.LIB (?C?FPADD)
  C:\KEIL_V5\C51\LIB\C51FPL.LIB (?C?FPMUL)
  C:\KEIL_V5\C51\LIB\C51FPL.LIB (?C?FPDIV)
  C:\KEIL_V5\C51\LIB\C51FPL.LIB (?C?FPCMP)
  C:\KEIL_V5\C51\LIB\C51FPL.LIB (?C?FCAST)
  C:\KEIL_V5\C51\LIB\C51FPL.LIB (?C?CASTF)
  C:\KEIL_V5\C51\LIB\C51FPL.LIB (?C?FPGETOPN)
  C:\KEIL_V5\C51\LIB\C51L.LIB (?C_INIT)
  C:\KEIL_V5\C51\LIB\C51L.LIB (?C?COPY)
  C:\KEIL_V5\C51\LIB\C51L.LIB (?C?CLDPTR)
  C:\KEIL_V5\C51\LIB\C51L.LIB (?C?CLDOPTR)
  C:\KEIL_V5\C51\LIB\C51L.LIB (?C?CILDPTR)
  C:\KEIL_V5\C51\LIB\C51L.LIB (?C?CSTOPTR)
  C:\KEIL_V5\C51\LIB\C51L.LIB (?C?IMUL)
  C:\KEIL_V5\C51\LIB\C51L.LIB (?C?UIDIV)
  C:\KEIL_V5\C51\LIB\C51L.LIB (?C?SIDIV)
  C:\KEIL_V5\C51\LIB\C51L.LIB (?C?IILDX)
  C:\KEIL_V5\C51\LIB\C51L.LIB (?C?ILDIX)
  C:\KEIL_V5\C51\LIB\C51L.LIB (?C?ILDPTR)
  C:\KEIL_V5\C51\LIB\C51L.LIB (?C?ILDOPTR)
  C:\KEIL_V5\C51\LIB\C51L.LIB (?C?ISTPTR)
  C:\KEIL_V5\C51\LIB\C51L.LIB (?C?LMUL)
  C:\KEIL_V5\C51\LIB\C51L.LIB (?C?ULDIV)
  C:\KEIL_V5\C51\LIB\C51L.LIB (?C?SLDIV)
  C:\KEIL_V5\C51\LIB\C51L.LIB (?C?LNEG)
  C:\KEIL_V5\C51\LIB\C51L.LIB (?C?SLCMP)
  C:\KEIL_V5\C51\LIB\C51L.LIB (?C?ULCMP)
  C:\KEIL_V5\C51\LIB\C51L.LIB (?C?ULSHR)
  C:\KEIL_V5\C51\LIB\C51L.LIB (?C?SLSHR)
  C:\KEIL_V5\C51\LIB\C51L.LIB (?C?LSHL)
  C:\KEIL_V5\C51\LIB\C51L.LIB (?C?LLDPTR)
  C:\KEIL_V5\C51\LIB\C51L.LIB (?C?LSTXDATA)
  C:\KEIL_V5\C51\LIB\C51L.LIB (?C?LSTKXDATA)
  C:\KEIL_V5\C51\LIB\C51L.LIB (?C?PLDPTR)
  C:\KEIL_V5\C51\LIB\C51L.LIB (?C?CCASE)
  C:\KEIL_V5\C51\LIB\C51L.LIB (ABS)
  C:\KEIL_V5\C51\LIB\C51L.LIB (?C?LLDIDATA)
BL51 BANKED LINKER/LOCATER V6.22.2.0                                                  05/20/2021  15:51:07  PAGE 2


  C:\KEIL_V5\C51\LIB\C51L.LIB (?C?LLDXDATA)
  C:\KEIL_V5\C51\LIB\C51L.LIB (?C?LLDPDATA)
  C:\KEIL_V5\C51\LIB\C51L.LIB (?C?LLDCODE)
  C:\KEIL_V5\C51\LIB\C51L.LIB (?C?PLDIDATA)
  C:\KEIL_V5\C51\LIB\C51L.LIB (?C?PLDXDATA)
  C:\KEIL_V5\C51\LIB\C51L.LIB (?C?PLDPDATA)
  C:\KEIL_V5\C51\LIB\C51L.LIB (?C?PLDCODE)


LINK MAP OF MODULE:  .\Output\ml070i_MRMCU (?C_STARTUP)


            TYPE    BASE      LENGTH    RELOCATION   SEGMENT NAME
            -----------------------------------------------------

            * * * * * * *   D A T A   M E M O R Y   * * * * * * *
            REG     0000H     0008H     ABSOLUTE     "REG BANK 0"
            REG     0008H     0008H     ABSOLUTE     "REG BANK 1"
            DATA    0010H     0001H     UNIT         ?DT?MONITOR
            IDATA   0011H     0002H     UNIT         ?ID?SYSPOWER
                    0013H     000DH                  *** GAP ***
            BIT     0020H.0   0000H.6   UNIT         ?BI?CPU
            BIT     0020H.6   0000H.3   UNIT         ?BI?MONITOR
            BIT     0021H.1   0000H.2   UNIT         _BIT_GROUP_
            BIT     0021H.3   0000H.1   UNIT         ?BI?HS_DVRPROTOCOL
            BIT     0021H.4   0000H.1   UNIT         ?BI?SYSTIMER
                    0021H.5   0000H.3                *** GAP ***
            DATA    0022H     0058H     UNIT         ?DT?CPU
            IDATA   007AH     0001H     UNIT         ?STACK

            * * * * * * *  X D A T A   M E M O R Y  * * * * * * *
            XDATA   0000H     0106H     UNIT         ?XD?HS_DVRPROTOCOL
            XDATA   0106H     009DH     UNIT         ?XD?MAIN
            XDATA   01A3H     005DH     UNIT         ?XD?SYSTIMER
            XDATA   0200H     0052H     UNIT         _XDATA_GROUP_
            XDATA   0252H     0038H     UNIT         ?XD?MONITOR
            XDATA   028AH     0024H     UNIT         ?XD?CPU
            XDATA   02AEH     0018H     UNIT         ?XD?PRINTF

            * * * * * * *   C O D E   M E M O R Y   * * * * * * *
            CODE    0000H     0003H     ABSOLUTE     
            CODE    0003H     0003H     ABSOLUTE     
            CODE    0006H     0004H     UNIT         ?PR?ISP_INIT?MAIN
                    000AH     0001H                  *** GAP ***
            CODE    000BH     0003H     ABSOLUTE     
            CODE    000EH     0003H     UNIT         ?PR?EXT1_INT?CPU
                    0011H     0002H                  *** GAP ***
            CODE    0013H     0003H     ABSOLUTE     
            CODE    0016H     000DH     UNIT         ?PR?I2CSTOP?I2C
            CODE    0023H     0003H     ABSOLUTE     
                    0026H     0005H                  *** GAP ***
            CODE    002BH     0003H     ABSOLUTE     
                    002EH     0005H                  *** GAP ***
            CODE    0033H     0003H     ABSOLUTE     
                    0036H     0005H                  *** GAP ***
            CODE    003BH     0003H     ABSOLUTE     
            CODE    003EH     0022H     UNIT         ?PR?MCUTIMERINITIALTIMEREVENT?SYSTIMER
BL51 BANKED LINKER/LOCATER V6.22.2.0                                                  05/20/2021  15:51:07  PAGE 3


                    0060H     0003H                  *** GAP ***
            CODE    0063H     0003H     ABSOLUTE     
            CODE    0066H     0F7EH     UNIT         ?PR?_SYSTIMEREVENTPROC?SYSTIMER
            CODE    0FE4H     092BH     UNIT         ?C?LIB_CODE
            CODE    190FH     07FFH     UNIT         ?PR?LOADEEPROM?MAIN
            CODE    210EH     07C9H     UNIT         ?PR?DVRRECEIVEPASER?HS_DVRPROTOCOL
            CODE    28D7H     0556H     UNIT         ?PR?_DOPRINT?PRINTF
            CODE    2E2DH     0543H     UNIT         ?PR?TIMER0_INT?CPU
            CODE    3370H     0461H     UNIT         ?PR?ENCORDERHANDLER_TELI?MAIN
            CODE    37D1H     044CH     UNIT         ?PR?ENCORDERHANDLER?MAIN
            CODE    3C1DH     043DH     UNIT         ?CO?CPU
            CODE    405AH     0423H     UNIT         ?PR?_MCU_SENDCMDTODVR?MAIN
            CODE    447DH     041BH     UNIT         ?PR?SHOWWORKINGTIMER?CPU
            CODE    4898H     0325H     UNIT         ?PR?SAVEROTATENUMBER?MAIN
            CODE    4BBDH     030BH     UNIT         ?PR?_USERINTERFACEBATTERYCHARGEMODE?SYSPOWER
            CODE    4EC8H     023EH     UNIT         ?C_INITSEG
            CODE    5106H     0176H     UNIT         ?PR?_MAPPING1?MAIN
            CODE    527CH     015FH     UNIT         ?PR?_GETROTATENUMBER?MAIN
            CODE    53DBH     015BH     UNIT         ?PR?_USERINTERFACETIMEREVENTPROC?SYSTIMER
            CODE    5536H     012EH     UNIT         ?PR?_MCUTIMERCHECKTIMEREVENT?SYSTIMER
            CODE    5664H     011FH     UNIT         ?PR?CLEARBASICEE?ETC_EEP
            CODE    5783H     0112H     UNIT         ?PR?WAITPOWERON?MAIN
            CODE    5895H     00FFH     UNIT         ?PR?MAIN_INIT?CPU
            CODE    5994H     00E5H     UNIT         ?PR?_MCUTIMERACTIVETIMEREVENT?SYSTIMER
            CODE    5A79H     00DEH     UNIT         ?PR?_MCUTIMERREACTIVETIMEREVENT?SYSTIMER
            CODE    5B57H     00D9H     UNIT         ?PR?_USERINTERFACEPOWERSWITCH?SYSPOWER
            CODE    5C30H     00ADH     UNIT         ?PR?_MCULIB_PROTOCOLAPPEND?MAIN
            CODE    5CDDH     00A5H     UNIT         ?PR?_SET_PWM?CPU
            CODE    5D82H     009CH     UNIT         ?PR?EXT0_INT?CPU
            CODE    5E1EH     0090H     UNIT         ?PR?_MCULIB_PROTOCOLSENDCMDWITHPARAMNUM?MAIN
            CODE    5EAEH     008CH     UNIT         ?C_C51STARTUP
            CODE    5F3AH     0085H     UNIT         ?PR?SYSTIMERHANDLER?SYSTIMER
            CODE    5FBFH     0084H     UNIT         ?PR?SYSPOWERHANDLER?SYSPOWER
            CODE    6043H     0082H     UNIT         ?PR?MAIN?MAIN
            CODE    60C5H     007EH     UNIT         ?PR?_AD5110_I2CWRITEDATA?I2C
            CODE    6143H     007BH     UNIT         ?PR?_I2CWRITEDATA?I2C
            CODE    61BEH     0079H     UNIT         ?PR?_POWERLED?CPU
            CODE    6237H     0077H     UNIT         ?CO?MAIN
            CODE    62AEH     005CH     UNIT         ?PR?INITIALTIMEREVENT?MAIN
            CODE    630AH     0052H     UNIT         ?PR?INITCPU?CPU
            CODE    635CH     0051H     UNIT         ?PR?SCANKEY?KEYREMO
            CODE    63ADH     004EH     UNIT         ?CO?PRINTF
            CODE    63FBH     004AH     UNIT         ?PR?GETFWREVEE?ETC_EEP
            CODE    6445H     004AH     UNIT         ?PR?MCUTIMERGETTIMERCOUNTER?SYSTIMER
            CODE    648FH     0047H     UNIT         ?PR?GETPROJECTNAMEEE?ETC_EEP
            CODE    64D6H     0047H     UNIT         ?PR?_WRITEEEP?I2C
            CODE    651DH     0046H     UNIT         ?PR?_GRAPHICSPRINT?PRINTF
            CODE    6563H     0044H     UNIT         ?C?LDIV
            CODE    65A7H     0042H     UNIT         ?PR?MAIN_LOOP?MAIN
            CODE    65E9H     0041H     UNIT         ?PR?_MCUTIMERCANCELTIMEREVENT?SYSTIMER
            CODE    662AH     003EH     UNIT         ?PR?_SETAD5110STEP?MAIN
            CODE    6668H     003EH     UNIT         ?PR?_PRINTF?PRINTF
            CODE    66A6H     003EH     UNIT         ?PR?_DEBUG_MESSAGE?PRINTF
            CODE    66E4H     003BH     UNIT         ?PR?SERIAL2_INT?CPU
            CODE    671FH     0039H     UNIT         ?PR?_READI2C?I2C
            CODE    6758H     0033H     UNIT         ?PR?I2CREADDATA?I2C
            CODE    678BH     0033H     UNIT         ?PR?_ISP_WRITE?MAIN
BL51 BANKED LINKER/LOCATER V6.22.2.0                                                  05/20/2021  15:51:07  PAGE 4


            CODE    67BEH     002FH     UNIT         ?PR?SET_MCU_POWER_DOWN_MODE?CPU
            CODE    67EDH     002FH     UNIT         ?PR?SERIAL_INT?CPU
            CODE    681CH     002DH     UNIT         ?CO?SYSPOWER
            CODE    6849H     002CH     UNIT         ?PR?SYSPOWERINITIAL?SYSPOWER
            CODE    6875H     002CH     UNIT         ?PR?_SYSPOWERSWITCH?SYSPOWER
            CODE    68A1H     0026H     UNIT         ?PR?_READEEP?I2C
            CODE    68C7H     0021H     UNIT         ?PR?ENTER_ISP?MAIN
            CODE    68E8H     0020H     UNIT         ?PR?_WRITEAD5110?I2C
            CODE    6908H     0020H     UNIT         ?PR?_GETADCVALUE?MAIN
            CODE    6928H     001FH     UNIT         ?PR?INT2_INT?CPU
            CODE    6947H     001FH     UNIT         ?PR?INT3_INT?CPU
            CODE    6966H     001EH     UNIT         ?PR?RS2_RX?CPU
            CODE    6984H     001CH     UNIT         ?PR?CHECK_ADAP_IN?CPU
            CODE    69A0H     001BH     UNIT         ?PR?_GETKEY?KEYREMO
            CODE    69BBH     0019H     UNIT         ?PR?SAVEFWREVEE?ETC_EEP
            CODE    69D4H     0019H     UNIT         ?PR?_MCUTIMERDELAYXMS?SYSTIMER
            CODE    69EDH     0018H     UNIT         ?PR?_DELAY?CPU
            CODE    6A05H     0016H     UNIT         ?PR?INITVARS?CPU
            CODE    6A1BH     0015H     UNIT         ?PR?_MCUTIMERGETEVENTID?SYSTIMER
            CODE    6A30H     0014H     UNIT         ?PR?I2CDELAY?I2C
            CODE    6A44H     0014H     UNIT         ?PR?_MCUTIMERGETEVENTTIME?SYSTIMER
            CODE    6A58H     0013H     UNIT         ?PR?_MCUTIMERCLREVENTVALID?SYSTIMER
            CODE    6A6BH     0012H     UNIT         ?CO?ETC_EEP
            CODE    6A7DH     0012H     UNIT         ?PR?I2CSTART?I2C
            CODE    6A8FH     0011H     UNIT         ?PR?_MCUTIMERCHECKEVENTVALID?SYSTIMER
            CODE    6AA0H     000FH     UNIT         ?PR?TIMER2_INT?CPU
            CODE    6AAFH     000CH     UNIT         ?PR?_ABS?ABS
            CODE    6ABBH     000BH     UNIT         ?PR?RS2_READY?CPU
            CODE    6AC6H     0008H     UNIT         ?PR?_RS2_TX?CPU
            CODE    6ACEH     0007H     UNIT         ?PR?GETBATTERYBTH?MAIN
            CODE    6AD5H     0007H     UNIT         ?PR?GETBATTERYVOLTAGE?MAIN



OVERLAY MAP OF MODULE:   .\Output\ml070i_MRMCU (?C_STARTUP)


SEGMENT                                             BIT_GROUP          XDATA_GROUP
  +--> CALLED SEGMENT                            START    LENGTH     START    LENGTH
------------------------------------------------------------------------------------
?C_C51STARTUP                                    -----    -----      -----    -----
  +--> ?PR?MAIN?MAIN
  +--> ?C_INITSEG

?PR?MAIN?MAIN                                    -----    -----      -----    -----
  +--> ?PR?INITCPU?CPU
  +--> ?PR?SYSPOWERINITIAL?SYSPOWER
  +--> ?CO?MAIN
  +--> ?PR?_PRINTF?PRINTF
  +--> ?PR?MAIN_INIT?CPU
  +--> ?PR?INITVARS?CPU
  +--> ?PR?LOADEEPROM?MAIN
  +--> ?PR?INITIALTIMEREVENT?MAIN
  +--> ?PR?_SETAD5110STEP?MAIN
  +--> ?PR?CHECK_ADAP_IN?CPU
  +--> ?PR?MAIN_LOOP?MAIN
  +--> ?PR?WAITPOWERON?MAIN
BL51 BANKED LINKER/LOCATER V6.22.2.0                                                  05/20/2021  15:51:07  PAGE 5



?PR?SYSPOWERINITIAL?SYSPOWER                     -----    -----      -----    -----
  +--> ?PR?_MCUTIMERDELAYXMS?SYSTIMER
  +--> ?CO?SYSPOWER
  +--> ?PR?_DEBUG_MESSAGE?PRINTF

?PR?_DEBUG_MESSAGE?PRINTF                        -----    -----      0200H    002EH
  +--> ?PR?_DOPRINT?PRINTF

?PR?_DOPRINT?PRINTF                              0021H.1  0000H.2    0235H    0015H
  +--> ?CO?PRINTF

?PR?_PRINTF?PRINTF                               -----    -----      0207H    002EH
  +--> ?PR?_DOPRINT?PRINTF

?PR?MAIN_INIT?CPU                                -----    -----      0200H    0004H
  +--> ?PR?GETFWREVEE?ETC_EEP
  +--> ?PR?_READEEP?I2C
  +--> ?CO?CPU
  +--> ?PR?_PRINTF?PRINTF
  +--> ?PR?SAVEFWREVEE?ETC_EEP
  +--> ?PR?GETPROJECTNAMEEE?ETC_EEP
  +--> ?PR?CLEARBASICEE?ETC_EEP
  +--> ?PR?_DELAY?CPU

?PR?GETFWREVEE?ETC_EEP                           -----    -----      -----    -----
  +--> ?PR?_READEEP?I2C

?PR?_READEEP?I2C                                 -----    -----      0234H    0001H
  +--> ?PR?_READI2C?I2C
  +--> ?PR?_DELAY?CPU

?PR?_READI2C?I2C                                 -----    -----      0235H    0003H
  +--> ?PR?I2CSTART?I2C
  +--> ?PR?_I2CWRITEDATA?I2C
  +--> ?PR?I2CREADDATA?I2C
  +--> ?PR?I2CSTOP?I2C

?PR?I2CSTART?I2C                                 -----    -----      -----    -----
  +--> ?PR?I2CDELAY?I2C

?PR?_I2CWRITEDATA?I2C                            -----    -----      -----    -----
  +--> ?PR?I2CDELAY?I2C

?PR?I2CREADDATA?I2C                              -----    -----      -----    -----
  +--> ?PR?I2CDELAY?I2C

?PR?I2CSTOP?I2C                                  -----    -----      -----    -----
  +--> ?PR?I2CDELAY?I2C

?PR?SAVEFWREVEE?ETC_EEP                          -----    -----      -----    -----
  +--> ?PR?_WRITEEEP?I2C

?PR?_WRITEEEP?I2C                                -----    -----      0208H    0004H
  +--> ?PR?I2CSTART?I2C
  +--> ?PR?_I2CWRITEDATA?I2C
  +--> ?PR?I2CSTOP?I2C
BL51 BANKED LINKER/LOCATER V6.22.2.0                                                  05/20/2021  15:51:07  PAGE 6


  +--> ?PR?_DELAY?CPU

?PR?GETPROJECTNAMEEE?ETC_EEP                     -----    -----      0204H    0001H
  +--> ?PR?_READEEP?I2C

?PR?CLEARBASICEE?ETC_EEP                         -----    -----      -----    -----
  +--> ?CO?ETC_EEP
  +--> ?PR?_PRINTF?PRINTF
  +--> ?PR?_WRITEEEP?I2C

?PR?LOADEEPROM?MAIN                              -----    -----      -----    -----
  +--> ?PR?_READEEP?I2C
  +--> ?PR?_WRITEEEP?I2C

?PR?INITIALTIMEREVENT?MAIN                       -----    -----      -----    -----
  +--> ?PR?MCUTIMERINITIALTIMEREVENT?SYSTIMER
  +--> ?PR?_MCUTIMERACTIVETIMEREVENT?SYSTIMER

?PR?_MCUTIMERACTIVETIMEREVENT?SYSTIMER           -----    -----      0228H    0004H
  +--> ?PR?_MCUTIMERCHECKTIMEREVENT?SYSTIMER

?PR?_MCUTIMERCHECKTIMEREVENT?SYSTIMER            -----    -----      022CH    0005H
  +--> ?PR?MCUTIMERGETTIMERCOUNTER?SYSTIMER

?PR?MCUTIMERGETTIMERCOUNTER?SYSTIMER             -----    -----      0231H    0002H
  +--> ?PR?_ABS?ABS

?PR?_SETAD5110STEP?MAIN                          -----    -----      0204H    0002H
  +--> ?PR?_MAPPING1?MAIN
  +--> ?PR?_WRITEAD5110?I2C

?PR?_MAPPING1?MAIN                               -----    -----      0206H    000FH

?PR?_WRITEAD5110?I2C                             -----    -----      -----    -----
  +--> ?PR?I2CSTART?I2C
  +--> ?PR?_AD5110_I2CWRITEDATA?I2C
  +--> ?PR?I2CSTOP?I2C
  +--> ?PR?_DELAY?CPU

?PR?_AD5110_I2CWRITEDATA?I2C                     -----    -----      -----    -----
  +--> ?PR?I2CDELAY?I2C

?PR?CHECK_ADAP_IN?CPU                            -----    -----      -----    -----
  +--> ?PR?_MCUTIMERDELAYXMS?SYSTIMER

?PR?MAIN_LOOP?MAIN                               -----    -----      -----    -----
  +--> ?CO?MAIN
  +--> ?PR?_PRINTF?PRINTF
  +--> ?PR?_GETROTATENUMBER?MAIN
  +--> ?PR?DVRRECEIVEPASER?HS_DVRPROTOCOL
  +--> ?PR?SYSTIMERHANDLER?SYSTIMER
  +--> ?PR?SYSPOWERHANDLER?SYSPOWER
  +--> ?PR?SCANKEY?KEYREMO
  +--> ?PR?ENCORDERHANDLER_TELI?MAIN
  +--> ?PR?ENCORDERHANDLER?MAIN

?PR?_GETROTATENUMBER?MAIN                        -----    -----      0200H    0004H
BL51 BANKED LINKER/LOCATER V6.22.2.0                                                  05/20/2021  15:51:07  PAGE 7


  +--> ?PR?_READEEP?I2C

?PR?DVRRECEIVEPASER?HS_DVRPROTOCOL               -----    -----      0200H    0001H
  +--> ?PR?RS2_READY?CPU
  +--> ?PR?RS2_RX?CPU
  +--> ?PR?_USERINTERFACEBATTERYCHARGEMODE?S...
  +--> ?PR?_MCUTIMERCANCELTIMEREVENT?SYSTIMER
  +--> ?PR?_MCUTIMERACTIVETIMEREVENT?SYSTIMER
  +--> ?PR?_READEEP?I2C
  +--> ?PR?_WRITEEEP?I2C
  +--> ?PR?_MCUTIMERREACTIVETIMEREVENT?SYSTIMER

?PR?_USERINTERFACEBATTERYCHARGEMODE?S...         -----    -----      0204H    0001H
  +--> ?PR?_MCUTIMERCANCELTIMEREVENT?SYSTIMER
  +--> ?PR?_SET_PWM?CPU
  +--> ?PR?_MCUTIMERACTIVETIMEREVENT?SYSTIMER
  +--> ?PR?_USERINTERFACEPOWERSWITCH?SYSPOWER

?PR?_SET_PWM?CPU                                 -----    -----      0205H    0002H
  +--> ?CO?CPU
  +--> ?PR?_PRINTF?PRINTF

?PR?_USERINTERFACEPOWERSWITCH?SYSPOWER           -----    -----      0205H    0001H
  +--> ?CO?SYSPOWER
  +--> ?PR?_PRINTF?PRINTF
  +--> ?PR?_MCUTIMERDELAYXMS?SYSTIMER
  +--> ?PR?_MCUTIMERACTIVETIMEREVENT?SYSTIMER
  +--> ?PR?_MCU_SENDCMDTODVR?MAIN

?PR?_MCU_SENDCMDTODVR?MAIN                       -----    -----      0228H    000CH
  +--> ?CO?MAIN
  +--> ?PR?_READEEP?I2C
  +--> ?PR?_MCULIB_PROTOCOLSENDCMDWITHPARAMN...

?PR?_MCULIB_PROTOCOLSENDCMDWITHPARAMN...         -----    -----      0234H    0017H
  +--> ?PR?_MCULIB_PROTOCOLAPPEND?MAIN
  +--> ?PR?_RS2_TX?CPU

?PR?_MCULIB_PROTOCOLAPPEND?MAIN                  -----    -----      024BH    0007H

?PR?_MCUTIMERREACTIVETIMEREVENT?SYSTIMER         -----    -----      0201H    0004H
  +--> ?PR?_MCUTIMERCHECKTIMEREVENT?SYSTIMER

?PR?SYSTIMERHANDLER?SYSTIMER                     -----    -----      0200H    0004H
  +--> ?PR?MCUTIMERGETTIMERCOUNTER?SYSTIMER
  +--> ?PR?_MCUTIMERCHECKEVENTVALID?SYSTIMER
  +--> ?PR?_MCUTIMERGETEVENTTIME?SYSTIMER
  +--> ?PR?_MCUTIMERCLREVENTVALID?SYSTIMER
  +--> ?PR?_MCUTIMERGETEVENTID?SYSTIMER
  +--> ?PR?_USERINTERFACETIMEREVENTPROC?SYST...
  +--> ?PR?_SYSTIMEREVENTPROC?SYSTIMER

?PR?_USERINTERFACETIMEREVENTPROC?SYST...         -----    -----      -----    -----
  +--> ?PR?_SETAD5110STEP?MAIN
  +--> ?PR?_WRITEEEP?I2C
  +--> ?PR?_MCU_SENDCMDTODVR?MAIN
  +--> ?PR?_USERINTERFACEBATTERYCHARGEMODE?S...
BL51 BANKED LINKER/LOCATER V6.22.2.0                                                  05/20/2021  15:51:07  PAGE 8


  +--> ?PR?_MCUTIMERACTIVETIMEREVENT?SYSTIMER
  +--> ?PR?ENTER_ISP?MAIN
  +--> ?PR?_USERINTERFACEPOWERSWITCH?SYSPOWER

?PR?ENTER_ISP?MAIN                               -----    -----      0204H    0001H
  +--> ?PR?ISP_INIT?MAIN
  +--> ?PR?_ISP_WRITE?MAIN

?PR?_ISP_WRITE?MAIN                              -----    -----      0205H    0006H

?PR?_SYSTIMEREVENTPROC?SYSTIMER                  -----    -----      -----    -----
  +--> ?PR?_POWERLED?CPU
  +--> ?PR?_MCUTIMERDELAYXMS?SYSTIMER
  +--> ?PR?CHECK_ADAP_IN?CPU
  +--> ?PR?_MCUTIMERCHECKEVENTVALID?SYSTIMER
  +--> ?PR?_MCUTIMERCANCELTIMEREVENT?SYSTIMER
  +--> ?PR?_MCUTIMERACTIVETIMEREVENT?SYSTIMER
  +--> ?PR?_MCU_SENDCMDTODVR?MAIN
  +--> ?PR?GETBATTERYVOLTAGE?MAIN
  +--> ?PR?GETBATTERYBTH?MAIN
  +--> ?PR?_SET_PWM?CPU
  +--> ?PR?_READEEP?I2C
  +--> ?PR?_WRITEEEP?I2C
  +--> ?PR?_USERINTERFACEBATTERYCHARGEMODE?S...
  +--> ?PR?SHOWWORKINGTIMER?CPU

?PR?GETBATTERYVOLTAGE?MAIN                       -----    -----      -----    -----
  +--> ?PR?_GETADCVALUE?MAIN

?PR?GETBATTERYBTH?MAIN                           -----    -----      -----    -----
  +--> ?PR?_GETADCVALUE?MAIN

?PR?SHOWWORKINGTIMER?CPU                         -----    -----      0204H    0002H
  +--> ?CO?CPU
  +--> ?PR?_GRAPHICSPRINT?PRINTF

?PR?_GRAPHICSPRINT?PRINTF                        -----    -----      0206H    002FH
  +--> ?PR?_DOPRINT?PRINTF

?PR?SYSPOWERHANDLER?SYSPOWER                     -----    -----      -----    -----
  +--> ?PR?_SYSPOWERSWITCH?SYSPOWER

?PR?_SYSPOWERSWITCH?SYSPOWER                     -----    -----      0200H    0001H
  +--> ?PR?_USERINTERFACEPOWERSWITCH?SYSPOWER

?PR?SCANKEY?KEYREMO                              -----    -----      -----    -----
  +--> ?PR?_GETKEY?KEYREMO
  +--> ?PR?_WRITEEEP?I2C
  +--> ?PR?_MCUTIMERACTIVETIMEREVENT?SYSTIMER

?PR?_GETKEY?KEYREMO                              0021H.1  0000H.1    -----    -----

?PR?ENCORDERHANDLER_TELI?MAIN                    -----    -----      0200H    0028H
  +--> ?PR?_MCU_SENDCMDTODVR?MAIN
  +--> ?PR?_MCUTIMERCANCELTIMEREVENT?SYSTIMER
  +--> ?PR?_MCUTIMERACTIVETIMEREVENT?SYSTIMER

BL51 BANKED LINKER/LOCATER V6.22.2.0                                                  05/20/2021  15:51:07  PAGE 9


?PR?ENCORDERHANDLER?MAIN                         -----    -----      0200H    0020H
  +--> ?PR?_MCU_SENDCMDTODVR?MAIN
  +--> ?PR?_MCUTIMERCANCELTIMEREVENT?SYSTIMER
  +--> ?PR?_MCUTIMERACTIVETIMEREVENT?SYSTIMER

?PR?WAITPOWERON?MAIN                             -----    -----      -----    -----
  +--> ?CO?MAIN
  +--> ?PR?_PRINTF?PRINTF
  +--> ?PR?_MCUTIMERCANCELTIMEREVENT?SYSTIMER
  +--> ?PR?SAVEROTATENUMBER?MAIN
  +--> ?PR?SYSPOWERHANDLER?SYSPOWER
  +--> ?PR?SYSTIMERHANDLER?SYSTIMER
  +--> ?PR?SCANKEY?KEYREMO
  +--> ?PR?_MCUTIMERACTIVETIMEREVENT?SYSTIMER
  +--> ?PR?CHECK_ADAP_IN?CPU
  +--> ?PR?SET_MCU_POWER_DOWN_MODE?CPU
  +--> ?PR?_WRITEEEP?I2C

?PR?SAVEROTATENUMBER?MAIN                        -----    -----      0200H    0008H
  +--> ?PR?_READEEP?I2C
  +--> ?PR?_WRITEEEP?I2C

?PR?SET_MCU_POWER_DOWN_MODE?CPU                  -----    -----      -----    -----
  +--> ?CO?CPU
  +--> ?PR?_PRINTF?PRINTF

?C_INITSEG                                       -----    -----      -----    -----
  +--> ?CO?PRINTF



SYMBOL TABLE OF MODULE:  .\Output\ml070i_MRMCU (?C_STARTUP)

  VALUE           TYPE          NAME
  ----------------------------------

  -------         MODULE        ?C_STARTUP
  C:5EAEH         SEGMENT       ?C_C51STARTUP
  I:007AH         SEGMENT       ?STACK
  C:0000H         PUBLIC        ?C_STARTUP
  D:00E0H         SYMBOL        ACC
  D:00F0H         SYMBOL        B
  D:0083H         SYMBOL        DPH
  D:0082H         SYMBOL        DPL
  N:0000H         SYMBOL        IBPSTACK
  N:0100H         SYMBOL        IBPSTACKTOP
  N:0080H         SYMBOL        IDATALEN
  C:5EB1H         SYMBOL        IDATALOOP
  N:0000H         SYMBOL        PBPSTACK
  N:0100H         SYMBOL        PBPSTACKTOP
  N:0000H         SYMBOL        PDATALEN
  N:0000H         SYMBOL        PDATASTART
  N:0000H         SYMBOL        PPAGE
  N:0000H         SYMBOL        PPAGEENABLE
  D:00A0H         SYMBOL        PPAGE_SFR
  D:0081H         SYMBOL        SP
  C:5EAEH         SYMBOL        STARTUP1
BL51 BANKED LINKER/LOCATER V6.22.2.0                                                  05/20/2021  15:51:07  PAGE 10


  N:0000H         SYMBOL        XBPSTACK
  N:0000H         SYMBOL        XBPSTACKTOP
  N:0000H         SYMBOL        XDATALEN
  N:0000H         SYMBOL        XDATASTART
  C:0000H         LINE#         126
  C:5EAEH         LINE#         133
  C:5EB0H         LINE#         134
  C:5EB1H         LINE#         135
  C:5EB2H         LINE#         136
  C:5EB4H         LINE#         185
  C:5EB7H         LINE#         196
  -------         ENDMOD        ?C_STARTUP

  -------         MODULE        CPU
  C:0000H         SYMBOL        _ICE_DUMMY_
  D:0091H         PUBLIC        P1M0
  X:028AH         PUBLIC        second
  C:630AH         PUBLIC        InitCPU
  D:00B1H         PUBLIC        P3M0
  D:0096H         PUBLIC        P2M1
  C:2E2DH         PUBLIC        timer0_int
  X:028BH         PUBLIC        FormatSDCard
  D:00B3H         PUBLIC        P4M0
  D:00B2H         PUBLIC        P3M1
  D:00B4H         PUBLIC        P4M1
  D:00B0H         PUBLIC        P3
  C:6AA0H         PUBLIC        timer2_int
  D:00E8H         PUBLIC        P4
  X:028CH         PUBLIC        FormatWait
  X:028DH         PUBLIC        Power_Msg_Count
  X:028FH         PUBLIC        IE_Temp
  D:00F9H         PUBLIC        CH
  D:0022H         PUBLIC        DVR_buf
  D:0040H         PUBLIC        keytic
  D:00A8H         PUBLIC        IE
  C:447DH         PUBLIC        ShowWorkingTimer
  D:00E9H         PUBLIC        CL
  D:0042H         PUBLIC        RS2_in
  B:0020H.0       PUBLIC        RepeatKey
  X:0290H         PUBLIC        LED_FLASH_COUNT
  D:0043H         PUBLIC        RS2_out
  C:69EDH         PUBLIC        _delay
  D:00FCH         PUBLIC        CCAP2H
  B:00E8H.0       PUBLIC        P4_0
  D:00FDH         PUBLIC        CCAP3H
  B:00E8H.1       PUBLIC        P4_1
  B:0090H.4       PUBLIC        P1_4
  B:0080H.5       PUBLIC        P0_5
  X:0292H         PUBLIC        minute
  B:00E8H.2       PUBLIC        P4_2
  D:00ECH         PUBLIC        CCAP2L
  B:00A8H.4       PUBLIC        ES
  D:00EDH         PUBLIC        CCAP3L
  D:00DCH         PUBLIC        CCAPM2
  D:00DDH         PUBLIC        CCAPM3
  D:00B8H         PUBLIC        IP
  B:0098H.0       PUBLIC        RI
BL51 BANKED LINKER/LOCATER V6.22.2.0                                                  05/20/2021  15:51:07  PAGE 11


  B:0098H.1       PUBLIC        TI
  D:0044H         PUBLIC        tic01
  B:0020H.1       PUBLIC        KeyReady
  C:6966H         PUBLIC        RS2_rx
  B:0020H.2       PUBLIC        RS_Xbusy
  D:0045H         PUBLIC        tic02
  D:00D9H         PUBLIC        CMOD
  D:00D8H         PUBLIC        CCON
  C:6AC6H         PUBLIC        _RS2_tx
  X:0293H         PUBLIC        Time5ms
  X:0294H         PUBLIC        month
  X:0295H         PUBLIC        keyticSec
  D:0046H         PUBLIC        Key
  C:6928H         PUBLIC        int2_int
  C:6947H         PUBLIC        int3_int
  X:0296H         PUBLIC        bytEncorderCountTemp
  C:5D82H         PUBLIC        ext0_int
  C:67EDH         PUBLIC        serial_int
  C:000EH         PUBLIC        ext1_int
  X:0298H         PUBLIC        EncorderCountINT
  D:0099H         PUBLIC        SBUF
  D:0087H         PUBLIC        PCON
  X:029CH         PUBLIC        bytPNFlagEncoder
  D:0098H         PUBLIC        SCON
  C:6A05H         PUBLIC        InitVars
  D:0089H         PUBLIC        TMOD
  D:0088H         PUBLIC        TCON
  C:5895H         PUBLIC        main_init
  X:029DH         PUBLIC        day
  X:029EH         PUBLIC        bytFastEncorderCountTemp
  X:029FH         PUBLIC        hour
  B:00C0H.1       PUBLIC        IE2
  B:00C0H.5       PUBLIC        IE3
  C:5CDDH         PUBLIC        _SET_PWM
  X:02A0H         PUBLIC        PowerDownWait
  D:0047H         PUBLIC        tm01
  D:0049H         PUBLIC        stopWatch
  X:02A1H         PUBLIC        EncorderCount
  D:004BH         SYMBOL        RS_buf
  C:67BEH         PUBLIC        SET_MCU_POWER_DOWN_MODE
  D:0069H         PUBLIC        tic_PWR_SAVING
  D:006DH         PUBLIC        tic_Init_time
  B:00A8H.5       PUBLIC        ET2
  B:00C8H.7       PUBLIC        TF2
  D:008CH         PUBLIC        TH0
  B:00A8H.0       PUBLIC        EX0
  D:008DH         PUBLIC        TH1
  X:02A5H         PUBLIC        bytHoldOn3SPowerOff
  B:00A8H.2       PUBLIC        EX1
  B:00C0H.2       PUBLIC        EX2
  B:00C0H.0       PUBLIC        IT2
  C:6ABBH         PUBLIC        RS2_ready
  C:6984H         PUBLIC        Check_ADAP_IN
  B:00C0H.6       PUBLIC        EX3
  B:00C0H.4       PUBLIC        IT3
  D:008AH         PUBLIC        TL0
  X:02A6H         PUBLIC        bytHoldOn3SPowerOffMode
BL51 BANKED LINKER/LOCATER V6.22.2.0                                                  05/20/2021  15:51:07  PAGE 12


  B:0020H.3       PUBLIC        RS2_Xbusy
  B:00C8H.2       PUBLIC        TR2
  X:02A7H         PUBLIC        updn_reg
  B:0020H.4       PUBLIC        PWR_SAVING_ACT_FLAG
  D:0071H         PUBLIC        RS_in
  D:0072H         PUBLIC        RS_out
  C:66E4H         PUBLIC        serial2_int
  D:009AH         PUBLIC        S2BUF
  X:02ABH         PUBLIC        year1
  X:02ACH         PUBLIC        year2
  C:61BEH         PUBLIC        _PowerLED
  D:00AAH         PUBLIC        S2CON
  D:00C8H         PUBLIC        T2CON
  D:00BAH         PUBLIC        S2BRT
  X:02ADH         PUBLIC        DVR_FACTORY_MODE
  D:0073H         PUBLIC        tm001
  D:00A6H         PUBLIC        AUXR2
  B:0020H.5       PUBLIC        ChangeKey
  D:0074H         PUBLIC        tic_pc
  D:0076H         PUBLIC        SystemClock
  D:0093H         PUBLIC        P0M0
  D:00ADH         PUBLIC        AUXIE
  -------         PROC          MAIN_INIT
  -------         DO            
  X:0200H         SYMBOL        rev
  -------         ENDDO         
  C:5895H         LINE#         103
  C:5895H         LINE#         104
  C:5895H         LINE#         107
  C:589EH         LINE#         110
  C:58E0H         LINE#         112
  C:58EFH         LINE#         113
  C:58EFH         LINE#         114
  C:5909H         LINE#         115
  C:590CH         LINE#         116
  C:594EH         LINE#         117
  C:594EH         LINE#         121
  C:595DH         LINE#         122
  C:595DH         LINE#         125
  C:595DH         LINE#         126
  C:5963H         LINE#         127
  C:5966H         LINE#         128
  C:5966H         LINE#         129
  C:5968H         LINE#         131
  C:5968H         LINE#         132
  C:5971H         LINE#         133
  C:597AH         LINE#         134
  C:5981H         LINE#         136
  C:5981H         LINE#         159
  C:5986H         LINE#         162
  C:598EH         LINE#         163
  C:5993H         LINE#         165
  -------         ENDPROC       MAIN_INIT
  -------         PROC          INITCPU
  C:630AH         LINE#         173
  C:630AH         LINE#         174
  C:630AH         LINE#         178
BL51 BANKED LINKER/LOCATER V6.22.2.0                                                  05/20/2021  15:51:07  PAGE 13


  C:630DH         LINE#         186
  C:6310H         LINE#         188
  C:6313H         LINE#         190
  C:6316H         LINE#         198
  C:631CH         LINE#         200
  C:631FH         LINE#         201
  C:6322H         LINE#         205
  C:6325H         LINE#         208
  C:6327H         LINE#         209
  C:6329H         LINE#         228
  C:632CH         LINE#         229
  C:632EH         LINE#         230
  C:6330H         LINE#         237
  C:6333H         LINE#         238
  C:6336H         LINE#         241
  C:6339H         LINE#         244
  C:633CH         LINE#         246
  C:633EH         LINE#         248
  C:6340H         LINE#         249
  C:6342H         LINE#         253
  C:6345H         LINE#         254
  C:6348H         LINE#         264
  C:634BH         LINE#         267
  C:634EH         LINE#         269
  C:6351H         LINE#         271
  C:6354H         LINE#         272
  C:6356H         LINE#         273
  C:6359H         LINE#         274
  C:635BH         LINE#         276
  -------         ENDPROC       INITCPU
  -------         PROC          SET_MCU_POWER_DOWN_MODE
  C:67BEH         LINE#         279
  C:67BEH         LINE#         280
  C:67BEH         LINE#         282
  C:67C7H         LINE#         284
  C:67C9H         LINE#         285
  C:67CBH         LINE#         286
  C:67CDH         LINE#         288
  C:67CFH         LINE#         289
  C:67D1H         LINE#         290
  C:67D3H         LINE#         292
  C:67D9H         LINE#         293
  C:67DCH         LINE#         295
  C:67E2H         LINE#         296
  C:67E4H         LINE#         297
  C:67E6H         LINE#         298
  C:67E9H         LINE#         299
  C:67EAH         LINE#         300
  C:67EBH         LINE#         301
  C:67ECH         LINE#         305
  -------         ENDPROC       SET_MCU_POWER_DOWN_MODE
  -------         PROC          CHECK_ADAP_IN
  C:6984H         LINE#         308
  C:6984H         LINE#         309
  C:6984H         LINE#         311
  C:698AH         LINE#         312
  C:698AH         LINE#         313
BL51 BANKED LINKER/LOCATER V6.22.2.0                                                  05/20/2021  15:51:07  PAGE 14


  C:6991H         LINE#         315
  C:6997H         LINE#         316
  C:699AH         LINE#         318
  C:699DH         LINE#         319
  C:699DH         LINE#         321
  C:699FH         LINE#         322
  -------         ENDPROC       CHECK_ADAP_IN
  -------         PROC          _SET_PWM
  X:0205H         SYMBOL        index
  X:0206H         SYMBOL        val
  C:5CDDH         LINE#         324
  C:5CE5H         LINE#         325
  C:5CE5H         LINE#         327
  C:5CFEH         LINE#         329
  C:5D10H         LINE#         330
  C:5D10H         LINE#         331
  C:5D10H         LINE#         333
  C:5D13H         LINE#         334
  C:5D1EH         LINE#         335
  C:5D21H         LINE#         337
  C:5D24H         LINE#         338
  C:5D24H         LINE#         339
  C:5D26H         LINE#         340
  C:5D28H         LINE#         341
  C:5D28H         LINE#         343
  C:5D30H         LINE#         344
  C:5D30H         LINE#         345
  C:5D33H         LINE#         346
  C:5D36H         LINE#         347
  C:5D39H         LINE#         348
  C:5D3FH         LINE#         349
  C:5D41H         LINE#         350
  C:5D49H         LINE#         351
  C:5D49H         LINE#         352
  C:5D4CH         LINE#         353
  C:5D4FH         LINE#         354
  C:5D52H         LINE#         355
  C:5D5BH         LINE#         356
  C:5D5BH         LINE#         358
  C:5D62H         LINE#         359
  C:5D62H         LINE#         360
  C:5D65H         LINE#         361
  C:5D67H         LINE#         362
  C:5D67H         LINE#         396
  C:5D68H         LINE#         397
  C:5D68H         LINE#         398
  C:5D6BH         LINE#         399
  C:5D76H         LINE#         400
  C:5D79H         LINE#         401
  C:5D7AH         LINE#         402
  C:5D7AH         LINE#         403
  C:5D7DH         LINE#         404
  C:5D7EH         LINE#         405
  C:5D7EH         LINE#         406
  C:5D81H         LINE#         407
  C:5D81H         LINE#         409
  C:5D81H         LINE#         410
BL51 BANKED LINKER/LOCATER V6.22.2.0                                                  05/20/2021  15:51:07  PAGE 15


  C:5D81H         LINE#         411
  C:5D81H         LINE#         414
  -------         ENDPROC       _SET_PWM
  -------         PROC          TIMER0_INT
  -------         DO            
  D:000FH         SYMBOL        TempKey
  -------         ENDDO         
  C:2E2DH         LINE#         423
  C:2E3AH         LINE#         430
  C:2E3CH         LINE#         435
  C:2E3EH         LINE#         438
  C:2E49H         LINE#         439
  C:2E49H         LINE#         440
  C:2E57H         LINE#         441
  C:2E5AH         LINE#         442
  C:2E5CH         LINE#         443
  C:2E5CH         LINE#         445
  C:2E62H         LINE#         446
  C:2E64H         LINE#         447
  C:2E6DH         LINE#         448
  C:2E6DH         LINE#         450
  C:2E76H         LINE#         451
  C:2E80H         LINE#         452
  C:2E80H         LINE#         453
  C:2E88H         LINE#         454
  C:2E90H         LINE#         455
  C:2E98H         LINE#         456
  C:2E9BH         LINE#         457
  C:2E9DH         LINE#         461
  C:2EABH         LINE#         462
  C:2EAEH         LINE#         464
  C:2EB1H         LINE#         466
  C:2EBAH         LINE#         467
  C:2EBAH         LINE#         468
  C:2ED5H         LINE#         469
  C:2ED5H         LINE#         470
  C:2ED5H         LINE#         471
  C:2ED7H         LINE#         472
  C:2EEFH         LINE#         473
  C:2EEFH         LINE#         474
  C:2EEFH         LINE#         475
  C:2EF1H         LINE#         476
  C:2F09H         LINE#         477
  C:2F09H         LINE#         479
  C:2F09H         LINE#         480
  C:2F0BH         LINE#         481
  C:2F26H         LINE#         482
  C:2F26H         LINE#         484
  C:2F2AH         LINE#         485
  C:2F2DH         LINE#         486
  C:2F45H         LINE#         487
  C:2F45H         LINE#         489
  C:2F45H         LINE#         490
  C:2F47H         LINE#         491
  C:2F5FH         LINE#         492
  C:2F5FH         LINE#         494
  C:2F5FH         LINE#         495
BL51 BANKED LINKER/LOCATER V6.22.2.0                                                  05/20/2021  15:51:07  PAGE 16


  C:2F61H         LINE#         496
  C:2F7CH         LINE#         497
  C:2F7CH         LINE#         499
  C:2F7CH         LINE#         500
  C:2F7EH         LINE#         501
  C:2FA2H         LINE#         502
  C:2FA2H         LINE#         504
  C:2FA7H         LINE#         505
  C:2FA7H         LINE#         506
  C:2FAAH         LINE#         508
  C:2FAAH         LINE#         509
  C:2FC2H         LINE#         510
  C:2FC2H         LINE#         511
  C:2FE7H         LINE#         512
  C:2FF5H         LINE#         513
  C:2FF5H         LINE#         514
  C:300DH         LINE#         515
  C:300DH         LINE#         516
  C:3032H         LINE#         517
  C:3040H         LINE#         518
  C:3040H         LINE#         519
  C:3058H         LINE#         520
  C:3058H         LINE#         521
  C:307DH         LINE#         522
  C:308BH         LINE#         523
  C:308BH         LINE#         524
  C:30A3H         LINE#         525
  C:30A3H         LINE#         526
  C:30C8H         LINE#         527
  C:30D6H         LINE#         528
  C:30D6H         LINE#         529
  C:30EEH         LINE#         530
  C:30EEH         LINE#         531
  C:3112H         LINE#         532
  C:3120H         LINE#         533
  C:3120H         LINE#         534
  C:3138H         LINE#         535
  C:3138H         LINE#         536
  C:315CH         LINE#         537
  C:316AH         LINE#         538
  C:316AH         LINE#         539
  C:3182H         LINE#         540
  C:3182H         LINE#         541
  C:31A6H         LINE#         542
  C:31B4H         LINE#         543
  C:31B4H         LINE#         544
  C:31CCH         LINE#         545
  C:31CCH         LINE#         546
  C:31F0H         LINE#         547
  C:31FEH         LINE#         548
  C:31FEH         LINE#         549
  C:31FEH         LINE#         561
  C:3204H         LINE#         562
  C:3204H         LINE#         563
  C:3213H         LINE#         564
  C:3213H         LINE#         565
  C:3232H         LINE#         566
BL51 BANKED LINKER/LOCATER V6.22.2.0                                                  05/20/2021  15:51:07  PAGE 17


  C:3239H         LINE#         567
  C:3239H         LINE#         568
  C:3239H         LINE#         569
  C:3239H         LINE#         570
  C:3239H         LINE#         579
  C:3247H         LINE#         582
  C:324FH         LINE#         583
  C:3252H         LINE#         584
  C:3254H         LINE#         586
  C:325AH         LINE#         587
  C:325AH         LINE#         591
  C:325CH         LINE#         594
  C:3263H         LINE#         595
  C:3268H         LINE#         597
  C:326AH         LINE#         599
  C:326AH         LINE#         600
  C:3274H         LINE#         601
  C:327CH         LINE#         604
  C:328AH         LINE#         605
  C:329EH         LINE#         606
  C:32A8H         LINE#         607
  C:32B6H         LINE#         649
  C:32C2H         LINE#         650
  C:32C2H         LINE#         651
  C:32CAH         LINE#         652
  C:32CAH         LINE#         653
  C:32DBH         LINE#         654
  C:32DBH         LINE#         655
  C:32DEH         LINE#         656
  C:32E0H         LINE#         657
  C:32E2H         LINE#         658
  C:32E2H         LINE#         659
  C:32E4H         LINE#         660
  C:3300H         LINE#         661
  C:3300H         LINE#         662
  C:3303H         LINE#         663
  C:3303H         LINE#         664
  C:3306H         LINE#         665
  C:3308H         LINE#         666
  C:330DH         LINE#         667
  C:330FH         LINE#         668
  C:330FH         LINE#         669
  C:3311H         LINE#         670
  C:331BH         LINE#         672
  C:331EH         LINE#         673
  C:331EH         LINE#         674
  C:3321H         LINE#         675
  C:3323H         LINE#         676
  C:3329H         LINE#         677
  C:332BH         LINE#         678
  C:332BH         LINE#         680
  C:3331H         LINE#         681
  C:3331H         LINE#         683
  C:3339H         LINE#         684
  C:333BH         LINE#         686
  C:333BH         LINE#         687
  C:3351H         LINE#         688
BL51 BANKED LINKER/LOCATER V6.22.2.0                                                  05/20/2021  15:51:07  PAGE 18


  C:3354H         LINE#         689
  C:3356H         LINE#         690
  C:3358H         LINE#         692
  C:3358H         LINE#         693
  C:335BH         LINE#         694
  C:335DH         LINE#         695
  C:335DH         LINE#         697
  C:335FH         LINE#         698
  C:3365H         LINE#         699
  C:3365H         LINE#         731
  C:3365H         LINE#         733
  -------         ENDPROC       TIMER0_INT
  -------         PROC          SHOWWORKINGTIMER
  -------         DO            
  X:0204H         SYMBOL        val
  -------         ENDDO         
  C:447DH         LINE#         738
  C:447DH         LINE#         739
  C:447DH         LINE#         742
  C:4488H         LINE#         744
  C:448FH         LINE#         745
  C:448FH         LINE#         746
  C:44BFH         LINE#         747
  C:44C1H         LINE#         748
  C:44C8H         LINE#         749
  C:44C8H         LINE#         750
  C:44EBH         LINE#         751
  C:44EDH         LINE#         752
  C:44F6H         LINE#         753
  C:44F6H         LINE#         754
  C:450AH         LINE#         755
  C:450CH         LINE#         757
  C:450CH         LINE#         758
  C:4522H         LINE#         759
  C:4522H         LINE#         763
  C:456AH         LINE#         767
  C:4574H         LINE#         768
  C:457EH         LINE#         769
  C:4587H         LINE#         770
  C:4591H         LINE#         772
  C:459BH         LINE#         773
  C:45A5H         LINE#         774
  C:45B2H         LINE#         775
  C:45BAH         LINE#         777
  C:45C3H         LINE#         783
  C:45CDH         LINE#         784
  C:45CDH         LINE#         785
  C:462CH         LINE#         786
  C:463AH         LINE#         788
  C:463CH         LINE#         790
  C:463CH         LINE#         794
  C:4678H         LINE#         796
  C:4686H         LINE#         797
  C:469DH         LINE#         799
  C:46B1H         LINE#         803
  C:46B1H         LINE#         806
  C:4704H         LINE#         810
BL51 BANKED LINKER/LOCATER V6.22.2.0                                                  05/20/2021  15:51:07  PAGE 19


  C:470EH         LINE#         811
  C:4718H         LINE#         812
  C:4722H         LINE#         813
  C:472CH         LINE#         814
  C:4736H         LINE#         815
  C:4740H         LINE#         816
  C:474AH         LINE#         817
  C:4754H         LINE#         818
  C:475EH         LINE#         819
  C:4769H         LINE#         821
  C:4773H         LINE#         822
  C:477BH         LINE#         823
  C:4785H         LINE#         824
  C:478DH         LINE#         825
  C:4797H         LINE#         826
  C:479FH         LINE#         827
  C:47A9H         LINE#         828
  C:47B1H         LINE#         829
  C:47B9H         LINE#         830
  C:47C3H         LINE#         831
  C:47CDH         LINE#         832
  C:47D7H         LINE#         833
  C:47E1H         LINE#         834
  C:47EBH         LINE#         835
  C:47F5H         LINE#         836
  C:47FFH         LINE#         837
  C:4809H         LINE#         838
  C:4813H         LINE#         839
  C:481DH         LINE#         840
  C:4828H         LINE#         842
  C:4834H         LINE#         843
  C:483FH         LINE#         845
  C:4849H         LINE#         846
  C:4851H         LINE#         847
  C:485BH         LINE#         848
  C:4863H         LINE#         849
  C:486FH         LINE#         850
  C:4875H         LINE#         852
  C:488DH         LINE#         870
  -------         ENDPROC       SHOWWORKINGTIMER
  -------         PROC          INITVARS
  -------         DO            
  D:0007H         SYMBOL        j
  -------         ENDDO         
  C:6A05H         LINE#         880
  C:6A05H         LINE#         881
  C:6A05H         LINE#         883
  C:6A11H         LINE#         884
  C:6A1AH         LINE#         886
  -------         ENDPROC       INITVARS
  -------         PROC          _POWERLED
  D:0007H         SYMBOL        flag
  C:61BEH         LINE#         892
  C:61BEH         LINE#         893
  C:61BEH         LINE#         895
  C:61F2H         LINE#         896
  C:61F2H         LINE#         897
BL51 BANKED LINKER/LOCATER V6.22.2.0                                                  05/20/2021  15:51:07  PAGE 20


  C:61F2H         LINE#         898
  C:61F4H         LINE#         899
  C:61F6H         LINE#         900
  C:61F7H         LINE#         901
  C:61F7H         LINE#         902
  C:61F9H         LINE#         903
  C:61FBH         LINE#         904
  C:61FCH         LINE#         905
  C:61FCH         LINE#         906
  C:61FCH         LINE#         907
  C:61FCH         LINE#         908
  C:61FEH         LINE#         909
  C:61FEH         LINE#         910
  C:61FEH         LINE#         911
  C:61FEH         LINE#         912
  C:6200H         LINE#         913
  C:6200H         LINE#         914
  C:6203H         LINE#         915
  C:6203H         LINE#         916
  C:6205H         LINE#         917
  C:6207H         LINE#         918
  C:6208H         LINE#         925
  C:6208H         LINE#         926
  C:620BH         LINE#         927
  C:620BH         LINE#         928
  C:620DH         LINE#         929
  C:620FH         LINE#         930
  C:6210H         LINE#         932
  C:6210H         LINE#         933
  C:6210H         LINE#         934
  C:6210H         LINE#         935
  C:6210H         LINE#         936
  C:6212H         LINE#         937
  C:6212H         LINE#         938
  C:6215H         LINE#         939
  C:6215H         LINE#         940
  C:6217H         LINE#         941
  C:6219H         LINE#         942
  C:621AH         LINE#         944
  C:621AH         LINE#         945
  C:621CH         LINE#         946
  C:621EH         LINE#         947
  C:621EH         LINE#         948
  C:621FH         LINE#         949
  C:621FH         LINE#         950
  C:6222H         LINE#         951
  C:6222H         LINE#         952
  C:6224H         LINE#         953
  C:6226H         LINE#         955
  C:6226H         LINE#         956
  C:6228H         LINE#         957
  C:6228H         LINE#         959
  C:622AH         LINE#         961
  C:622BH         LINE#         962
  C:622BH         LINE#         963
  C:622EH         LINE#         964
  C:622EH         LINE#         965
BL51 BANKED LINKER/LOCATER V6.22.2.0                                                  05/20/2021  15:51:07  PAGE 21


  C:6230H         LINE#         966
  C:6232H         LINE#         968
  C:6232H         LINE#         969
  C:6234H         LINE#         970
  C:6234H         LINE#         972
  C:6236H         LINE#         975
  C:6236H         LINE#         976
  C:6236H         LINE#         977
  C:6236H         LINE#         978
  C:6236H         LINE#         979
  -------         ENDPROC       _POWERLED
  -------         PROC          EXT0_INT
  C:5D82H         LINE#         988
  C:5D8FH         LINE#         990
  C:5D91H         LINE#         991
  C:5D9AH         LINE#         992
  C:5DB7H         LINE#         994
  C:5DD8H         LINE#         996
  C:5DE5H         LINE#         997
  C:5DE5H         LINE#         998
  C:5E04H         LINE#         999
  C:5E09H         LINE#         1000
  C:5E0BH         LINE#         1002
  C:5E11H         LINE#         1004
  C:5E13H         LINE#         1005
  -------         ENDPROC       EXT0_INT
  -------         PROC          EXT1_INT
  C:000EH         LINE#         1007
  C:000EH         LINE#         1009
  C:0010H         LINE#         1012
  -------         ENDPROC       EXT1_INT
  -------         PROC          SERIAL_INT
  C:67EDH         LINE#         1035
  C:67F4H         LINE#         1041
  C:67F7H         LINE#         1050
  C:67FEH         LINE#         1051
  C:6800H         LINE#         1052
  C:680EH         LINE#         1056
  C:6810H         LINE#         1058
  C:6810H         LINE#         1060
  C:6813H         LINE#         1061
  C:6815H         LINE#         1062
  C:6817H         LINE#         1063
  C:6817H         LINE#         1064
  -------         ENDPROC       SERIAL_INT
  -------         PROC          SERIAL2_INT
  C:66E4H         LINE#         1068
  C:66EBH         LINE#         1073
  C:66F3H         LINE#         1074
  C:66F3H         LINE#         1076
  C:66F6H         LINE#         1078
  C:66FDH         LINE#         1081
  C:66FFH         LINE#         1082
  C:670DH         LINE#         1083
  C:670DH         LINE#         1085
  C:6715H         LINE#         1086
  C:6715H         LINE#         1087
BL51 BANKED LINKER/LOCATER V6.22.2.0                                                  05/20/2021  15:51:07  PAGE 22


  C:6718H         LINE#         1088
  C:671AH         LINE#         1089
  C:671AH         LINE#         1090
  -------         ENDPROC       SERIAL2_INT
  -------         PROC          RS2_READY
  C:6ABBH         LINE#         1126
  C:6ABBH         LINE#         1127
  C:6ABBH         LINE#         1128
  C:6AC3H         LINE#         1129
  C:6AC5H         LINE#         1130
  -------         ENDPROC       RS2_READY
  -------         PROC          RS2_RX
  -------         DO            
  D:0007H         SYMBOL        ret
  -------         ENDDO         
  C:6966H         LINE#         1134
  C:6966H         LINE#         1135
  C:6966H         LINE#         1138
  C:6969H         LINE#         1139
  C:6970H         LINE#         1140
  C:6972H         LINE#         1141
  C:697DH         LINE#         1142
  C:6980H         LINE#         1143
  C:6983H         LINE#         1145
  C:6983H         LINE#         1146
  -------         ENDPROC       RS2_RX
  -------         PROC          _RS2_TX
  D:0007H         SYMBOL        tx_buf
  C:6AC6H         LINE#         1163
  C:6AC6H         LINE#         1164
  C:6AC6H         LINE#         1166
  C:6AC9H         LINE#         1167
  C:6ACBH         LINE#         1168
  C:6ACDH         LINE#         1169
  -------         ENDPROC       _RS2_TX
  -------         PROC          TIMER2_INT
  C:6AA0H         LINE#         1210
  C:6AA2H         LINE#         1369
  C:6AA4H         LINE#         1371
  C:6AACH         LINE#         1373
  -------         ENDPROC       TIMER2_INT
  -------         PROC          _DELAY
  D:0007H         SYMBOL        cnt
  -------         DO            
  D:0004H         SYMBOL        ttic01
  -------         ENDDO         
  C:69EDH         LINE#         1375
  C:69EDH         LINE#         1376
  C:69EDH         LINE#         1379
  C:69FBH         LINE#         1380
  C:69FBH         LINE#         1382
  C:6A04H         LINE#         1383
  -------         ENDPROC       _DELAY
  -------         PROC          INT2_INT
  C:6928H         LINE#         1387
  C:692EH         LINE#         1389
  C:6930H         LINE#         1390
BL51 BANKED LINKER/LOCATER V6.22.2.0                                                  05/20/2021  15:51:07  PAGE 23


  C:6932H         LINE#         1391
  C:6935H         LINE#         1392
  C:693BH         LINE#         1393
  C:6940H         LINE#         1394
  -------         ENDPROC       INT2_INT
  -------         PROC          INT3_INT
  C:6947H         LINE#         1396
  C:694DH         LINE#         1398
  C:694FH         LINE#         1399
  C:6951H         LINE#         1400
  C:6954H         LINE#         1401
  C:695AH         LINE#         1402
  C:695FH         LINE#         1403
  -------         ENDPROC       INT3_INT
  -------         ENDMOD        CPU

  -------         MODULE        ETC_EEP
  C:0000H         SYMBOL        _ICE_DUMMY_
  C:648FH         PUBLIC        GetProjectNameEE
  C:5664H         PUBLIC        ClearBasicEE
  C:69BBH         PUBLIC        SaveFWRevEE
  C:63FBH         PUBLIC        GetFWRevEE
  -------         PROC          GETFWREVEE
  -------         DO            
  D:0004H         SYMBOL        rev
  -------         ENDDO         
  C:63FBH         LINE#         17
  C:63FBH         LINE#         18
  C:63FBH         LINE#         19
  C:6401H         LINE#         26
  C:6444H         LINE#         28
  C:6444H         LINE#         29
  -------         ENDPROC       GETFWREVEE
  -------         PROC          GETPROJECTNAMEEE
  -------         DO            
  X:0204H         SYMBOL        rev
  -------         ENDDO         
  C:648FH         LINE#         31
  C:648FH         LINE#         32
  C:648FH         LINE#         33
  C:6495H         LINE#         35
  C:64A3H         LINE#         36
  C:64B2H         LINE#         37
  C:64C1H         LINE#         38
  C:64D0H         LINE#         40
  C:64D5H         LINE#         41
  -------         ENDPROC       GETPROJECTNAMEEE
  -------         PROC          SAVEFWREVEE
  C:69BBH         LINE#         43
  C:69BBH         LINE#         44
  C:69BBH         LINE#         51
  C:69C3H         LINE#         52
  C:69CBH         LINE#         53
  -------         ENDPROC       SAVEFWREVEE
  -------         PROC          CLEARBASICEE
  C:5664H         LINE#         67
  C:5664H         LINE#         68
BL51 BANKED LINKER/LOCATER V6.22.2.0                                                  05/20/2021  15:51:07  PAGE 24


  C:5664H         LINE#         70
  C:566DH         LINE#         72
  C:5675H         LINE#         73
  C:567EH         LINE#         74
  C:5687H         LINE#         75
  C:5690H         LINE#         79
  C:5699H         LINE#         82
  C:56A2H         LINE#         84
  C:56AAH         LINE#         86
  C:56B2H         LINE#         88
  C:56BAH         LINE#         90
  C:56C3H         LINE#         92
  C:56CBH         LINE#         94
  C:56D4H         LINE#         95
  C:56DCH         LINE#         97
  C:56E5H         LINE#         98
  C:56EDH         LINE#         100
  C:56F6H         LINE#         101
  C:56FEH         LINE#         103
  C:5707H         LINE#         104
  C:570FH         LINE#         106
  C:5717H         LINE#         107
  C:571FH         LINE#         108
  C:5727H         LINE#         110
  C:572FH         LINE#         111
  C:5737H         LINE#         112
  C:573FH         LINE#         114
  C:5748H         LINE#         115
  C:5750H         LINE#         117
  C:5759H         LINE#         118
  C:5761H         LINE#         120
  C:576AH         LINE#         121
  C:5772H         LINE#         123
  C:577BH         LINE#         124
  -------         ENDPROC       CLEARBASICEE
  -------         ENDMOD        ETC_EEP

  -------         MODULE        HS_DVRPROTOCOL
  C:0000H         SYMBOL        _ICE_DUMMY_
  X:0000H         PUBLIC        protocol_data_count
  D:00B2H         PUBLIC        P3M1
  D:00A8H         PUBLIC        IE
  X:0001H         PUBLIC        protocol_len
  D:00B8H         PUBLIC        IP
  X:0002H         PUBLIC        protocol_type
  B:0021H.3       PUBLIC        protocol_escape_flag
  D:00B7H         PUBLIC        IPH
  X:0003H         PUBLIC        protocol_chksum
  X:0004H         PUBLIC        protocol_param
  X:0005H         PUBLIC        protocol_data
  C:210EH         PUBLIC        DvrReceivePaser
  X:0105H         PUBLIC        protocol_state
  -------         PROC          DVRRECEIVEPASER
  -------         DO            
  X:0200H         SYMBOL        c
  -------         ENDDO         
  C:210EH         LINE#         47
BL51 BANKED LINKER/LOCATER V6.22.2.0                                                  05/20/2021  15:51:07  PAGE 25


  C:210EH         LINE#         48
  C:210EH         LINE#         50
  C:2117H         LINE#         51
  C:2117H         LINE#         52
  C:211FH         LINE#         54
  C:2125H         LINE#         55
  C:2125H         LINE#         59
  C:2127H         LINE#         60
  C:212CH         LINE#         61
  C:2132H         LINE#         63
  C:2132H         LINE#         65
  C:2138H         LINE#         66
  C:2138H         LINE#         67
  C:213BH         LINE#         69
  C:213BH         LINE#         71
  C:213EH         LINE#         72
  C:213EH         LINE#         73
  C:2140H         LINE#         74
  C:2147H         LINE#         75
  C:2147H         LINE#         77
  C:2150H         LINE#         78
  C:2150H         LINE#         79
  C:2160H         LINE#         80
  C:2160H         LINE#         82
  C:2175H         LINE#         83
  C:2175H         LINE#         84
  C:2175H         LINE#         85
  C:217DH         LINE#         86
  C:2196H         LINE#         87
  C:2196H         LINE#         88
  C:2196H         LINE#         89
  C:2196H         LINE#         90
  C:2196H         LINE#         91
  C:2196H         LINE#         92
  C:2196H         LINE#         93
  C:2196H         LINE#         94
  C:2196H         LINE#         95
  C:2196H         LINE#         96
  C:2196H         LINE#         97
  C:2196H         LINE#         98
  C:2196H         LINE#         99
  C:2196H         LINE#         100
  C:2196H         LINE#         101
  C:2196H         LINE#         102
  C:2196H         LINE#         103
  C:2196H         LINE#         105
  C:219CH         LINE#         106
  C:219DH         LINE#         107
  C:219DH         LINE#         108
  C:219DH         LINE#         109
  C:21A0H         LINE#         110
  C:21A0H         LINE#         111
  C:21A0H         LINE#         113
  C:21A0H         LINE#         114
  C:21A8H         LINE#         115
  C:21C3H         LINE#         116
  C:21C3H         LINE#         117
BL51 BANKED LINKER/LOCATER V6.22.2.0                                                  05/20/2021  15:51:07  PAGE 26


  C:21C3H         LINE#         118
  C:21C3H         LINE#         119
  C:21C3H         LINE#         120
  C:21C3H         LINE#         121
  C:21C3H         LINE#         122
  C:21C3H         LINE#         123
  C:21C3H         LINE#         124
  C:21C3H         LINE#         125
  C:21C3H         LINE#         126
  C:21C3H         LINE#         127
  C:21C3H         LINE#         128
  C:21C3H         LINE#         129
  C:21C3H         LINE#         130
  C:21C3H         LINE#         131
  C:21C3H         LINE#         132
  C:21C3H         LINE#         134
  C:21C9H         LINE#         135
  C:21C9H         LINE#         136
  C:21C9H         LINE#         137
  C:21CBH         LINE#         139
  C:21CBH         LINE#         140
  C:21D0H         LINE#         141
  C:21D6H         LINE#         146
  C:21D6H         LINE#         147
  C:21D7H         LINE#         148
  C:21D7H         LINE#         149
  C:21D7H         LINE#         150
  C:21DAH         LINE#         151
  C:21DAH         LINE#         152
  C:21DAH         LINE#         154
  C:21DAH         LINE#         155
  C:21F7H         LINE#         156
  C:21F7H         LINE#         157
  C:21F7H         LINE#         158
  C:21F7H         LINE#         159
  C:21F7H         LINE#         160
  C:21F7H         LINE#         161
  C:21F7H         LINE#         162
  C:21F7H         LINE#         163
  C:21F7H         LINE#         164
  C:21F7H         LINE#         165
  C:21F7H         LINE#         166
  C:21F7H         LINE#         167
  C:21F7H         LINE#         168
  C:21F7H         LINE#         169
  C:21F7H         LINE#         170
  C:21F7H         LINE#         171
  C:21F7H         LINE#         174
  C:220BH         LINE#         175
  C:2211H         LINE#         176
  C:221EH         LINE#         177
  C:2224H         LINE#         181
  C:2224H         LINE#         186
  C:2225H         LINE#         187
  C:2225H         LINE#         188
  C:2225H         LINE#         189
  C:2228H         LINE#         190
BL51 BANKED LINKER/LOCATER V6.22.2.0                                                  05/20/2021  15:51:07  PAGE 27


  C:2228H         LINE#         191
  C:2228H         LINE#         193
  C:2228H         LINE#         194
  C:2237H         LINE#         195
  C:2237H         LINE#         200
  C:2272H         LINE#         201
  C:2272H         LINE#         202
  C:2272H         LINE#         206
  C:2279H         LINE#         207
  C:2282H         LINE#         208
  C:228FH         LINE#         209
  C:228FH         LINE#         210
  C:2293H         LINE#         211
  C:2298H         LINE#         212
  C:229DH         LINE#         213
  C:229DH         LINE#         214
  C:22A6H         LINE#         215
  C:22AFH         LINE#         216
  C:22B2H         LINE#         217
  C:22B5H         LINE#         218
  C:22B5H         LINE#         222
  C:22BAH         LINE#         223
  C:22C6H         LINE#         224
  C:22CCH         LINE#         225
  C:22CFH         LINE#         226
  C:22CFH         LINE#         231
  C:22D5H         LINE#         232
  C:22D8H         LINE#         233
  C:22D8H         LINE#         238
  C:22DEH         LINE#         239
  C:22E1H         LINE#         240
  C:22E1H         LINE#         243
  C:22EAH         LINE#         244
  C:22EAH         LINE#         257
  C:2352H         LINE#         266
  C:2352H         LINE#         267
  C:235EH         LINE#         268
  C:236AH         LINE#         270
  C:2376H         LINE#         271
  C:2382H         LINE#         273
  C:238EH         LINE#         274
  C:239AH         LINE#         276
  C:23A6H         LINE#         277
  C:23B2H         LINE#         282
  C:23B2H         LINE#         284
  C:23D3H         LINE#         285
  C:23F4H         LINE#         287
  C:2415H         LINE#         288
  C:2436H         LINE#         290
  C:2457H         LINE#         291
  C:2478H         LINE#         293
  C:2499H         LINE#         294
  C:24B7H         LINE#         296
  C:24BAH         LINE#         298
  C:24BAH         LINE#         312
  C:2523H         LINE#         321
  C:2523H         LINE#         322
BL51 BANKED LINKER/LOCATER V6.22.2.0                                                  05/20/2021  15:51:07  PAGE 28


  C:252FH         LINE#         323
  C:253BH         LINE#         325
  C:2547H         LINE#         326
  C:2553H         LINE#         328
  C:255FH         LINE#         329
  C:256BH         LINE#         331
  C:2577H         LINE#         332
  C:2583H         LINE#         337
  C:2583H         LINE#         339
  C:25A4H         LINE#         340
  C:25C5H         LINE#         342
  C:25E6H         LINE#         343
  C:2607H         LINE#         345
  C:2628H         LINE#         346
  C:2649H         LINE#         348
  C:266AH         LINE#         349
  C:268BH         LINE#         353
  C:268BH         LINE#         354
  C:2691H         LINE#         356
  C:2694H         LINE#         358
  C:2694H         LINE#         364
  C:26A1H         LINE#         365
  C:26A4H         LINE#         367
  C:26B6H         LINE#         369
  C:26BFH         LINE#         370
  C:26C4H         LINE#         372
  C:26CEH         LINE#         373
  C:26D7H         LINE#         400
  C:26DAH         LINE#         402
  C:26DAH         LINE#         407
  C:26E3H         LINE#         408
  C:26E3H         LINE#         409
  C:26EAH         LINE#         413
  C:26EDH         LINE#         414
  C:26F6H         LINE#         415
  C:26F6H         LINE#         416
  C:26FBH         LINE#         417
  C:2702H         LINE#         421
  C:2702H         LINE#         422
  C:2705H         LINE#         424
  C:2705H         LINE#         428
  C:270BH         LINE#         429
  C:270EH         LINE#         431
  C:270EH         LINE#         436
  C:2714H         LINE#         437
  C:2714H         LINE#         438
  C:271BH         LINE#         439
  C:2720H         LINE#         442
  C:2725H         LINE#         443
  C:272AH         LINE#         444
  C:272FH         LINE#         445
  C:2734H         LINE#         446
  C:2739H         LINE#         447
  C:273EH         LINE#         449
  C:2744H         LINE#         451
  C:2747H         LINE#         452
  C:274FH         LINE#         453
BL51 BANKED LINKER/LOCATER V6.22.2.0                                                  05/20/2021  15:51:07  PAGE 29


  C:274FH         LINE#         454
  C:2755H         LINE#         455
  C:2755H         LINE#         456
  C:2755H         LINE#         457
  C:2757H         LINE#         458
  C:2762H         LINE#         459
  C:2762H         LINE#         460
  C:2769H         LINE#         461
  C:276CH         LINE#         462
  C:2775H         LINE#         463
  C:277AH         LINE#         464
  C:277AH         LINE#         466
  C:277DH         LINE#         468
  C:277DH         LINE#         473
  C:2788H         LINE#         474
  C:2788H         LINE#         475
  C:278FH         LINE#         476
  C:2794H         LINE#         480
  C:2796H         LINE#         481
  C:27A2H         LINE#         482
  C:27A2H         LINE#         483
  C:27A9H         LINE#         484
  C:27AEH         LINE#         485
  C:27B5H         LINE#         487
  C:27C1H         LINE#         488
  C:27C5H         LINE#         489
  C:27C5H         LINE#         490
  C:27D5H         LINE#         491
  C:27D5H         LINE#         492
  C:27DCH         LINE#         493
  C:27E3H         LINE#         494
  C:27E8H         LINE#         495
  C:27EFH         LINE#         496
  C:27F9H         LINE#         497
  C:2801H         LINE#         501
  C:280DH         LINE#         502
  C:2811H         LINE#         503
  C:2813H         LINE#         504
  C:2823H         LINE#         505
  C:2823H         LINE#         506
  C:2828H         LINE#         510
  C:2828H         LINE#         512
  C:282DH         LINE#         514
  C:2838H         LINE#         515
  C:283EH         LINE#         517
  C:2840H         LINE#         519
  C:2840H         LINE#         523
  C:2846H         LINE#         524
  C:2848H         LINE#         526
  C:2848H         LINE#         528
  C:2850H         LINE#         529
  C:2850H         LINE#         530
  C:2858H         LINE#         531
  C:285EH         LINE#         532
  C:2860H         LINE#         534
  C:2860H         LINE#         535
  C:2868H         LINE#         536
BL51 BANKED LINKER/LOCATER V6.22.2.0                                                  05/20/2021  15:51:07  PAGE 30


  C:286DH         LINE#         537
  C:286DH         LINE#         544
  C:286FH         LINE#         545
  C:286FH         LINE#         546
  C:287AH         LINE#         547
  C:287FH         LINE#         549
  C:2882H         LINE#         554
  C:288BH         LINE#         557
  C:288DH         LINE#         558
  C:288DH         LINE#         562
  C:2893H         LINE#         563
  C:2895H         LINE#         564
  C:2895H         LINE#         568
  C:289EH         LINE#         569
  C:28A0H         LINE#         570
  C:28A0H         LINE#         572
  C:28A8H         LINE#         573
  C:28A8H         LINE#         574
  C:28ADH         LINE#         575
  C:28B0H         LINE#         576
  C:28B3H         LINE#         577
  C:28B6H         LINE#         578
  C:28BBH         LINE#         579
  C:28BDH         LINE#         581
  C:28BDH         LINE#         582
  C:28C2H         LINE#         583
  C:28C5H         LINE#         584
  C:28C8H         LINE#         585
  C:28CBH         LINE#         586
  C:28D1H         LINE#         587
  C:28D1H         LINE#         594
  C:28D1H         LINE#         595
  C:28D1H         LINE#         596
  C:28D1H         LINE#         597
  C:28D1H         LINE#         599
  C:28D1H         LINE#         601
  C:28D1H         LINE#         605
  C:28D1H         LINE#         606
  C:28D6H         LINE#         607
  C:28D6H         LINE#         608
  C:28D6H         LINE#         609
  C:28D6H         LINE#         610
  C:28D6H         LINE#         611
  C:28D6H         LINE#         614
  -------         ENDPROC       DVRRECEIVEPASER
  -------         ENDMOD        HS_DVRPROTOCOL

  -------         MODULE        I2C
  C:0000H         SYMBOL        _ICE_DUMMY_
  B:0090H.0       PUBLIC        P1_0
  B:0090H.1       PUBLIC        P1_1
  C:6758H         PUBLIC        I2CReadData
  C:671FH         PUBLIC        _ReadI2C
  C:6143H         PUBLIC        _I2CWriteData
  C:6A7DH         PUBLIC        I2CStart
  C:6A34H         PUBLIC        I2Cdelay
  C:68A1H         PUBLIC        _ReadEEP
BL51 BANKED LINKER/LOCATER V6.22.2.0                                                  05/20/2021  15:51:07  PAGE 31


  C:68E8H         PUBLIC        _WriteAD5110
  C:0016H         PUBLIC        I2CStop
  C:64D6H         PUBLIC        _WriteEEP
  C:60C5H         PUBLIC        _AD5110_I2CWriteData
  C:6A30H         SYMBOL        L?0054
  -------         PROC          L?0053
  -------         ENDPROC       L?0053
  C:6A30H         SYMBOL        L?0054
  -------         PROC          I2CDELAY
  -------         DO            
  D:0007H         SYMBOL        i
  -------         ENDDO         
  C:6A34H         LINE#         34
  C:6A34H         LINE#         35
  C:6A34H         LINE#         37
  C:6A40H         LINE#         38
  C:6A43H         LINE#         39
  -------         ENDPROC       I2CDELAY
  -------         PROC          _WRITEEEP
  X:0208H         SYMBOL        index
  X:020AH         SYMBOL        dat
  -------         DO            
  X:020BH         SYMBOL        addr
  -------         ENDDO         
  C:64D6H         LINE#         42
  C:64E1H         LINE#         43
  C:64E1H         LINE#         46
  C:64F9H         LINE#         48
  C:64FCH         LINE#         49
  C:6504H         LINE#         50
  C:650DH         LINE#         51
  C:6515H         LINE#         52
  C:6518H         LINE#         58
  -------         ENDPROC       _WRITEEEP
  -------         PROC          _READEEP
  D:0004H         SYMBOL        index
  -------         DO            
  X:0234H         SYMBOL        val
  D:0007H         SYMBOL        addr
  -------         ENDDO         
  C:68A1H         LINE#         61
  C:68A5H         LINE#         62
  C:68A5H         LINE#         66
  C:68B4H         LINE#         68
  C:68BCH         LINE#         73
  C:68C1H         LINE#         74
  C:68C6H         LINE#         75
  -------         ENDPROC       _READEEP
  -------         PROC          _READI2C
  X:0235H         SYMBOL        addr
  X:0236H         SYMBOL        index
  -------         DO            
  X:0237H         SYMBOL        val
  -------         ENDDO         
  C:671FH         LINE#         77
  C:6727H         LINE#         78
  C:6727H         LINE#         81
BL51 BANKED LINKER/LOCATER V6.22.2.0                                                  05/20/2021  15:51:07  PAGE 32


  C:672AH         LINE#         82
  C:6732H         LINE#         83
  C:673AH         LINE#         84
  C:673DH         LINE#         85
  C:6747H         LINE#         86
  C:674FH         LINE#         87
  C:6752H         LINE#         89
  C:6757H         LINE#         90
  -------         ENDPROC       _READI2C
  -------         PROC          I2CSTART
  C:6A7DH         LINE#         106
  C:6A7DH         LINE#         107
  C:6A7DH         LINE#         108
  C:6A82H         LINE#         109
  C:6A87H         LINE#         110
  C:6A8CH         LINE#         111
  C:6A8EH         LINE#         112
  -------         ENDPROC       I2CSTART
  -------         PROC          I2CSTOP
  C:0016H         LINE#         114
  C:0016H         LINE#         115
  C:0016H         LINE#         116
  C:001BH         LINE#         117
  C:0020H         LINE#         118
  C:0022H         LINE#         119
  -------         ENDPROC       I2CSTOP
  -------         PROC          _I2CWRITEDATA
  D:0006H         SYMBOL        value
  C:6143H         LINE#         121
  C:6145H         LINE#         122
  C:6145H         LINE#         124
  C:6152H         LINE#         125
  C:615FH         LINE#         126
  C:616CH         LINE#         127
  C:6179H         LINE#         129
  C:6186H         LINE#         130
  C:6193H         LINE#         131
  C:61A0H         LINE#         132
  C:61ADH         LINE#         135
  C:61AFH         LINE#         136
  C:61B1H         LINE#         137
  C:61B3H         LINE#         138
  C:61B5H         LINE#         140
  C:61B7H         LINE#         141
  C:61B9H         LINE#         142
  C:61BBH         LINE#         143
  C:61BDH         LINE#         144
  -------         ENDPROC       _I2CWRITEDATA
  -------         PROC          I2CREADDATA
  -------         DO            
  D:0004H         SYMBOL        i
  D:0006H         SYMBOL        value
  -------         ENDDO         
  C:6758H         LINE#         146
  C:6758H         LINE#         147
  C:6758H         LINE#         149
  C:675AH         LINE#         151
BL51 BANKED LINKER/LOCATER V6.22.2.0                                                  05/20/2021  15:51:07  PAGE 33


  C:675FH         LINE#         152
  C:6761H         LINE#         154
  C:6764H         LINE#         155
  C:6766H         LINE#         156
  C:676AH         LINE#         157
  C:6770H         LINE#         158
  C:6772H         LINE#         159
  C:677DH         LINE#         160
  C:6780H         LINE#         162
  C:6782H         LINE#         163
  C:6784H         LINE#         164
  C:6786H         LINE#         165
  C:6788H         LINE#         167
  C:678AH         LINE#         169
  -------         ENDPROC       I2CREADDATA
  -------         PROC          _AD5110_I2CWRITEDATA
  D:0006H         SYMBOL        value
  C:60C5H         LINE#         172
  C:60C7H         LINE#         173
  C:60C7H         LINE#         175
  C:60D4H         LINE#         176
  C:60E1H         LINE#         177
  C:60EEH         LINE#         178
  C:60FBH         LINE#         180
  C:6108H         LINE#         181
  C:6115H         LINE#         182
  C:6122H         LINE#         183
  C:612FH         LINE#         186
  C:6131H         LINE#         187
  C:6133H         LINE#         188
  C:6135H         LINE#         189
  C:6137H         LINE#         190
  C:613AH         LINE#         191
  C:613CH         LINE#         192
  C:613EH         LINE#         193
  C:6140H         LINE#         194
  C:6142H         LINE#         196
  -------         ENDPROC       _AD5110_I2CWRITEDATA
  -------         PROC          _WRITEAD5110
  D:0002H         SYMBOL        index
  D:0005H         SYMBOL        dat
  -------         DO            
  D:0006H         SYMBOL        addr
  -------         ENDDO         
  C:68E8H         LINE#         229
  C:68ECH         LINE#         230
  C:68ECH         LINE#         233
  C:68EEH         LINE#         235
  C:68F1H         LINE#         236
  C:68F6H         LINE#         237
  C:68FBH         LINE#         238
  C:6900H         LINE#         239
  C:6903H         LINE#         245
  -------         ENDPROC       _WRITEAD5110
  -------         ENDMOD        I2C

  -------         MODULE        KEYREMO
BL51 BANKED LINKER/LOCATER V6.22.2.0                                                  05/20/2021  15:51:07  PAGE 34


  C:0000H         SYMBOL        _ICE_DUMMY_
  C:69A0H         PUBLIC        _GetKey
  C:635CH         PUBLIC        Scankey
  -------         PROC          SCANKEY
  C:635CH         LINE#         33
  C:635CH         LINE#         34
  C:635CH         LINE#         36
  C:6364H         LINE#         37
  C:6364H         LINE#         39
  C:6374H         LINE#         40
  C:6374H         LINE#         41
  C:6378H         LINE#         42
  C:637EH         LINE#         43
  C:6380H         LINE#         44
  C:6390H         LINE#         45
  C:6390H         LINE#         46
  C:6394H         LINE#         47
  C:6398H         LINE#         48
  C:639CH         LINE#         49
  C:63A3H         LINE#         50
  C:63A3H         LINE#         52
  C:63ACH         LINE#         53
  C:63ACH         LINE#         55
  -------         ENDPROC       SCANKEY
  -------         PROC          _GETKEY
  D:0007H         SYMBOL        repeat
  -------         DO            
  B:0021H.1       SYMBOL        ready
  -------         ENDDO         
  C:69A0H         LINE#         60
  C:69A0H         LINE#         61
  C:69A0H         LINE#         65
  C:69A4H         LINE#         66
  C:69A6H         LINE#         68
  C:69ACH         LINE#         69
  C:69B2H         LINE#         70
  C:69B8H         LINE#         72
  C:69BAH         LINE#         73
  -------         ENDPROC       _GETKEY
  -------         ENDMOD        KEYREMO

  -------         MODULE        MAIN
  C:0000H         SYMBOL        _ICE_DUMMY_
  C:5106H         PUBLIC        _Mapping1
  C:5E1EH         PUBLIC        _mcuLib_ProtocolSendCmdWithParamNum
  D:00B2H         PUBLIC        P3M1
  C:527CH         PUBLIC        _GetRotateNumber
  D:00E7H         PUBLIC        ISPCR
  D:00E8H         PUBLIC        P4
  X:0106H         PUBLIC        ulongRotateNumber
  C:3370H         PUBLIC        EncorderHandler_TELI
  X:010AH         PUBLIC        PowerFlag
  B:0080H.0       PUBLIC        P0_0
  X:010BH         PUBLIC        LowBatteryFlag
  B:0080H.1       PUBLIC        P0_1
  X:010CH         PUBLIC        UserRange
  B:00B0H.4       PUBLIC        P3_4
BL51 BANKED LINKER/LOCATER V6.22.2.0                                                  05/20/2021  15:51:07  PAGE 35


  B:00B0H.5       PUBLIC        P3_5
  C:662AH         PUBLIC        _SetAD5110Step
  C:405AH         PUBLIC        _MCU_SendCmdToDVR
  X:0112H         PUBLIC        g_stBatteryInfo
  D:00C6H         PUBLIC        ADCV
  X:0118H         PUBLIC        DVRChangeCurrent
  X:0119H         PUBLIC        EncorderLen_Offset
  X:011BH         PUBLIC        EncorderLenint
  C:6043H         PUBLIC        main
  D:00E6H         PUBLIC        SCMD
  X:011CH         PUBLIC        bytBatteryStopCharge
  X:011DH         PUBLIC        g_stDVRInfo
  X:011FH         PUBLIC        PowerOffToOnFlag
  X:0120H         PUBLIC        bytFastEncoderMode
  D:00E3H         PUBLIC        IFADRH
  D:00E5H         PUBLIC        IFMT
  X:0121H         PUBLIC        Power_down_mode
  D:00E4H         PUBLIC        IFADRL
  X:0122H         PUBLIC        bytBatteryStopChargeCount
  X:0123H         PUBLIC        TDecimal1
  X:0127H         PUBLIC        ulongRotateNumberTELI
  X:012BH         PUBLIC        TDecimal2
  X:012FH         PUBLIC        TDecimal3
  X:0133H         PUBLIC        TDecimal4
  X:0137H         PUBLIC        TEncorder1
  X:013BH         PUBLIC        AD5110Range
  X:0141H         PUBLIC        TEncorder2
  X:0145H         PUBLIC        TEncorder3
  X:0149H         PUBLIC        TEncorder4
  C:62A7H         SYMBOL        _?ix1000
  C:65A7H         PUBLIC        main_loop
  C:190FH         PUBLIC        LoadEEPROM
  X:014DH         PUBLIC        EncorderCountPN_offset
  C:68C7H         PUBLIC        enter_isp
  D:00E2H         PUBLIC        IFD
  X:014EH         PUBLIC        EncorderLenfloaat
  X:0152H         PUBLIC        EncorderLen
  C:6AD5H         PUBLIC        GetBatteryVoltage
  C:62AEH         PUBLIC        InitialTimerEvent
  C:678BH         PUBLIC        _isp_write
  C:6ACEH         PUBLIC        GetBatteryBTH
  X:0156H         PUBLIC        EncorderCountPN
  C:0006H         PUBLIC        isp_init
  X:0157H         PUBLIC        Decimal1
  X:015BH         PUBLIC        DebugLevel
  X:015CH         PUBLIC        Decimal2
  X:0160H         PUBLIC        Decimal3
  C:5783H         PUBLIC        WaitPowerOn
  X:0164H         PUBLIC        Decimal4
  X:0168H         PUBLIC        PWR_START_flag
  X:0169H         PUBLIC        Encorder1
  X:016DH         PUBLIC        Encorder2
  D:00C5H         PUBLIC        ADCTL
  X:0171H         PUBLIC        Encorder3
  C:6908H         PUBLIC        _GetADCValue
  X:0175H         PUBLIC        Encorder4
  D:00E8H         PUBLIC        ADCVL
BL51 BANKED LINKER/LOCATER V6.22.2.0                                                  05/20/2021  15:51:07  PAGE 36


  X:0179H         PUBLIC        AD5110_setp
  C:4898H         PUBLIC        SaveRotateNumber
  X:01A2H         PUBLIC        CameraVolt
  C:5C4AH         PUBLIC        _mcuLib_ProtocolAppend
  C:37D1H         PUBLIC        EncorderHandler
  -------         PROC          _ISP_WRITE
  D:0001H         SYMBOL        buf
  D:0005H         SYMBOL        addr_high
  X:0209H         SYMBOL        addr_low
  X:020AH         SYMBOL        len
  C:678BH         LINE#         103
  C:678BH         LINE#         104
  C:678BH         LINE#         105
  C:678EH         LINE#         106
  C:6790H         LINE#         108
  C:6790H         LINE#         109
  C:6796H         LINE#         110
  C:679BH         LINE#         111
  C:679EH         LINE#         112
  C:67A1H         LINE#         114
  C:67A8H         LINE#         115
  C:67AEH         LINE#         116
  C:67B1H         LINE#         117
  C:67B1H         LINE#         118
  C:67B2H         LINE#         119
  C:67B4H         LINE#         120
  C:67B4H         LINE#         121
  C:67BAH         LINE#         122
  C:67BAH         LINE#         123
  C:67BDH         LINE#         124
  -------         ENDPROC       _ISP_WRITE
  -------         PROC          ISP_INIT
  C:0006H         LINE#         126
  C:0006H         LINE#         127
  C:0006H         LINE#         128
  C:0009H         LINE#         129
  -------         ENDPROC       ISP_INIT
  -------         PROC          ENTER_ISP
  -------         DO            
  X:0204H         SYMBOL        mark
  -------         ENDDO         
  C:68C7H         LINE#         131
  C:68C7H         LINE#         132
  C:68C7H         LINE#         134
  C:68CCH         LINE#         135
  C:68CFH         LINE#         136
  C:68E4H         LINE#         137
  C:68E7H         LINE#         138
  -------         ENDPROC       ENTER_ISP
  C:5C32H         SYMBOL        L?0151
  C:5C42H         SYMBOL        L?0152
  -------         PROC          L?0150
  -------         ENDPROC       L?0150
  C:5C32H         SYMBOL        L?0151
  C:5C42H         SYMBOL        L?0152
  -------         PROC          _MCULIB_PROTOCOLAPPEND
  X:024BH         SYMBOL        pucBuf
BL51 BANKED LINKER/LOCATER V6.22.2.0                                                  05/20/2021  15:51:07  PAGE 37


  X:024EH         SYMBOL        piLen
  X:0251H         SYMBOL        ucByte
  C:5C4AH         LINE#         141
  C:5C55H         LINE#         142
  C:5C63H         LINE#         143
  C:5C87H         LINE#         144
  C:5C97H         LINE#         145
  C:5CA0H         LINE#         146
  C:5CA0H         LINE#         147
  C:5CA2H         LINE#         148
  C:5CCAH         LINE#         149
  C:5CDAH         LINE#         150
  C:5CDAH         LINE#         151
  C:5CDCH         LINE#         152
  -------         ENDPROC       _MCULIB_PROTOCOLAPPEND
  -------         PROC          _MCULIB_PROTOCOLSENDCMDWITHPARAMNUM
  D:0007H         SYMBOL        ucType
  X:0235H         SYMBOL        pucParam
  X:0238H         SYMBOL        ucSize
  -------         DO            
  D:0005H         SYMBOL        ucChecksum
  X:0239H         SYMBOL        pucBuf
  X:0249H         SYMBOL        iLen
  X:024AH         SYMBOL        i
  -------         ENDDO         
  C:5E1EH         LINE#         154
  C:5E29H         LINE#         155
  C:5E29H         LINE#         160
  C:5E2FH         LINE#         161
  C:5E35H         LINE#         162
  C:5E36H         LINE#         163
  C:5E39H         LINE#         164
  C:5E3DH         LINE#         165
  C:5E40H         LINE#         167
  C:5E53H         LINE#         168
  C:5E66H         LINE#         169
  C:5E69H         LINE#         170
  C:5E71H         LINE#         172
  C:5E83H         LINE#         174
  C:5E94H         LINE#         175
  C:5EA3H         LINE#         176
  C:5EABH         LINE#         179
  C:5EADH         LINE#         180
  -------         ENDPROC       _MCULIB_PROTOCOLSENDCMDWITHPARAMNUM
  -------         PROC          _MCU_SENDCMDTODVR
  X:0228H         SYMBOL        ucType
  -------         DO            
  X:0229H         SYMBOL        buf
  D:0002H         SYMBOL        val
  X:0230H         SYMBOL        encoder
  -------         ENDDO         
  C:405AH         LINE#         183
  C:405FH         LINE#         184
  C:405FH         LINE#         185
  C:4072H         LINE#         188
  C:409AH         LINE#         189
  C:409AH         LINE#         190
BL51 BANKED LINKER/LOCATER V6.22.2.0                                                  05/20/2021  15:51:07  PAGE 38


  C:409AH         LINE#         191
  C:40A6H         LINE#         192
  C:40B2H         LINE#         193
  C:40BEH         LINE#         194
  C:40CCH         LINE#         195
  C:40CFH         LINE#         197
  C:40CFH         LINE#         202
  C:4106H         LINE#         204
  C:411AH         LINE#         205
  C:4123H         LINE#         207
  C:4128H         LINE#         237
  C:412DH         LINE#         248
  C:413AH         LINE#         250
  C:413DH         LINE#         252
  C:4156H         LINE#         255
  C:41A5H         LINE#         259
  C:41ADH         LINE#         261
  C:41BAH         LINE#         262
  C:41C1H         LINE#         264
  C:41CEH         LINE#         265
  C:41D5H         LINE#         267
  C:41DBH         LINE#         268
  C:41E2H         LINE#         270
  C:41EAH         LINE#         271
  C:41F1H         LINE#         273
  C:41F9H         LINE#         274
  C:4200H         LINE#         276
  C:4206H         LINE#         277
  C:420DH         LINE#         279
  C:4218H         LINE#         280
  C:421FH         LINE#         282
  C:4263H         LINE#         285
  C:4263H         LINE#         286
  C:426AH         LINE#         287
  C:426AH         LINE#         292
  C:4278H         LINE#         293
  C:427BH         LINE#         295
  C:427BH         LINE#         296
  C:4289H         LINE#         297
  C:4289H         LINE#         298
  C:428FH         LINE#         299
  C:4296H         LINE#         303
  C:4296H         LINE#         304
  C:42A4H         LINE#         305
  C:42A7H         LINE#         307
  C:42A7H         LINE#         308
  C:42B5H         LINE#         309
  C:42B8H         LINE#         311
  C:42B8H         LINE#         312
  C:42C6H         LINE#         313
  C:42C9H         LINE#         314
  C:42C9H         LINE#         315
  C:42D1H         LINE#         316
  C:42D6H         LINE#         318
  C:42EAH         LINE#         320
  C:4308H         LINE#         321
  C:430DH         LINE#         322
BL51 BANKED LINKER/LOCATER V6.22.2.0                                                  05/20/2021  15:51:07  PAGE 39


  C:4334H         LINE#         323
  C:435AH         LINE#         324
  C:4380H         LINE#         326
  C:439DH         LINE#         327
  C:43A2H         LINE#         328
  C:43C8H         LINE#         329
  C:43EDH         LINE#         330
  C:4412H         LINE#         332
  C:442EH         LINE#         333
  C:4433H         LINE#         334
  C:4458H         LINE#         335
  C:446BH         LINE#         344
  C:447CH         LINE#         345
  C:447CH         LINE#         346
  C:447CH         LINE#         347
  C:447CH         LINE#         349
  C:447CH         LINE#         351
  -------         ENDPROC       _MCU_SENDCMDTODVR
  -------         PROC          INITIALTIMEREVENT
  C:62AEH         LINE#         354
  C:62AEH         LINE#         355
  C:62AEH         LINE#         356
  C:62B1H         LINE#         357
  C:62BAH         LINE#         358
  C:62C3H         LINE#         359
  C:62CCH         LINE#         360
  C:62D5H         LINE#         361
  C:62DEH         LINE#         362
  C:62E7H         LINE#         363
  C:62F0H         LINE#         364
  C:62F9H         LINE#         366
  C:6302H         LINE#         368
  C:6309H         LINE#         374
  -------         ENDPROC       INITIALTIMEREVENT
  -------         PROC          _MAPPING1
  X:0206H         SYMBOL        fromValue
  X:0208H         SYMBOL        fromRange
  X:020BH         SYMBOL        toValue
  X:020EH         SYMBOL        toRange
  -------         DO            
  X:0211H         SYMBOL        a
  X:0213H         SYMBOL        b
  -------         ENDDO         
  C:5106H         LINE#         376
  C:5117H         LINE#         377
  C:5117H         LINE#         384
  C:512FH         LINE#         385
  C:5155H         LINE#         386
  C:517DH         LINE#         388
  C:5182H         LINE#         390
  C:51B7H         LINE#         391
  C:51BAH         LINE#         392
  C:51BAH         LINE#         393
  C:51E1H         LINE#         394
  C:5209H         LINE#         396
  C:520EH         LINE#         398
  C:5279H         LINE#         399
BL51 BANKED LINKER/LOCATER V6.22.2.0                                                  05/20/2021  15:51:07  PAGE 40


  C:5279H         LINE#         401
  C:527BH         LINE#         403
  -------         ENDPROC       _MAPPING1
  -------         PROC          _SETAD5110STEP
  D:0007H         SYMBOL        newv
  -------         DO            
  X:0204H         SYMBOL        regv
  -------         ENDDO         
  C:662AH         LINE#         405
  C:662AH         LINE#         406
  C:662AH         LINE#         410
  C:664FH         LINE#         411
  -------         ENDPROC       _SETAD5110STEP
  -------         PROC          _GETROTATENUMBER
  D:0003H         SYMBOL        index
  -------         DO            
  X:0200H         SYMBOL        ret
  -------         ENDDO         
  C:527CH         LINE#         415
  C:527EH         LINE#         416
  C:527EH         LINE#         417
  C:5288H         LINE#         419
  C:5290H         LINE#         420
  C:5290H         LINE#         421
  C:52A0H         LINE#         422
  C:52B9H         LINE#         424
  C:52EDH         LINE#         425
  C:5306H         LINE#         427
  C:531EH         LINE#         432
  C:5321H         LINE#         434
  C:5321H         LINE#         435
  C:5332H         LINE#         436
  C:534BH         LINE#         438
  C:537FH         LINE#         439
  C:5398H         LINE#         441
  C:53CCH         LINE#         447
  C:53CCH         LINE#         450
  C:53DAH         LINE#         451
  -------         ENDPROC       _GETROTATENUMBER
  -------         PROC          SAVEROTATENUMBER
  -------         DO            
  X:0200H         SYMBOL        temp
  X:0204H         SYMBOL        val
  -------         ENDDO         
  C:4898H         LINE#         453
  C:4898H         LINE#         454
  C:4898H         LINE#         455
  C:48A2H         LINE#         457
  C:48B6H         LINE#         460
  C:48C7H         LINE#         461
  C:48E0H         LINE#         462
  C:4914H         LINE#         463
  C:492DH         LINE#         464
  C:4961H         LINE#         466
  C:4986H         LINE#         467
  C:4986H         LINE#         469
  C:49A2H         LINE#         470
BL51 BANKED LINKER/LOCATER V6.22.2.0                                                  05/20/2021  15:51:07  PAGE 41


  C:49A2H         LINE#         471
  C:49C4H         LINE#         476
  C:49C4H         LINE#         477
  C:49D7H         LINE#         478
  C:49F0H         LINE#         479
  C:4A03H         LINE#         480
  C:4A1CH         LINE#         481
  C:4A2FH         LINE#         486
  C:4A2FH         LINE#         488
  C:4A43H         LINE#         490
  C:4A54H         LINE#         491
  C:4A6DH         LINE#         492
  C:4AA1H         LINE#         493
  C:4ABAH         LINE#         494
  C:4AEEH         LINE#         496
  C:4B13H         LINE#         497
  C:4B13H         LINE#         499
  C:4B2FH         LINE#         500
  C:4B2FH         LINE#         501
  C:4B51H         LINE#         508
  C:4B51H         LINE#         509
  C:4B64H         LINE#         510
  C:4B7DH         LINE#         511
  C:4B90H         LINE#         512
  C:4BA9H         LINE#         513
  C:4BBCH         LINE#         518
  C:4BBCH         LINE#         519
  -------         ENDPROC       SAVEROTATENUMBER
  -------         PROC          LOADEEPROM
  C:190FH         LINE#         520
  C:190FH         LINE#         521
  C:190FH         LINE#         522
  C:191BH         LINE#         523
  C:1927H         LINE#         524
  C:1933H         LINE#         525
  C:193FH         LINE#         527
  C:194CH         LINE#         528
  C:194CH         LINE#         529
  C:194FH         LINE#         530
  C:1957H         LINE#         531
  C:1957H         LINE#         533
  C:1964H         LINE#         534
  C:1964H         LINE#         535
  C:1966H         LINE#         536
  C:196DH         LINE#         537
  C:196DH         LINE#         539
  C:197AH         LINE#         540
  C:197AH         LINE#         541
  C:197DH         LINE#         542
  C:1985H         LINE#         543
  C:1985H         LINE#         545
  C:19B8H         LINE#         546
  C:19EBH         LINE#         548
  C:1A1EH         LINE#         549
  C:1A51H         LINE#         551
  C:1A84H         LINE#         552
  C:1AB7H         LINE#         554
BL51 BANKED LINKER/LOCATER V6.22.2.0                                                  05/20/2021  15:51:07  PAGE 42


  C:1AEAH         LINE#         555
  C:1B1DH         LINE#         557
  C:1B37H         LINE#         558
  C:1B37H         LINE#         559
  C:1B41H         LINE#         560
  C:1B4BH         LINE#         561
  C:1B54H         LINE#         562
  C:1B5CH         LINE#         563
  C:1B5CH         LINE#         565
  C:1B76H         LINE#         566
  C:1B76H         LINE#         567
  C:1B80H         LINE#         568
  C:1B8AH         LINE#         569
  C:1B93H         LINE#         570
  C:1B9BH         LINE#         571
  C:1B9BH         LINE#         573
  C:1BB5H         LINE#         574
  C:1BB5H         LINE#         575
  C:1BBFH         LINE#         576
  C:1BC9H         LINE#         577
  C:1BD2H         LINE#         578
  C:1BDAH         LINE#         579
  C:1BDAH         LINE#         581
  C:1BF4H         LINE#         582
  C:1BF4H         LINE#         583
  C:1BFEH         LINE#         584
  C:1C08H         LINE#         585
  C:1C11H         LINE#         586
  C:1C19H         LINE#         587
  C:1C19H         LINE#         589
  C:1C4CH         LINE#         590
  C:1C7FH         LINE#         592
  C:1CB2H         LINE#         593
  C:1CE5H         LINE#         595
  C:1D18H         LINE#         596
  C:1D4BH         LINE#         598
  C:1D7EH         LINE#         599
  C:1DB1H         LINE#         601
  C:1DCBH         LINE#         602
  C:1DCBH         LINE#         603
  C:1DD5H         LINE#         604
  C:1DDFH         LINE#         605
  C:1DE8H         LINE#         606
  C:1DF0H         LINE#         607
  C:1DF0H         LINE#         609
  C:1E0AH         LINE#         610
  C:1E0AH         LINE#         611
  C:1E14H         LINE#         612
  C:1E1EH         LINE#         613
  C:1E27H         LINE#         614
  C:1E2FH         LINE#         615
  C:1E2FH         LINE#         617
  C:1E49H         LINE#         618
  C:1E49H         LINE#         619
  C:1E53H         LINE#         620
  C:1E5DH         LINE#         621
  C:1E66H         LINE#         622
BL51 BANKED LINKER/LOCATER V6.22.2.0                                                  05/20/2021  15:51:07  PAGE 43


  C:1E6EH         LINE#         623
  C:1E6EH         LINE#         625
  C:1E88H         LINE#         626
  C:1E88H         LINE#         627
  C:1E92H         LINE#         628
  C:1E9CH         LINE#         629
  C:1EA5H         LINE#         630
  C:1EADH         LINE#         631
  C:1EADH         LINE#         633
  C:1EBEH         LINE#         634
  C:1ED7H         LINE#         635
  C:1F0BH         LINE#         636
  C:1F24H         LINE#         637
  C:1F58H         LINE#         639
  C:1F74H         LINE#         640
  C:1F74H         LINE#         641
  C:1F7EH         LINE#         642
  C:1F86H         LINE#         643
  C:1F8EH         LINE#         644
  C:1F96H         LINE#         648
  C:1F96H         LINE#         650
  C:1FA7H         LINE#         651
  C:1FC0H         LINE#         652
  C:1FF4H         LINE#         653
  C:200DH         LINE#         654
  C:2041H         LINE#         656
  C:205DH         LINE#         657
  C:205DH         LINE#         658
  C:2067H         LINE#         659
  C:206FH         LINE#         660
  C:2077H         LINE#         661
  C:207FH         LINE#         665
  C:207FH         LINE#         668
  C:2089H         LINE#         669
  C:2090H         LINE#         671
  C:2098H         LINE#         672
  C:2098H         LINE#         673
  C:209EH         LINE#         674
  C:209EH         LINE#         675
  C:20A6H         LINE#         676
  C:20ACH         LINE#         677
  C:20ACH         LINE#         679
  C:20B4H         LINE#         680
  C:20B4H         LINE#         681
  C:20B4H         LINE#         682
  C:20B4H         LINE#         683
  C:20B4H         LINE#         685
  C:20B6H         LINE#         687
  C:20B6H         LINE#         689
  C:20BEH         LINE#         690
  C:20BEH         LINE#         691
  C:20C6H         LINE#         692
  C:20CCH         LINE#         695
  C:20D4H         LINE#         696
  C:20D9H         LINE#         697
  C:20DBH         LINE#         698
  C:20E3H         LINE#         699
BL51 BANKED LINKER/LOCATER V6.22.2.0                                                  05/20/2021  15:51:07  PAGE 44


  C:20E3H         LINE#         700
  C:20EAH         LINE#         701
  C:20EFH         LINE#         702
  C:20EFH         LINE#         703
  C:20EFH         LINE#         706
  C:20FBH         LINE#         708
  C:2104H         LINE#         709
  C:2104H         LINE#         710
  C:2106H         LINE#         711
  C:210DH         LINE#         712
  C:210DH         LINE#         716
  -------         ENDPROC       LOADEEPROM
  -------         PROC          _GETADCVALUE
  D:0007H         SYMBOL        sel
  C:6908H         LINE#         718
  C:6908H         LINE#         719
  C:6908H         LINE#         721
  C:690DH         LINE#         723
  C:6912H         LINE#         725
  C:6927H         LINE#         727
  -------         ENDPROC       _GETADCVALUE
  -------         PROC          GETBATTERYBTH
  -------         DO            
  D:0006H         SYMBOL        max
  -------         ENDDO         
  C:6ACEH         LINE#         729
  C:6ACEH         LINE#         730
  C:6ACEH         LINE#         731
  C:6AD0H         LINE#         732
  -------         ENDPROC       GETBATTERYBTH
  -------         PROC          GETBATTERYVOLTAGE
  -------         DO            
  D:0006H         SYMBOL        max
  -------         ENDDO         
  C:6AD5H         LINE#         740
  C:6AD5H         LINE#         741
  C:6AD5H         LINE#         742
  C:6AD7H         LINE#         743
  -------         ENDPROC       GETBATTERYVOLTAGE
  -------         PROC          ENCORDERHANDLER
  -------         DO            
  X:0200H         SYMBOL        EncorderCountTemp
  X:0202H         SYMBOL        temp_val
  X:0204H         SYMBOL        EncorderParaTemp1
  X:0208H         SYMBOL        EncorderParaTemp2
  X:020CH         SYMBOL        EncorderParaTemp3
  X:0210H         SYMBOL        EncorderParaTemp4
  X:0214H         SYMBOL        EncorderOffset1
  X:0218H         SYMBOL        EncorderOffset2
  X:021CH         SYMBOL        EncorderOffset3
  -------         ENDDO         
  C:37D1H         LINE#         753
  C:37D1H         LINE#         754
  C:37D1H         LINE#         764
  C:37D7H         LINE#         765
  C:37D7H         LINE#         778
  C:3807H         LINE#         779
BL51 BANKED LINKER/LOCATER V6.22.2.0                                                  05/20/2021  15:51:07  PAGE 45


  C:3837H         LINE#         780
  C:3867H         LINE#         781
  C:3897H         LINE#         812
  C:38C0H         LINE#         813
  C:38FAH         LINE#         814
  C:3934H         LINE#         823
  C:3946H         LINE#         824
  C:3946H         LINE#         825
  C:394BH         LINE#         826
  C:3957H         LINE#         827
  C:3959H         LINE#         829
  C:3959H         LINE#         830
  C:395FH         LINE#         831
  C:3981H         LINE#         832
  C:3981H         LINE#         853
  C:399CH         LINE#         854
  C:399CH         LINE#         865
  C:39E3H         LINE#         870
  C:3A25H         LINE#         871
  C:3A25H         LINE#         875
  C:3A25H         LINE#         876
  C:3A25H         LINE#         889
  C:3A28H         LINE#         890
  C:3A41H         LINE#         891
  C:3A41H         LINE#         896
  C:3AA0H         LINE#         907
  C:3AA0H         LINE#         913
  C:3AA0H         LINE#         914
  C:3AA0H         LINE#         923
  C:3AA3H         LINE#         925
  C:3ABCH         LINE#         926
  C:3ABCH         LINE#         930
  C:3B1BH         LINE#         937
  C:3B1BH         LINE#         941
  C:3B1BH         LINE#         942
  C:3B1BH         LINE#         951
  C:3B1DH         LINE#         980
  C:3B2FH         LINE#         981
  C:3B2FH         LINE#         985
  C:3B8EH         LINE#         993
  C:3BAFH         LINE#         999
  C:3BDBH         LINE#         1003
  C:3C00H         LINE#         1017
  C:3C00H         LINE#         1019
  C:3C02H         LINE#         1025
  C:3C09H         LINE#         1026
  C:3C09H         LINE#         1027
  C:3C0EH         LINE#         1028
  C:3C13H         LINE#         1029
  C:3C1CH         LINE#         1030
  C:3C1CH         LINE#         1035
  C:3C1CH         LINE#         1037
  -------         ENDPROC       ENCORDERHANDLER
  -------         PROC          ENCORDERHANDLER_TELI
  -------         DO            
  X:0200H         SYMBOL        EncorderCountTemp
  X:0204H         SYMBOL        temp_val
BL51 BANKED LINKER/LOCATER V6.22.2.0                                                  05/20/2021  15:51:07  PAGE 46


  X:0208H         SYMBOL        EncorderCount_T
  X:020CH         SYMBOL        EncorderParaTemp1
  X:0210H         SYMBOL        EncorderParaTemp2
  X:0214H         SYMBOL        EncorderParaTemp3
  X:0218H         SYMBOL        EncorderParaTemp4
  X:021CH         SYMBOL        EncorderOffset1
  X:0220H         SYMBOL        EncorderOffset2
  X:0224H         SYMBOL        EncorderOffset3
  -------         ENDDO         
  C:3370H         LINE#         1039
  C:3370H         LINE#         1040
  C:3370H         LINE#         1053
  C:3376H         LINE#         1054
  C:3376H         LINE#         1055
  C:338AH         LINE#         1070
  C:33BAH         LINE#         1071
  C:33EAH         LINE#         1072
  C:341AH         LINE#         1073
  C:344AH         LINE#         1104
  C:3473H         LINE#         1105
  C:34ADH         LINE#         1106
  C:34E7H         LINE#         1115
  C:34F9H         LINE#         1116
  C:34F9H         LINE#         1117
  C:34FEH         LINE#         1118
  C:3505H         LINE#         1119
  C:3507H         LINE#         1121
  C:3507H         LINE#         1122
  C:350DH         LINE#         1123
  C:3524H         LINE#         1124
  C:3524H         LINE#         1146
  C:3558H         LINE#         1147
  C:3558H         LINE#         1160
  C:35A7H         LINE#         1166
  C:35EAH         LINE#         1167
  C:35EAH         LINE#         1171
  C:35EAH         LINE#         1172
  C:35EAH         LINE#         1185
  C:35EDH         LINE#         1186
  C:361DH         LINE#         1187
  C:361DH         LINE#         1193
  C:3669H         LINE#         1204
  C:3669H         LINE#         1210
  C:3669H         LINE#         1211
  C:3669H         LINE#         1220
  C:366CH         LINE#         1222
  C:369DH         LINE#         1223
  C:369DH         LINE#         1228
  C:36E9H         LINE#         1235
  C:36E9H         LINE#         1239
  C:36E9H         LINE#         1240
  C:36E9H         LINE#         1249
  C:36EBH         LINE#         1278
  C:3709H         LINE#         1279
  C:3709H         LINE#         1284
  C:3758H         LINE#         1291
  C:376EH         LINE#         1298
BL51 BANKED LINKER/LOCATER V6.22.2.0                                                  05/20/2021  15:51:07  PAGE 47


  C:378FH         LINE#         1302
  C:37B4H         LINE#         1317
  C:37B4H         LINE#         1319
  C:37B6H         LINE#         1333
  C:37BDH         LINE#         1334
  C:37BDH         LINE#         1335
  C:37C2H         LINE#         1336
  C:37C7H         LINE#         1337
  C:37D0H         LINE#         1338
  C:37D0H         LINE#         1343
  C:37D0H         LINE#         1345
  -------         ENDPROC       ENCORDERHANDLER_TELI
  -------         PROC          MAIN_LOOP
  C:65A7H         LINE#         1348
  C:65A7H         LINE#         1349
  C:65A7H         LINE#         1351
  C:65B0H         LINE#         1353
  C:65BBH         LINE#         1354
  C:65C6H         LINE#         1359
  C:65C6H         LINE#         1360
  C:65C6H         LINE#         1369
  C:65C9H         LINE#         1370
  C:65CCH         LINE#         1374
  C:65CFH         LINE#         1375
  C:65D2H         LINE#         1377
  C:65DAH         LINE#         1378
  C:65DFH         LINE#         1380
  C:65E2H         LINE#         1385
  C:65E8H         LINE#         1386
  C:65E8H         LINE#         1388
  C:65E8H         LINE#         1390
  -------         ENDPROC       MAIN_LOOP
  -------         PROC          MAIN
  C:6043H         LINE#         1392
  C:6043H         LINE#         1393
  C:6043H         LINE#         1395
  C:6046H         LINE#         1397
  C:6049H         LINE#         1399
  C:6052H         LINE#         1401
  C:6055H         LINE#         1405
  C:6057H         LINE#         1407
  C:6059H         LINE#         1410
  C:605CH         LINE#         1413
  C:605FH         LINE#         1416
  C:6062H         LINE#         1418
  C:606AH         LINE#         1419
  C:6080H         LINE#         1424
  C:6092H         LINE#         1425
  C:6096H         LINE#         1427
  C:60A0H         LINE#         1428
  C:60A8H         LINE#         1430
  C:60A8H         LINE#         1432
  C:60AEH         LINE#         1433
  C:60B3H         LINE#         1435
  C:60B3H         LINE#         1436
  C:60B5H         LINE#         1439
  C:60B5H         LINE#         1440
BL51 BANKED LINKER/LOCATER V6.22.2.0                                                  05/20/2021  15:51:07  PAGE 48


  C:60BDH         LINE#         1441
  C:60C0H         LINE#         1443
  C:60C3H         LINE#         1444
  -------         ENDPROC       MAIN
  -------         PROC          WAITPOWERON
  C:5783H         LINE#         1447
  C:5783H         LINE#         1448
  C:5783H         LINE#         1450
  C:578CH         LINE#         1451
  C:5794H         LINE#         1453
  C:57A0H         LINE#         1454
  C:57A4H         LINE#         1456
  C:57ABH         LINE#         1457
  C:57B0H         LINE#         1458
  C:57B7H         LINE#         1459
  C:57BCH         LINE#         1462
  C:57C2H         LINE#         1463
  C:57C7H         LINE#         1464
  C:57CCH         LINE#         1468
  C:57D1H         LINE#         1469
  C:57D3H         LINE#         1470
  C:57D7H         LINE#         1473
  C:57DAH         LINE#         1475
  C:57DAH         LINE#         1476
  C:57DAH         LINE#         1484
  C:57DDH         LINE#         1485
  C:57E0H         LINE#         1486
  C:57E3H         LINE#         1488
  C:57EBH         LINE#         1489
  C:57EBH         LINE#         1493
  C:5809H         LINE#         1494
  C:5809H         LINE#         1495
  C:580FH         LINE#         1496
  C:5818H         LINE#         1497
  C:581AH         LINE#         1498
  C:582EH         LINE#         1499
  C:582EH         LINE#         1500
  C:5833H         LINE#         1501
  C:5838H         LINE#         1502
  C:583AH         LINE#         1503
  C:5842H         LINE#         1504
  C:5845H         LINE#         1508
  C:5847H         LINE#         1511
  C:5850H         LINE#         1512
  C:585AH         LINE#         1513
  C:585FH         LINE#         1514
  C:5869H         LINE#         1515
  C:586EH         LINE#         1516
  C:5870H         LINE#         1517
  C:5872H         LINE#         1519
  C:5879H         LINE#         1520
  C:5880H         LINE#         1521
  C:5888H         LINE#         1522
  C:5891H         LINE#         1524
  C:5894H         LINE#         1526
  -------         ENDPROC       WAITPOWERON
  -------         ENDMOD        MAIN
BL51 BANKED LINKER/LOCATER V6.22.2.0                                                  05/20/2021  15:51:07  PAGE 49



  -------         MODULE        MONITOR
  C:0000H         SYMBOL        _ICE_DUMMY_
  X:0252H         PUBLIC        Monitor_I2C
  X:0253H         PUBLIC        MonRdata
  X:0254H         PUBLIC        argc
  X:0255H         PUBLIC        MonWdata
  B:0020H.6       PUBLIC        AccessEnable
  B:0020H.7       PUBLIC        echo
  X:0256H         PUBLIC        monstr
  X:0274H         PUBLIC        MonIndex
  X:0275H         PUBLIC        argv
  B:0021H.0       SYMBOL        indirect
  D:0010H         PUBLIC        MonAddress
  -------         ENDMOD        MONITOR

  -------         MODULE        PRINTF
  C:0000H         SYMBOL        _ICE_DUMMY_
  C:63EAH         PUBLIC        Hex
  D:0099H         PUBLIC        SBUF
  C:28DFH         PUBLIC        _DoPrint
  C:651DH         PUBLIC        _GraphicsPrint
  C:66A6H         PUBLIC        _DEBUG_MESSAGE
  X:02AEH         SYMBOL        _PrintColor
  C:6668H         PUBLIC        _Printf
  C:28D7H         SYMBOL        L?0093
  -------         PROC          L?0092
  -------         ENDPROC       L?0092
  C:28D7H         SYMBOL        L?0093
  -------         PROC          _DOPRINT
  X:0235H         SYMBOL        fmt
  X:0238H         SYMBOL        ap
  -------         DO            
  X:023BH         SYMBOL        ch
  X:023CH         SYMBOL        i
  X:023DH         SYMBOL        value
  B:0021H.1       SYMBOL        fl_zero
  B:0021H.2       SYMBOL        fl_num
  X:0241H         SYMBOL        fl_len
  X:0242H         SYMBOL        cnt
  X:0243H         SYMBOL        mask
  X:0247H         SYMBOL        ptr
  -------         ENDDO         
  C:28DFH         LINE#         39
  C:28EAH         LINE#         40
  C:28EAH         LINE#         48
  C:28F4H         LINE#         54
  C:28F4H         LINE#         58
  C:2914H         LINE#         59
  C:2914H         LINE#         60
  C:2925H         LINE#         61
  C:292FH         LINE#         62
  C:2938H         LINE#         63
  C:2938H         LINE#         64
  C:2938H         LINE#         68
  C:293AH         LINE#         69
  C:293CH         LINE#         70
BL51 BANKED LINKER/LOCATER V6.22.2.0                                                  05/20/2021  15:51:07  PAGE 50


  C:2941H         LINE#         72
  C:2958H         LINE#         74
  C:295DH         LINE#         75
  C:295FH         LINE#         76
  C:2976H         LINE#         77
  C:2976H         LINE#         78
  C:2976H         LINE#         79
  C:2978H         LINE#         80
  C:2994H         LINE#         81
  C:299EH         LINE#         82
  C:29B5H         LINE#         83
  C:29B5H         LINE#         87
  C:29BBH         LINE#         89
  C:29CFH         LINE#         90
  C:29CFH         LINE#         91
  C:29EEH         LINE#         92
  C:29EEH         LINE#         93
  C:2A0BH         LINE#         94
  C:2A0BH         LINE#         98
  C:2A37H         LINE#         100
  C:2A37H         LINE#         101
  C:2A37H         LINE#         103
  C:2A4AH         LINE#         104
  C:2A4AH         LINE#         105
  C:2A6AH         LINE#         106
  C:2A7FH         LINE#         107
  C:2A81H         LINE#         109
  C:2A81H         LINE#         110
  C:2AA6H         LINE#         111
  C:2ABCH         LINE#         112
  C:2ABEH         LINE#         114
  C:2ABEH         LINE#         115
  C:2AC2H         LINE#         116
  C:2ADBH         LINE#         117
  C:2ADBH         LINE#         118
  C:2ADBH         LINE#         120
  C:2AEDH         LINE#         121
  C:2AF5H         LINE#         122
  C:2B12H         LINE#         123
  C:2B12H         LINE#         125
  C:2B1BH         LINE#         126
  C:2B3AH         LINE#         128
  C:2B54H         LINE#         129
  C:2B7EH         LINE#         130
  C:2B99H         LINE#         131
  C:2BA1H         LINE#         132
  C:2BA1H         LINE#         134
  C:2BF6H         LINE#         136
  C:2BF6H         LINE#         137
  C:2C1DH         LINE#         138
  C:2C45H         LINE#         139
  C:2C47H         LINE#         140
  C:2C52H         LINE#         142
  C:2C7FH         LINE#         143
  C:2C9CH         LINE#         145
  C:2CB8H         LINE#         146
  C:2CBBH         LINE#         147
BL51 BANKED LINKER/LOCATER V6.22.2.0                                                  05/20/2021  15:51:07  PAGE 51


  C:2CBBH         LINE#         148
  C:2CBBH         LINE#         150
  C:2CBBH         LINE#         151
  C:2CBBH         LINE#         153
  C:2CCBH         LINE#         154
  C:2CE5H         LINE#         155
  C:2D00H         LINE#         156
  C:2D19H         LINE#         157
  C:2D19H         LINE#         159
  C:2D27H         LINE#         161
  C:2D47H         LINE#         162
  C:2D82H         LINE#         163
  C:2D8AH         LINE#         164
  C:2D8AH         LINE#         166
  C:2D8AH         LINE#         177
  C:2DA8H         LINE#         178
  C:2DBBH         LINE#         179
  C:2DD7H         LINE#         180
  C:2DD7H         LINE#         185
  C:2DD7H         LINE#         186
  C:2DF9H         LINE#         187
  C:2E0AH         LINE#         188
  C:2E0AH         LINE#         190
  C:2E0AH         LINE#         191
  C:2E29H         LINE#         192
  C:2E2CH         LINE#         193
  C:2E2CH         LINE#         194
  C:2E2CH         LINE#         195
  -------         ENDPROC       _DOPRINT
  -------         PROC          _PRINTF
  X:0207H         SYMBOL        fmt
  -------         DO            
  X:020AH         SYMBOL        ellipsis_40
  X:0232H         SYMBOL        ap
  -------         ENDDO         
  C:6668H         LINE#         202
  C:6673H         LINE#         203
  C:6673H         LINE#         206
  C:6681H         LINE#         207
  C:669CH         LINE#         208
  C:66A5H         LINE#         209
  -------         ENDPROC       _PRINTF
  -------         PROC          _DEBUG_MESSAGE
  X:0200H         SYMBOL        fmt
  -------         DO            
  X:0203H         SYMBOL        ellipsis_40
  X:022BH         SYMBOL        ap
  -------         ENDDO         
  C:66A6H         LINE#         211
  C:66B1H         LINE#         212
  C:66B1H         LINE#         214
  C:66BFH         LINE#         216
  C:66DAH         LINE#         218
  C:66E3H         LINE#         220
  -------         ENDPROC       _DEBUG_MESSAGE
  -------         PROC          _GRAPHICSPRINT
  X:0206H         SYMBOL        mode
BL51 BANKED LINKER/LOCATER V6.22.2.0                                                  05/20/2021  15:51:07  PAGE 52


  X:0207H         SYMBOL        Message
  -------         DO            
  X:020AH         SYMBOL        ellipsis_40
  X:0232H         SYMBOL        ap
  -------         ENDDO         
  C:651DH         LINE#         280
  C:652BH         LINE#         281
  C:652BH         LINE#         301
  C:6539H         LINE#         302
  C:6554H         LINE#         303
  C:655DH         LINE#         304
  C:6562H         LINE#         307
  -------         ENDPROC       _GRAPHICSPRINT
  -------         ENDMOD        PRINTF

  -------         MODULE        SYSPOWER
  C:0000H         SYMBOL        _ICE_DUMMY_
  D:00B2H         PUBLIC        P3M1
  B:00A0H.0       PUBLIC        P2_0
  B:0080H.2       PUBLIC        P0_2
  B:00A0H.1       PUBLIC        P2_1
  B:0080H.3       PUBLIC        P0_3
  B:00E8H.0       PUBLIC        P4_0
  B:00A0H.2       PUBLIC        P2_2
  B:0080H.4       PUBLIC        P0_4
  C:5FBFH         PUBLIC        SysPowerHandler
  B:00E8H.1       PUBLIC        P4_1
  B:00E8H.2       PUBLIC        P4_2
  B:0080H.6       PUBLIC        P0_6
  B:00A0H.6       PUBLIC        P2_6
  B:00B0H.6       PUBLIC        P3_6
  B:00B0H.7       PUBLIC        P3_7
  C:6849H         PUBLIC        SysPowerInitial
  C:5B57H         PUBLIC        _UserInterfacePowerSwitch
  C:6875H         PUBLIC        _SysPowerSwitch
  I:0011H         PUBLIC        g_stPowerInfo
  C:4BBDH         PUBLIC        _UserInterfaceBatteryChargeMode
  -------         PROC          SYSPOWERINITIAL
  C:6849H         LINE#         73
  C:6849H         LINE#         74
  C:6849H         LINE#         75
  C:684BH         LINE#         76
  C:684DH         LINE#         77
  C:684FH         LINE#         78
  C:6851H         LINE#         79
  C:6853H         LINE#         80
  C:6855H         LINE#         81
  C:6857H         LINE#         82
  C:6859H         LINE#         83
  C:685BH         LINE#         84
  C:685DH         LINE#         85
  C:685FH         LINE#         86
  C:6861H         LINE#         87
  C:6863H         LINE#         88
  C:6865H         LINE#         90
  C:686CH         LINE#         92
  -------         ENDPROC       SYSPOWERINITIAL
BL51 BANKED LINKER/LOCATER V6.22.2.0                                                  05/20/2021  15:51:07  PAGE 53


  -------         PROC          SYSPOWERHANDLER
  C:5FBFH         LINE#         101
  C:5FBFH         LINE#         102
  C:5FBFH         LINE#         104
  C:5FD0H         LINE#         105
  C:5FD0H         LINE#         106
  C:5FD0H         LINE#         108
  C:5FDEH         LINE#         109
  C:5FDEH         LINE#         110
  C:5FDEH         LINE#         111
  C:5FE0H         LINE#         112
  C:5FE2H         LINE#         114
  C:5FE2H         LINE#         115
  C:5FE4H         LINE#         116
  C:5FE6H         LINE#         118
  C:5FE6H         LINE#         119
  C:5FEBH         LINE#         120
  C:5FEBH         LINE#         122
  C:5FEBH         LINE#         123
  C:5FEBH         LINE#         124
  C:5FEBH         LINE#         125
  C:5FEBH         LINE#         126
  C:5FEBH         LINE#         127
  C:5FEBH         LINE#         128
  C:5FEBH         LINE#         130
  C:5FF3H         LINE#         132
  C:5FF5H         LINE#         134
  C:5FF5H         LINE#         136
  C:6005H         LINE#         137
  C:6005H         LINE#         138
  C:6005H         LINE#         139
  C:6007H         LINE#         140
  C:6009H         LINE#         142
  C:6009H         LINE#         143
  C:600BH         LINE#         144
  C:600DH         LINE#         147
  C:600DH         LINE#         148
  C:6012H         LINE#         149
  C:6012H         LINE#         151
  C:6012H         LINE#         152
  C:6012H         LINE#         153
  C:6012H         LINE#         155
  C:601AH         LINE#         157
  C:601CH         LINE#         159
  C:601CH         LINE#         161
  C:6026H         LINE#         162
  C:6026H         LINE#         163
  C:6026H         LINE#         164
  C:602BH         LINE#         165
  C:602BH         LINE#         167
  C:602BH         LINE#         168
  C:602BH         LINE#         169
  C:602BH         LINE#         171
  C:6033H         LINE#         173
  C:6033H         LINE#         174
  C:6033H         LINE#         175
  C:6033H         LINE#         176
BL51 BANKED LINKER/LOCATER V6.22.2.0                                                  05/20/2021  15:51:07  PAGE 54


  C:6033H         LINE#         179
  C:6042H         LINE#         181
  -------         ENDPROC       SYSPOWERHANDLER
  -------         PROC          _USERINTERFACEBATTERYCHARGEMODE
  X:0204H         SYMBOL        enumSwitch
  C:4BBDH         LINE#         183
  C:4BC2H         LINE#         184
  C:4BC2H         LINE#         186
  C:4BC7H         LINE#         187
  C:4BCCH         LINE#         188
  C:4BD1H         LINE#         189
  C:4BD6H         LINE#         190
  C:4BDBH         LINE#         191
  C:4BE0H         LINE#         193
  C:4C12H         LINE#         194
  C:4C12H         LINE#         195
  C:4C12H         LINE#         196
  C:4C19H         LINE#         201
  C:4C22H         LINE#         203
  C:4C31H         LINE#         204
  C:4C34H         LINE#         205
  C:4C3EH         LINE#         206
  C:4C3EH         LINE#         207
  C:4C4AH         LINE#         208
  C:4C4CH         LINE#         210
  C:4C4CH         LINE#         211
  C:4C52H         LINE#         212
  C:4C57H         LINE#         213
  C:4C61H         LINE#         214
  C:4C66H         LINE#         216
  C:4C68H         LINE#         217
  C:4C68H         LINE#         218
  C:4C6BH         LINE#         219
  C:4C75H         LINE#         220
  C:4C75H         LINE#         221
  C:4C7FH         LINE#         222
  C:4C84H         LINE#         224
  C:4C86H         LINE#         225
  C:4C89H         LINE#         227
  C:4C89H         LINE#         229
  C:4C8CH         LINE#         230
  C:4C8CH         LINE#         232
  C:4C94H         LINE#         233
  C:4C94H         LINE#         237
  C:4C96H         LINE#         239
  C:4C98H         LINE#         241
  C:4C98H         LINE#         242
  C:4C9FH         LINE#         246
  C:4C9FH         LINE#         248
  C:4CA8H         LINE#         251
  C:4CB7H         LINE#         252
  C:4CBCH         LINE#         253
  C:4CC6H         LINE#         254
  C:4CD8H         LINE#         255
  C:4CDDH         LINE#         257
  C:4CDDH         LINE#         259
  C:4CE0H         LINE#         261
BL51 BANKED LINKER/LOCATER V6.22.2.0                                                  05/20/2021  15:51:07  PAGE 55


  C:4CE0H         LINE#         262
  C:4CFAH         LINE#         263
  C:4CFFH         LINE#         264
  C:4D13H         LINE#         265
  C:4D18H         LINE#         267
  C:4D18H         LINE#         268
  C:4D18H         LINE#         270
  C:4D18H         LINE#         271
  C:4D18H         LINE#         289
  C:4D18H         LINE#         290
  C:4D18H         LINE#         292
  C:4D1BH         LINE#         293
  C:4D1BH         LINE#         296
  C:4D23H         LINE#         297
  C:4D23H         LINE#         298
  C:4D25H         LINE#         303
  C:4D27H         LINE#         305
  C:4D27H         LINE#         306
  C:4D2EH         LINE#         310
  C:4D2EH         LINE#         311
  C:4D37H         LINE#         314
  C:4D46H         LINE#         315
  C:4D4BH         LINE#         316
  C:4D55H         LINE#         317
  C:4D67H         LINE#         318
  C:4D6CH         LINE#         320
  C:4D6CH         LINE#         321
  C:4D6EH         LINE#         323
  C:4D6EH         LINE#         324
  C:4D82H         LINE#         325
  C:4D87H         LINE#         327
  C:4D87H         LINE#         328
  C:4D89H         LINE#         330
  C:4D89H         LINE#         331
  C:4D89H         LINE#         350
  C:4D89H         LINE#         351
  C:4D89H         LINE#         352
  C:4D8CH         LINE#         353
  C:4D8CH         LINE#         355
  C:4D94H         LINE#         356
  C:4D94H         LINE#         357
  C:4D96H         LINE#         361
  C:4D98H         LINE#         364
  C:4D98H         LINE#         365
  C:4D9FH         LINE#         369
  C:4D9FH         LINE#         371
  C:4DA8H         LINE#         373
  C:4DB7H         LINE#         374
  C:4DBCH         LINE#         375
  C:4DC6H         LINE#         376
  C:4DC6H         LINE#         377
  C:4DD8H         LINE#         378
  C:4DDCH         LINE#         380
  C:4DDEH         LINE#         382
  C:4DE1H         LINE#         384
  C:4DE1H         LINE#         385
  C:4DFBH         LINE#         386
BL51 BANKED LINKER/LOCATER V6.22.2.0                                                  05/20/2021  15:51:07  PAGE 56


  C:4DFFH         LINE#         387
  C:4E13H         LINE#         388
  C:4E17H         LINE#         390
  C:4E17H         LINE#         391
  C:4E20H         LINE#         393
  C:4E25H         LINE#         394
  C:4E2BH         LINE#         412
  C:4E2BH         LINE#         413
  C:4E2BH         LINE#         414
  C:4E2EH         LINE#         415
  C:4E2EH         LINE#         416
  C:4E35H         LINE#         420
  C:4E3EH         LINE#         422
  C:4E4DH         LINE#         423
  C:4E54H         LINE#         424
  C:4E5EH         LINE#         425
  C:4E65H         LINE#         426
  C:4E6FH         LINE#         427
  C:4E76H         LINE#         429
  C:4E76H         LINE#         430
  C:4E7CH         LINE#         431
  C:4E7CH         LINE#         432
  C:4E7EH         LINE#         433
  C:4E7EH         LINE#         438
  C:4E88H         LINE#         439
  C:4E8FH         LINE#         441
  C:4E91H         LINE#         443
  C:4E97H         LINE#         444
  C:4E99H         LINE#         446
  C:4E99H         LINE#         451
  C:4EA3H         LINE#         452
  C:4EA3H         LINE#         453
  C:4EA8H         LINE#         454
  C:4EAFH         LINE#         455
  C:4EB1H         LINE#         457
  C:4EB3H         LINE#         459
  C:4EBAH         LINE#         460
  C:4EBEH         LINE#         462
  C:4EC7H         LINE#         464
  C:4EC7H         LINE#         465
  C:4EC7H         LINE#         467
  -------         ENDPROC       _USERINTERFACEBATTERYCHARGEMODE
  -------         PROC          _USERINTERFACEPOWERSWITCH
  X:0205H         SYMBOL        enumSwitch
  C:5B57H         LINE#         652
  C:5B5CH         LINE#         653
  C:5B5CH         LINE#         654
  C:5B6DH         LINE#         657
  C:5B9EH         LINE#         658
  C:5B9EH         LINE#         659
  C:5B9EH         LINE#         660
  C:5B9EH         LINE#         661
  C:5B9EH         LINE#         664
  C:5BA0H         LINE#         665
  C:5BA2H         LINE#         666
  C:5BA4H         LINE#         667
  C:5BA6H         LINE#         668
BL51 BANKED LINKER/LOCATER V6.22.2.0                                                  05/20/2021  15:51:07  PAGE 57


  C:5BA8H         LINE#         669
  C:5BAAH         LINE#         670
  C:5BB1H         LINE#         671
  C:5BB3H         LINE#         673
  C:5BBCH         LINE#         674
  C:5BC2H         LINE#         690
  C:5BC4H         LINE#         691
  C:5BC4H         LINE#         692
  C:5BC6H         LINE#         693
  C:5BC8H         LINE#         694
  C:5BCFH         LINE#         695
  C:5BD1H         LINE#         696
  C:5BD3H         LINE#         698
  C:5BDFH         LINE#         699
  C:5BDFH         LINE#         700
  C:5BE3H         LINE#         701
  C:5BE8H         LINE#         702
  C:5BE8H         LINE#         704
  C:5BEBH         LINE#         705
  C:5BEDH         LINE#         707
  C:5BEDH         LINE#         708
  C:5BEDH         LINE#         709
  C:5BEDH         LINE#         711
  C:5BEFH         LINE#         712
  C:5BF1H         LINE#         713
  C:5BF3H         LINE#         714
  C:5BF5H         LINE#         715
  C:5BF7H         LINE#         716
  C:5BF9H         LINE#         717
  C:5BFBH         LINE#         718
  C:5BFDH         LINE#         719
  C:5BFFH         LINE#         720
  C:5C01H         LINE#         725
  C:5C03H         LINE#         729
  C:5C05H         LINE#         732
  C:5C0CH         LINE#         733
  C:5C15H         LINE#         734
  C:5C17H         LINE#         736
  C:5C17H         LINE#         740
  C:5C19H         LINE#         741
  C:5C1BH         LINE#         742
  C:5C1DH         LINE#         743
  C:5C1FH         LINE#         745
  C:5C21H         LINE#         746
  C:5C23H         LINE#         751
  C:5C26H         LINE#         752
  C:5C26H         LINE#         754
  C:5C26H         LINE#         756
  C:5C26H         LINE#         757
  C:5C26H         LINE#         760
  C:5C2FH         LINE#         762
  -------         ENDPROC       _USERINTERFACEPOWERSWITCH
  -------         PROC          _SYSPOWERSWITCH
  X:0200H         SYMBOL        enumSwitch
  C:6875H         LINE#         769
  C:687AH         LINE#         770
  C:687AH         LINE#         773
BL51 BANKED LINKER/LOCATER V6.22.2.0                                                  05/20/2021  15:51:07  PAGE 58


  C:6898H         LINE#         774
  C:6898H         LINE#         775
  C:6898H         LINE#         779
  C:6898H         LINE#         780
  C:6898H         LINE#         781
  C:6898H         LINE#         782
  C:6898H         LINE#         783
  C:6898H         LINE#         784
  C:6898H         LINE#         789
  C:6898H         LINE#         790
  C:6898H         LINE#         791
  C:6898H         LINE#         792
  C:6898H         LINE#         793
  C:6898H         LINE#         794
  C:68A0H         LINE#         797
  C:68A0H         LINE#         799
  C:68A0H         LINE#         800
  C:68A0H         LINE#         801
  C:68A0H         LINE#         803
  -------         ENDPROC       _SYSPOWERSWITCH
  -------         ENDMOD        SYSPOWER

  -------         MODULE        SYSTIMER
  C:0000H         SYMBOL        _ICE_DUMMY_
  X:01A3H         PUBLIC        BATERY_STAT_TEMP
  D:00B2H         PUBLIC        P3M1
  X:01A4H         PUBLIC        BattDetectHighStop_COUNT
  C:6A58H         PUBLIC        _MCUTimerClrEventValid
  X:01A5H         PUBLIC        BattDetect1_COUNT
  X:01A6H         PUBLIC        STAT1_temp
  X:01A7H         PUBLIC        BattDetect2_COUNT
  X:01A8H         PUBLIC        STAT2_temp
  C:5F3AH         PUBLIC        SysTimerHandler
  X:01A9H         PUBLIC        BattDetect3_COUNT
  B:0021H.4       PUBLIC        g_bNotifyTimer0Int
  X:01AAH         PUBLIC        BattDetect4_COUNT
  X:01ABH         PUBLIC        BattDetect5_COUNT
  X:01ACH         PUBLIC        PWM_TEMP
  B:0080H.0       PUBLIC        P0_0
  X:01ADH         PUBLIC        TEMP_LOW_WARN_COUNT
  B:0080H.1       PUBLIC        P0_1
  B:00E8H.2       PUBLIC        P4_2
  C:69D8H         PUBLIC        _MCUTimerDelayXms
  B:00A0H.6       PUBLIC        P2_6
  B:00B0H.7       PUBLIC        P3_7
  X:01AEH         PUBLIC        g_usTimerCounter
  C:6A1BH         PUBLIC        _MCUTimerGetEventID
  C:6A44H         PUBLIC        _MCUTimerGetEventTime
  X:01B0H         PUBLIC        TEMP_HIGH_COUNT
  X:01B1H         PUBLIC        BattDetectStartUp_COUNT
  C:5A79H         PUBLIC        _MCUTimerReactiveTimerEvent
  X:01B2H         PUBLIC        BatteryVoltage
  X:01B4H         PUBLIC        g_stTimerEvent
  X:01F0H         PUBLIC        WDT_Echo_Count
  X:01F1H         PUBLIC        TEMP_HIGH_WARN_COUNT
  X:01F2H         PUBLIC        BatteryBTH
  C:65E9H         PUBLIC        _MCUTimerCancelTimerEvent
BL51 BANKED LINKER/LOCATER V6.22.2.0                                                  05/20/2021  15:51:07  PAGE 59


  C:003EH         PUBLIC        MCUTimerInitialTimerEvent
  C:6A8FH         PUBLIC        _MCUTimerCheckEventValid
  X:01F4H         PUBLIC        STAT1_Flag
  X:01F5H         PUBLIC        STAT2_Flag
  X:01F6H         PUBLIC        TEMP_NORMAL_COUNT
  X:01F7H         PUBLIC        TEMP_STAT
  C:599AH         PUBLIC        _MCUTimerActiveTimerEvent
  C:5536H         PUBLIC        _MCUTimerCheckTimerEvent
  X:01F8H         PUBLIC        BattDetectHigh_COUNT
  C:53DBH         PUBLIC        _UserInterfaceTimerEventProc
  C:0066H         PUBLIC        _SysTimerEventProc
  X:01F9H         PUBLIC        BATERY_STAT
  X:01FAH         PUBLIC        bytBatteryVoltageCheck
  X:01FBH         PUBLIC        BattDetectNoStartUp_COUNT
  X:01FCH         PUBLIC        CHARGE_TEMP_NORMAL
  X:01FDH         PUBLIC        CHARGE_TEMP_ABNORMAL
  X:01FEH         PUBLIC        TEMP_LOW_COUNT
  C:6445H         PUBLIC        MCUTimerGetTimerCounter
  X:01FFH         PUBLIC        BattDetectMin_COUNT
  C:69D4H         SYMBOL        L?0390
  -------         PROC          L?0389
  -------         ENDPROC       L?0389
  C:69D4H         SYMBOL        L?0390
  -------         PROC          _MCUTIMERDELAYXMS
  D:0006H         SYMBOL        usNum
  C:69D8H         LINE#         128
  C:69D8H         LINE#         129
  C:69D8H         LINE#         130
  C:69DCH         LINE#         131
  C:69DCH         LINE#         132
  C:69DEH         LINE#         134
  C:69DEH         LINE#         135
  C:69DEH         LINE#         136
  C:69E1H         LINE#         137
  C:69E1H         LINE#         138
  C:69E3H         LINE#         140
  C:69ECH         LINE#         141
  C:69ECH         LINE#         142
  C:69ECH         LINE#         144
  C:69ECH         LINE#         146
  C:69ECH         LINE#         147
  C:69ECH         LINE#         148
  C:69ECH         LINE#         149
  C:69ECH         LINE#         150
  -------         ENDPROC       _MCUTIMERDELAYXMS
  -------         PROC          _MCUTIMERGETEVENTTIME
  D:0007H         SYMBOL        ucEventIndex
  C:6A44H         LINE#         157
  C:6A44H         LINE#         158
  C:6A44H         LINE#         159
  C:6A57H         LINE#         160
  -------         ENDPROC       _MCUTIMERGETEVENTTIME
  -------         PROC          _MCUTIMERGETEVENTID
  D:0007H         SYMBOL        ucEventIndex
  C:6A1BH         LINE#         167
  C:6A1BH         LINE#         168
  C:6A1BH         LINE#         169
BL51 BANKED LINKER/LOCATER V6.22.2.0                                                  05/20/2021  15:51:07  PAGE 60


  C:6A2FH         LINE#         170
  -------         ENDPROC       _MCUTIMERGETEVENTID
  -------         PROC          _MCUTIMERCLREVENTVALID
  D:0007H         SYMBOL        ucEventIndex
  C:6A58H         LINE#         179
  C:6A58H         LINE#         180
  C:6A58H         LINE#         181
  C:6A6AH         LINE#         182
  -------         ENDPROC       _MCUTIMERCLREVENTVALID
  -------         PROC          _MCUTIMERCHECKEVENTVALID
  D:0007H         SYMBOL        ucEventIndex
  C:6A8FH         LINE#         189
  C:6A8FH         LINE#         190
  C:6A8FH         LINE#         191
  C:6A9FH         LINE#         192
  -------         ENDPROC       _MCUTIMERCHECKEVENTVALID
  -------         PROC          MCUTIMERGETTIMERCOUNTER
  -------         DO            
  X:0231H         SYMBOL        usPresentTime
  -------         ENDDO         
  C:6445H         LINE#         199
  C:6445H         LINE#         200
  C:6445H         LINE#         201
  C:6454H         LINE#         205
  C:6477H         LINE#         206
  C:6477H         LINE#         207
  C:6486H         LINE#         208
  C:6486H         LINE#         210
  C:648EH         LINE#         211
  -------         ENDPROC       MCUTIMERGETTIMERCOUNTER
  -------         PROC          _MCUTIMERCHECKTIMEREVENT
  X:022CH         SYMBOL        usTime
  -------         DO            
  X:022EH         SYMBOL        ucTimerEventCnt
  X:022FH         SYMBOL        usPresentTime
  -------         ENDDO         
  C:5536H         LINE#         217
  C:553EH         LINE#         218
  C:553EH         LINE#         219
  C:5541H         LINE#         220
  C:5545H         LINE#         222
  C:5550H         LINE#         224
  C:5567H         LINE#         225
  C:5567H         LINE#         226
  C:5571H         LINE#         227
  C:5571H         LINE#         229
  C:55B3H         LINE#         231
  C:55B3H         LINE#         232
  C:55BAH         LINE#         235
  C:55CFH         LINE#         236
  C:55CFH         LINE#         237
  C:55E4H         LINE#         238
  C:55E4H         LINE#         239
  C:560AH         LINE#         240
  C:560AH         LINE#         241
  C:5634H         LINE#         242
  C:5636H         LINE#         244
BL51 BANKED LINKER/LOCATER V6.22.2.0                                                  05/20/2021  15:51:07  PAGE 61


  C:5636H         LINE#         245
  C:564BH         LINE#         246
  C:564BH         LINE#         247
  C:564BH         LINE#         248
  C:5654H         LINE#         250
  C:565BH         LINE#         251
  C:565BH         LINE#         253
  C:5663H         LINE#         254
  -------         ENDPROC       _MCUTIMERCHECKTIMEREVENT
  -------         PROC          MCUTIMERINITIALTIMEREVENT
  -------         DO            
  D:0007H         SYMBOL        ucTimerEventCnt
  -------         ENDDO         
  C:003EH         LINE#         261
  C:003EH         LINE#         262
  C:003EH         LINE#         263
  C:0040H         LINE#         265
  C:004AH         LINE#         266
  C:004AH         LINE#         267
  C:005CH         LINE#         268
  C:005FH         LINE#         271
  -------         ENDPROC       MCUTIMERINITIALTIMEREVENT
  C:5996H         SYMBOL        L?0388
  -------         PROC          L?0387
  -------         ENDPROC       L?0387
  C:5996H         SYMBOL        L?0388
  -------         PROC          _MCUTIMERACTIVETIMEREVENT
  X:0228H         SYMBOL        usTime
  X:022AH         SYMBOL        ucEventID
  -------         DO            
  X:022BH         SYMBOL        ucEventIndex
  -------         ENDDO         
  C:599AH         LINE#         279
  C:59A5H         LINE#         280
  C:59A5H         LINE#         281
  C:59A8H         LINE#         284
  C:59B7H         LINE#         285
  C:59B7H         LINE#         286
  C:59CDH         LINE#         287
  C:59CDH         LINE#         288
  C:59DDH         LINE#         289
  C:59DDH         LINE#         291
  C:59DDH         LINE#         292
  C:59DDH         LINE#         293
  C:59E5H         LINE#         296
  C:59FBH         LINE#         297
  C:59FBH         LINE#         298
  C:5A0FH         LINE#         299
  C:5A0FH         LINE#         300
  C:5A25H         LINE#         301
  C:5A41H         LINE#         302
  C:5A6FH         LINE#         304
  C:5A6FH         LINE#         305
  C:5A78H         LINE#         308
  -------         ENDPROC       _MCUTIMERACTIVETIMEREVENT
  -------         PROC          _MCUTIMERCANCELTIMEREVENT
  D:0007H         SYMBOL        ucEventID
BL51 BANKED LINKER/LOCATER V6.22.2.0                                                  05/20/2021  15:51:07  PAGE 62


  -------         DO            
  D:0006H         SYMBOL        ucEventIndex
  -------         ENDDO         
  C:65E9H         LINE#         315
  C:65E9H         LINE#         316
  C:65E9H         LINE#         317
  C:65EBH         LINE#         320
  C:65F5H         LINE#         321
  C:65F5H         LINE#         322
  C:660BH         LINE#         323
  C:660BH         LINE#         324
  C:6613H         LINE#         325
  C:6613H         LINE#         326
  C:6626H         LINE#         328
  C:6626H         LINE#         329
  C:6626H         LINE#         330
  C:6629H         LINE#         331
  -------         ENDPROC       _MCUTIMERCANCELTIMEREVENT
  -------         PROC          _MCUTIMERREACTIVETIMEREVENT
  X:0201H         SYMBOL        usTime
  X:0203H         SYMBOL        ucEventID
  -------         DO            
  X:0204H         SYMBOL        ucEventIndex
  -------         ENDDO         
  C:5A79H         LINE#         340
  C:5A84H         LINE#         341
  C:5A84H         LINE#         342
  C:5A87H         LINE#         345
  C:5A96H         LINE#         346
  C:5A96H         LINE#         347
  C:5AACH         LINE#         348
  C:5AACH         LINE#         349
  C:5AB9H         LINE#         350
  C:5AB9H         LINE#         351
  C:5ABBH         LINE#         353
  C:5ABBH         LINE#         354
  C:5ABBH         LINE#         355
  C:5AC3H         LINE#         358
  C:5AD9H         LINE#         359
  C:5AD9H         LINE#         360
  C:5AEDH         LINE#         361
  C:5AEDH         LINE#         362
  C:5B03H         LINE#         363
  C:5B1FH         LINE#         364
  C:5B4DH         LINE#         366
  C:5B4DH         LINE#         367
  C:5B56H         LINE#         368
  -------         ENDPROC       _MCUTIMERREACTIVETIMEREVENT
  -------         PROC          _USERINTERFACETIMEREVENTPROC
  D:0007H         SYMBOL        ucEventID
  C:53DBH         LINE#         371
  C:53DBH         LINE#         372
  C:53DBH         LINE#         374
  C:5423H         LINE#         375
  C:5423H         LINE#         377
  C:5423H         LINE#         378
  C:5423H         LINE#         379
BL51 BANKED LINKER/LOCATER V6.22.2.0                                                  05/20/2021  15:51:07  PAGE 63


  C:5423H         LINE#         383
  C:5425H         LINE#         385
  C:5425H         LINE#         386
  C:5425H         LINE#         387
  C:5425H         LINE#         391
  C:5425H         LINE#         392
  C:542DH         LINE#         394
  C:5439H         LINE#         398
  C:5439H         LINE#         399
  C:5439H         LINE#         400
  C:543BH         LINE#         404
  C:543DH         LINE#         405
  C:543DH         LINE#         406
  C:543FH         LINE#         410
  C:5441H         LINE#         411
  C:5441H         LINE#         415
  C:5449H         LINE#         416
  C:5449H         LINE#         417
  C:5450H         LINE#         418
  C:5458H         LINE#         419
  C:5460H         LINE#         420
  C:5463H         LINE#         421
  C:5465H         LINE#         423
  C:5465H         LINE#         424
  C:546DH         LINE#         425
  C:5475H         LINE#         426
  C:547DH         LINE#         427
  C:5487H         LINE#         428
  C:5487H         LINE#         429
  C:5488H         LINE#         430
  C:5488H         LINE#         432
  C:5497H         LINE#         433
  C:5497H         LINE#         434
  C:549CH         LINE#         438
  C:549CH         LINE#         446
  C:549CH         LINE#         448
  C:549CH         LINE#         450
  C:54ABH         LINE#         451
  C:54ABH         LINE#         452
  C:54B3H         LINE#         453
  C:54B7H         LINE#         457
  C:54B7H         LINE#         458
  C:54B8H         LINE#         460
  C:54B8H         LINE#         461
  C:54C2H         LINE#         462
  C:54CCH         LINE#         463
  C:54D1H         LINE#         464
  C:54DBH         LINE#         465
  C:54E0H         LINE#         466
  C:54E6H         LINE#         467
  C:54EAH         LINE#         472
  C:54EBH         LINE#         474
  C:54EBH         LINE#         478
  C:54F8H         LINE#         479
  C:54F8H         LINE#         480
  C:54FCH         LINE#         481
  C:54FFH         LINE#         482
BL51 BANKED LINKER/LOCATER V6.22.2.0                                                  05/20/2021  15:51:07  PAGE 64


  C:5504H         LINE#         483
  C:550DH         LINE#         485
  C:5510H         LINE#         486
  C:5511H         LINE#         488
  C:5511H         LINE#         489
  C:5516H         LINE#         490
  C:5516H         LINE#         491
  C:5516H         LINE#         493
  C:5516H         LINE#         497
  C:551DH         LINE#         498
  C:5522H         LINE#         499
  C:552BH         LINE#         500
  C:552BH         LINE#         502
  C:552BH         LINE#         506
  C:552EH         LINE#         507
  C:552EH         LINE#         509
  C:552EH         LINE#         513
  C:552EH         LINE#         515
  C:552EH         LINE#         516
  C:5530H         LINE#         520
  C:5535H         LINE#         521
  C:5535H         LINE#         523
  C:5535H         LINE#         527
  C:5535H         LINE#         535
  C:5535H         LINE#         538
  C:5535H         LINE#         540
  -------         ENDPROC       _USERINTERFACETIMEREVENTPROC
  -------         PROC          SYSTIMERHANDLER
  -------         DO            
  X:0200H         SYMBOL        ucTimerEventIndex
  X:0201H         SYMBOL        ucTimerEventID
  X:0202H         SYMBOL        usPresentTime
  -------         ENDDO         
  C:5F3AH         LINE#         547
  C:5F3AH         LINE#         548
  C:5F3AH         LINE#         549
  C:5F3FH         LINE#         550
  C:5F41H         LINE#         551
  C:5F45H         LINE#         553
  C:5F56H         LINE#         554
  C:5F56H         LINE#         555
  C:5F61H         LINE#         557
  C:5F6BH         LINE#         558
  C:5F6BH         LINE#         559
  C:5F6BH         LINE#         560
  C:5F6BH         LINE#         562
  C:5F80H         LINE#         563
  C:5F80H         LINE#         564
  C:5F88H         LINE#         567
  C:5F95H         LINE#         569
  C:5F9EH         LINE#         570
  C:5F9EH         LINE#         571
  C:5FA3H         LINE#         573
  C:5FA5H         LINE#         574
  C:5FA5H         LINE#         576
  C:5FB3H         LINE#         577
  C:5FB3H         LINE#         578
BL51 BANKED LINKER/LOCATER V6.22.2.0                                                  05/20/2021  15:51:07  PAGE 65


  C:5FB6H         LINE#         580
  C:5FB6H         LINE#         581
  C:5FB6H         LINE#         584
  C:5FB6H         LINE#         585
  C:5FBEH         LINE#         587
  -------         ENDPROC       SYSTIMERHANDLER
  -------         PROC          _SYSTIMEREVENTPROC
  D:0007H         SYMBOL        enumEventID
  C:0066H         LINE#         594
  C:0066H         LINE#         595
  C:0066H         LINE#         597
  C:00E5H         LINE#         598
  C:00E5H         LINE#         599
  C:00E5H         LINE#         600
  C:00E7H         LINE#         601
  C:00E9H         LINE#         603
  C:00E9H         LINE#         604
  C:00EBH         LINE#         605
  C:00EDH         LINE#         607
  C:00EDH         LINE#         608
  C:00EFH         LINE#         609
  C:00F1H         LINE#         611
  C:00F1H         LINE#         612
  C:00F6H         LINE#         613
  C:00F6H         LINE#         615
  C:00F6H         LINE#         616
  C:00FBH         LINE#         617
  C:00FFH         LINE#         618
  C:0102H         LINE#         620
  C:0102H         LINE#         621
  C:0107H         LINE#         622
  C:0109H         LINE#         623
  C:010CH         LINE#         625
  C:010CH         LINE#         626
  C:0111H         LINE#         627
  C:0113H         LINE#         629
  C:0116H         LINE#         631
  C:0116H         LINE#         632
  C:011BH         LINE#         633
  C:011DH         LINE#         635
  C:0120H         LINE#         637
  C:0120H         LINE#         638
  C:0125H         LINE#         639
  C:0127H         LINE#         640
  C:012AH         LINE#         641
  C:012AH         LINE#         643
  C:012AH         LINE#         644
  C:012FH         LINE#         645
  C:0131H         LINE#         646
  C:0134H         LINE#         647
  C:0134H         LINE#         648
  C:0139H         LINE#         649
  C:013EH         LINE#         650
  C:0141H         LINE#         651
  C:0146H         LINE#         652
  C:0149H         LINE#         654
  C:014EH         LINE#         655
BL51 BANKED LINKER/LOCATER V6.22.2.0                                                  05/20/2021  15:51:07  PAGE 66


  C:0151H         LINE#         656
  C:0156H         LINE#         657
  C:0159H         LINE#         659
  C:015EH         LINE#         660
  C:0161H         LINE#         661
  C:0166H         LINE#         662
  C:0169H         LINE#         664
  C:0169H         LINE#         665
  C:016CH         LINE#         667
  C:016CH         LINE#         669
  C:0174H         LINE#         670
  C:0174H         LINE#         672
  C:0180H         LINE#         673
  C:0180H         LINE#         675
  C:0187H         LINE#         676
  C:0187H         LINE#         681
  C:018AH         LINE#         682
  C:018FH         LINE#         683
  C:018FH         LINE#         685
  C:0196H         LINE#         686
  C:0196H         LINE#         687
  C:0196H         LINE#         688
  C:0196H         LINE#         692
  C:0196H         LINE#         694
  C:0196H         LINE#         696
  C:0198H         LINE#         698
  C:0198H         LINE#         699
  C:01A4H         LINE#         700
  C:01A4H         LINE#         701
  C:01ABH         LINE#         702
  C:01ABH         LINE#         703
  C:01AEH         LINE#         704
  C:01B3H         LINE#         708
  C:01B3H         LINE#         710
  C:01BAH         LINE#         711
  C:01BAH         LINE#         715
  C:01BDH         LINE#         716
  C:01C2H         LINE#         717
  C:01C2H         LINE#         718
  C:01C2H         LINE#         719
  C:01C2H         LINE#         721
  C:01C4H         LINE#         722
  C:01C7H         LINE#         723
  C:01C7H         LINE#         725
  C:01CEH         LINE#         726
  C:01D3H         LINE#         728
  C:01D5H         LINE#         730
  C:01D8H         LINE#         731
  C:01D8H         LINE#         735
  C:01DFH         LINE#         736
  C:01E0H         LINE#         737
  C:01E0H         LINE#         740
  C:01EBH         LINE#         742
  C:01F6H         LINE#         745
  C:0206H         LINE#         746
  C:020FH         LINE#         747
  C:0221H         LINE#         748
BL51 BANKED LINKER/LOCATER V6.22.2.0                                                  05/20/2021  15:51:07  PAGE 67


  C:022AH         LINE#         749
  C:023CH         LINE#         750
  C:0245H         LINE#         751
  C:0257H         LINE#         752
  C:0260H         LINE#         753
  C:0272H         LINE#         754
  C:027AH         LINE#         755
  C:028CH         LINE#         756
  C:0294H         LINE#         757
  C:02A6H         LINE#         758
  C:02ADH         LINE#         759
  C:02C7H         LINE#         760
  C:02C9H         LINE#         761
  C:02E8H         LINE#         762
  C:02F0H         LINE#         764
  C:02F6H         LINE#         766
  C:0305H         LINE#         768
  C:0314H         LINE#         771
  C:032CH         LINE#         772
  C:0334H         LINE#         773
  C:0346H         LINE#         774
  C:034EH         LINE#         775
  C:0360H         LINE#         776
  C:0362H         LINE#         777
  C:0374H         LINE#         778
  C:037CH         LINE#         779
  C:038EH         LINE#         780
  C:0396H         LINE#         781
  C:0396H         LINE#         782
  C:039DH         LINE#         783
  C:03A2H         LINE#         784
  C:03A8H         LINE#         785
  C:03A8H         LINE#         787
  C:03B2H         LINE#         788
  C:03B8H         LINE#         790
  C:03C7H         LINE#         792
  C:03CFH         LINE#         793
  C:03D8H         LINE#         794
  C:03DAH         LINE#         796
  C:03E2H         LINE#         797
  C:03EEH         LINE#         798
  C:03F0H         LINE#         810
  C:03F1H         LINE#         812
  C:03F1H         LINE#         818
  C:03F8H         LINE#         820
  C:03FEH         LINE#         821
  C:0403H         LINE#         822
  C:0408H         LINE#         823
  C:040EH         LINE#         824
  C:0411H         LINE#         825
  C:0411H         LINE#         831
  C:0416H         LINE#         832
  C:041FH         LINE#         833
  C:0427H         LINE#         834
  C:0427H         LINE#         835
  C:042CH         LINE#         836
  C:0435H         LINE#         837
BL51 BANKED LINKER/LOCATER V6.22.2.0                                                  05/20/2021  15:51:07  PAGE 68


  C:0435H         LINE#         838
  C:043BH         LINE#         839
  C:043EH         LINE#         841
  C:043EH         LINE#         846
  C:044EH         LINE#         847
  C:0450H         LINE#         848
  C:045EH         LINE#         849
  C:0469H         LINE#         857
  C:0479H         LINE#         868
  C:0479H         LINE#         869
  C:0485H         LINE#         870
  C:0485H         LINE#         871
  C:048AH         LINE#         872
  C:048EH         LINE#         873
  C:0492H         LINE#         874
  C:0494H         LINE#         875
  C:0496H         LINE#         876
  C:049AH         LINE#         877
  C:049EH         LINE#         878
  C:04A2H         LINE#         879
  C:04A6H         LINE#         880
  C:04AAH         LINE#         881
  C:04AAH         LINE#         885
  C:04B3H         LINE#         886
  C:04B3H         LINE#         887
  C:04B8H         LINE#         888
  C:04BCH         LINE#         889
  C:04C0H         LINE#         890
  C:04C2H         LINE#         891
  C:04C4H         LINE#         892
  C:04CAH         LINE#         893
  C:04CBH         LINE#         894
  C:04CBH         LINE#         895
  C:04CBH         LINE#         896
  C:04CEH         LINE#         897
  C:04E7H         LINE#         898
  C:04E7H         LINE#         900
  C:04ECH         LINE#         901
  C:04F0H         LINE#         902
  C:04F4H         LINE#         903
  C:04F6H         LINE#         904
  C:04F8H         LINE#         905
  C:04FCH         LINE#         906
  C:0500H         LINE#         907
  C:0504H         LINE#         908
  C:050AH         LINE#         909
  C:050DH         LINE#         910
  C:0526H         LINE#         911
  C:0526H         LINE#         913
  C:052CH         LINE#         914
  C:0531H         LINE#         915
  C:0535H         LINE#         916
  C:0537H         LINE#         917
  C:0539H         LINE#         918
  C:053DH         LINE#         919
  C:053DH         LINE#         920
  C:053DH         LINE#         921
BL51 BANKED LINKER/LOCATER V6.22.2.0                                                  05/20/2021  15:51:07  PAGE 69


  C:053DH         LINE#         922
  C:053FH         LINE#         923
  C:0551H         LINE#         924
  C:0551H         LINE#         926
  C:0556H         LINE#         927
  C:055CH         LINE#         928
  C:0561H         LINE#         929
  C:0563H         LINE#         930
  C:0565H         LINE#         931
  C:0569H         LINE#         932
  C:056CH         LINE#         933
  C:056CH         LINE#         935
  C:056FH         LINE#         936
  C:0581H         LINE#         937
  C:0581H         LINE#         939
  C:0586H         LINE#         940
  C:058AH         LINE#         941
  C:0590H         LINE#         942
  C:0593H         LINE#         943
  C:0595H         LINE#         944
  C:0599H         LINE#         945
  C:059DH         LINE#         946
  C:05A0H         LINE#         947
  C:05A0H         LINE#         949
  C:05A3H         LINE#         950
  C:05B5H         LINE#         951
  C:05B5H         LINE#         953
  C:05BAH         LINE#         954
  C:05BEH         LINE#         955
  C:05C2H         LINE#         956
  C:05C6H         LINE#         957
  C:05C9H         LINE#         958
  C:05CDH         LINE#         959
  C:05D1H         LINE#         960
  C:05D4H         LINE#         961
  C:05D4H         LINE#         963
  C:05D7H         LINE#         964
  C:05E9H         LINE#         965
  C:05E9H         LINE#         967
  C:05EEH         LINE#         968
  C:05F2H         LINE#         969
  C:05F6H         LINE#         970
  C:05F8H         LINE#         971
  C:05FCH         LINE#         972
  C:0601H         LINE#         973
  C:0605H         LINE#         974
  C:0608H         LINE#         975
  C:0608H         LINE#         978
  C:060AH         LINE#         979
  C:0624H         LINE#         980
  C:0624H         LINE#         981
  C:0628H         LINE#         982
  C:062CH         LINE#         983
  C:0630H         LINE#         984
  C:0632H         LINE#         985
  C:0634H         LINE#         986
  C:0638H         LINE#         987
BL51 BANKED LINKER/LOCATER V6.22.2.0                                                  05/20/2021  15:51:07  PAGE 70


  C:063EH         LINE#         988
  C:0642H         LINE#         989
  C:0642H         LINE#         991
  C:0644H         LINE#         992
  C:0663H         LINE#         993
  C:0663H         LINE#         994
  C:0667H         LINE#         995
  C:066BH         LINE#         996
  C:066FH         LINE#         997
  C:0671H         LINE#         998
  C:0673H         LINE#         999
  C:0677H         LINE#         1000
  C:067DH         LINE#         1001
  C:0682H         LINE#         1002
  C:0682H         LINE#         1004
  C:0684H         LINE#         1006
  C:0684H         LINE#         1007
  C:0689H         LINE#         1008
  C:068DH         LINE#         1009
  C:0691H         LINE#         1010
  C:0693H         LINE#         1011
  C:0695H         LINE#         1012
  C:0699H         LINE#         1013
  C:069DH         LINE#         1014
  C:06A3H         LINE#         1015
  C:06A8H         LINE#         1016
  C:06A8H         LINE#         1018
  C:06B7H         LINE#         1019
  C:06BFH         LINE#         1021
  C:06C4H         LINE#         1023
  C:06CCH         LINE#         1024
  C:06CCH         LINE#         1025
  C:06D2H         LINE#         1026
  C:06D7H         LINE#         1027
  C:06D7H         LINE#         1028
  C:06DFH         LINE#         1029
  C:06DFH         LINE#         1030
  C:06E5H         LINE#         1031
  C:06EAH         LINE#         1032
  C:06EAH         LINE#         1033
  C:06F2H         LINE#         1034
  C:06F2H         LINE#         1035
  C:06F8H         LINE#         1036
  C:06FDH         LINE#         1037
  C:06FDH         LINE#         1038
  C:0705H         LINE#         1039
  C:0705H         LINE#         1040
  C:070AH         LINE#         1041
  C:070FH         LINE#         1042
  C:070FH         LINE#         1043
  C:0717H         LINE#         1044
  C:0717H         LINE#         1045
  C:071BH         LINE#         1046
  C:071FH         LINE#         1047
  C:071FH         LINE#         1049
  C:0727H         LINE#         1050
  C:0727H         LINE#         1051
BL51 BANKED LINKER/LOCATER V6.22.2.0                                                  05/20/2021  15:51:07  PAGE 71


  C:072DH         LINE#         1052
  C:0732H         LINE#         1053
  C:0732H         LINE#         1055
  C:073AH         LINE#         1056
  C:073AH         LINE#         1057
  C:073EH         LINE#         1058
  C:0743H         LINE#         1059
  C:0743H         LINE#         1061
  C:074BH         LINE#         1062
  C:074BH         LINE#         1063
  C:0751H         LINE#         1064
  C:0756H         LINE#         1065
  C:0756H         LINE#         1067
  C:075EH         LINE#         1068
  C:075EH         LINE#         1069
  C:0762H         LINE#         1070
  C:0767H         LINE#         1071
  C:0767H         LINE#         1073
  C:076FH         LINE#         1074
  C:076FH         LINE#         1075
  C:0775H         LINE#         1076
  C:077AH         LINE#         1077
  C:077AH         LINE#         1079
  C:0786H         LINE#         1080
  C:0786H         LINE#         1081
  C:0788H         LINE#         1082
  C:0791H         LINE#         1083
  C:0791H         LINE#         1085
  C:07B1H         LINE#         1087
  C:07B1H         LINE#         1088
  C:07B6H         LINE#         1090
  C:07C1H         LINE#         1091
  C:07C8H         LINE#         1097
  C:07D1H         LINE#         1098
  C:07D1H         LINE#         1100
  C:07D9H         LINE#         1101
  C:07D9H         LINE#         1102
  C:07E5H         LINE#         1103
  C:07E5H         LINE#         1107
  C:07E9H         LINE#         1108
  C:07F2H         LINE#         1110
  C:07FCH         LINE#         1111
  C:0804H         LINE#         1112
  C:0804H         LINE#         1114
  C:0809H         LINE#         1115
  C:0809H         LINE#         1117
  C:0818H         LINE#         1118
  C:0818H         LINE#         1123
  C:0826H         LINE#         1124
  C:082FH         LINE#         1126
  C:0835H         LINE#         1163
  C:0838H         LINE#         1165
  C:0838H         LINE#         1170
  C:0843H         LINE#         1171
  C:0843H         LINE#         1172
  C:084BH         LINE#         1179
  C:084CH         LINE#         1188
BL51 BANKED LINKER/LOCATER V6.22.2.0                                                  05/20/2021  15:51:07  PAGE 72


  C:0854H         LINE#         1189
  C:085CH         LINE#         1192
  C:085CH         LINE#         1193
  C:0867H         LINE#         1194
  C:0867H         LINE#         1195
  C:087BH         LINE#         1196
  C:087BH         LINE#         1197
  C:0881H         LINE#         1198
  C:0889H         LINE#         1199
  C:0889H         LINE#         1201
  C:0889H         LINE#         1205
  C:088FH         LINE#         1206
  C:088FH         LINE#         1212
  C:0892H         LINE#         1214
  C:0898H         LINE#         1216
  C:0898H         LINE#         1218
  C:089BH         LINE#         1219
  C:089BH         LINE#         1220
  C:08A6H         LINE#         1221
  C:08ABH         LINE#         1222
  C:08AEH         LINE#         1223
  C:08AEH         LINE#         1227
  C:08B9H         LINE#         1239
  C:08CCH         LINE#         1240
  C:08CCH         LINE#         1241
  C:08D1H         LINE#         1242
  C:08D5H         LINE#         1243
  C:08D9H         LINE#         1244
  C:08DFH         LINE#         1245
  C:08E0H         LINE#         1246
  C:08E3H         LINE#         1247
  C:08FCH         LINE#         1248
  C:08FCH         LINE#         1249
  C:0901H         LINE#         1250
  C:0905H         LINE#         1251
  C:0909H         LINE#         1252
  C:090DH         LINE#         1253
  C:0913H         LINE#         1254
  C:0916H         LINE#         1255
  C:0928H         LINE#         1256
  C:0928H         LINE#         1257
  C:092EH         LINE#         1258
  C:0933H         LINE#         1259
  C:0937H         LINE#         1260
  C:093BH         LINE#         1261
  C:093BH         LINE#         1262
  C:093DH         LINE#         1263
  C:094FH         LINE#         1264
  C:094FH         LINE#         1265
  C:0954H         LINE#         1266
  C:0958H         LINE#         1267
  C:095EH         LINE#         1268
  C:0963H         LINE#         1269
  C:0963H         LINE#         1271
  C:0965H         LINE#         1272
  C:0977H         LINE#         1273
  C:0977H         LINE#         1274
BL51 BANKED LINKER/LOCATER V6.22.2.0                                                  05/20/2021  15:51:07  PAGE 73


  C:097CH         LINE#         1275
  C:0982H         LINE#         1276
  C:0987H         LINE#         1277
  C:098BH         LINE#         1278
  C:098BH         LINE#         1279
  C:098DH         LINE#         1281
  C:098DH         LINE#         1284
  C:0994H         LINE#         1285
  C:0999H         LINE#         1287
  C:099FH         LINE#         1288
  C:09A4H         LINE#         1289
  C:09A8H         LINE#         1290
  C:09ACH         LINE#         1291
  C:09B0H         LINE#         1292
  C:09B4H         LINE#         1293
  C:09B4H         LINE#         1295
  C:0A0AH         LINE#         1297
  C:0A10H         LINE#         1300
  C:0A18H         LINE#         1301
  C:0A18H         LINE#         1302
  C:0A1EH         LINE#         1303
  C:0A23H         LINE#         1304
  C:0A2AH         LINE#         1305
  C:0A2DH         LINE#         1306
  C:0A34H         LINE#         1307
  C:0A34H         LINE#         1309
  C:0A3CH         LINE#         1310
  C:0A3CH         LINE#         1311
  C:0A42H         LINE#         1312
  C:0A47H         LINE#         1313
  C:0A4EH         LINE#         1314
  C:0A51H         LINE#         1315
  C:0A58H         LINE#         1316
  C:0A58H         LINE#         1318
  C:0A60H         LINE#         1319
  C:0A60H         LINE#         1320
  C:0A64H         LINE#         1321
  C:0A69H         LINE#         1322
  C:0A70H         LINE#         1323
  C:0A73H         LINE#         1324
  C:0A7AH         LINE#         1325
  C:0A7AH         LINE#         1327
  C:0A82H         LINE#         1328
  C:0A82H         LINE#         1329
  C:0A88H         LINE#         1330
  C:0A8DH         LINE#         1331
  C:0A94H         LINE#         1332
  C:0A97H         LINE#         1333
  C:0A9EH         LINE#         1334
  C:0A9EH         LINE#         1336
  C:0AA6H         LINE#         1337
  C:0AA6H         LINE#         1338
  C:0AACH         LINE#         1339
  C:0AB1H         LINE#         1340
  C:0AB8H         LINE#         1341
  C:0ABBH         LINE#         1342
  C:0AC2H         LINE#         1343
BL51 BANKED LINKER/LOCATER V6.22.2.0                                                  05/20/2021  15:51:07  PAGE 74


  C:0AC2H         LINE#         1353
  C:0AD1H         LINE#         1356
  C:0AEAH         LINE#         1357
  C:0AEAH         LINE#         1358
  C:0AF0H         LINE#         1359
  C:0AF5H         LINE#         1360
  C:0AF7H         LINE#         1362
  C:0AF7H         LINE#         1363
  C:0AFCH         LINE#         1364
  C:0B02H         LINE#         1366
  C:0B02H         LINE#         1368
  C:0B0AH         LINE#         1369
  C:0B0AH         LINE#         1370
  C:0B0BH         LINE#         1371
  C:0B20H         LINE#         1372
  C:0B27H         LINE#         1376
  C:0B29H         LINE#         1377
  C:0B31H         LINE#         1378
  C:0B31H         LINE#         1379
  C:0B32H         LINE#         1380
  C:0B39H         LINE#         1381
  C:0B39H         LINE#         1413
  C:0B41H         LINE#         1414
  C:0B47H         LINE#         1416
  C:0B4BH         LINE#         1417
  C:0B4EH         LINE#         1419
  C:0B4EH         LINE#         1422
  C:0B5BH         LINE#         1423
  C:0B5BH         LINE#         1427
  C:0B5FH         LINE#         1428
  C:0B62H         LINE#         1429
  C:0B68H         LINE#         1430
  C:0B68H         LINE#         1431
  C:0B6BH         LINE#         1433
  C:0B6BH         LINE#         1449
  C:0B76H         LINE#         1450
  C:0B76H         LINE#         1451
  C:0B83H         LINE#         1452
  C:0B83H         LINE#         1453
  C:0B87H         LINE#         1455
  C:0B89H         LINE#         1460
  C:0B91H         LINE#         1461
  C:0B9AH         LINE#         1462
  C:0B9CH         LINE#         1464
  C:0BA4H         LINE#         1465
  C:0BADH         LINE#         1466
  C:0BAFH         LINE#         1468
  C:0BB7H         LINE#         1469
  C:0BB7H         LINE#         1470
  C:0BBCH         LINE#         1471
  C:0BC0H         LINE#         1472
  C:0BC9H         LINE#         1473
  C:0BC9H         LINE#         1475
  C:0BC9H         LINE#         1477
  C:0BD4H         LINE#         1478
  C:0BD4H         LINE#         1479
  C:0BD6H         LINE#         1480
BL51 BANKED LINKER/LOCATER V6.22.2.0                                                  05/20/2021  15:51:07  PAGE 75


  C:0BD9H         LINE#         1482
  C:0BD9H         LINE#         1484
  C:0BE3H         LINE#         1485
  C:0BE3H         LINE#         1487
  C:0C06H         LINE#         1488
  C:0C06H         LINE#         1489
  C:0C11H         LINE#         1490
  C:0C15H         LINE#         1492
  C:0C17H         LINE#         1493
  C:0C1AH         LINE#         1494
  C:0C24H         LINE#         1495
  C:0C27H         LINE#         1499
  C:0C31H         LINE#         1500
  C:0C31H         LINE#         1502
  C:0C54H         LINE#         1503
  C:0C54H         LINE#         1504
  C:0C5FH         LINE#         1505
  C:0C63H         LINE#         1507
  C:0C65H         LINE#         1508
  C:0C67H         LINE#         1509
  C:0C71H         LINE#         1510
  C:0C73H         LINE#         1512
  C:0C73H         LINE#         1513
  C:0C75H         LINE#         1514
  C:0C7FH         LINE#         1515
  C:0C7FH         LINE#         1517
  C:0CA2H         LINE#         1518
  C:0CA2H         LINE#         1519
  C:0CADH         LINE#         1520
  C:0CB1H         LINE#         1522
  C:0CB3H         LINE#         1523
  C:0CB5H         LINE#         1524
  C:0CBFH         LINE#         1525
  C:0CC6H         LINE#         1527
  C:0CCFH         LINE#         1528
  C:0CCFH         LINE#         1531
  C:0CCFH         LINE#         1533
  C:0CD5H         LINE#         1536
  C:0CD7H         LINE#         1538
  C:0CD7H         LINE#         1539
  C:0CDEH         LINE#         1540
  C:0CE0H         LINE#         1541
  C:0CE3H         LINE#         1542
  C:0CE8H         LINE#         1543
  C:0CF8H         LINE#         1544
  C:0CFDH         LINE#         1545
  C:0D06H         LINE#         1546
  C:0D0FH         LINE#         1547
  C:0D0FH         LINE#         1549
  C:0D11H         LINE#         1551
  C:0D12H         LINE#         1553
  C:0D12H         LINE#         1555
  C:0D45H         LINE#         1557
  C:0D45H         LINE#         1558
  C:0D4BH         LINE#         1559
  C:0D55H         LINE#         1560
  C:0D5DH         LINE#         1565
BL51 BANKED LINKER/LOCATER V6.22.2.0                                                  05/20/2021  15:51:07  PAGE 76


  C:0D66H         LINE#         1566
  C:0D66H         LINE#         1569
  C:0D67H         LINE#         1571
  C:0D67H         LINE#         1573
  C:0D6FH         LINE#         1574
  C:0D77H         LINE#         1583
  C:0D8EH         LINE#         1584
  C:0D8EH         LINE#         1585
  C:0D93H         LINE#         1586
  C:0D9CH         LINE#         1587
  C:0D9CH         LINE#         1589
  C:0DB3H         LINE#         1590
  C:0DB3H         LINE#         1591
  C:0DB8H         LINE#         1592
  C:0DC1H         LINE#         1593
  C:0DC1H         LINE#         1626
  C:0DC9H         LINE#         1627
  C:0DC9H         LINE#         1628
  C:0DD7H         LINE#         1629
  C:0DD7H         LINE#         1633
  C:0DDEH         LINE#         1634
  C:0DE1H         LINE#         1635
  C:0DE1H         LINE#         1637
  C:0DE1H         LINE#         1639
  C:0E07H         LINE#         1640
  C:0E07H         LINE#         1642
  C:0E07H         LINE#         1644
  C:0E14H         LINE#         1645
  C:0E14H         LINE#         1649
  C:0E18H         LINE#         1650
  C:0E18H         LINE#         1659
  C:0E24H         LINE#         1660
  C:0E24H         LINE#         1664
  C:0E28H         LINE#         1665
  C:0E31H         LINE#         1666
  C:0E3BH         LINE#         1667
  C:0E43H         LINE#         1668
  C:0E43H         LINE#         1669
  C:0E4AH         LINE#         1697
  C:0E4DH         LINE#         1698
  C:0E4DH         LINE#         1699
  C:0E4DH         LINE#         1700
  C:0E6CH         LINE#         1701
  C:0E6CH         LINE#         1702
  C:0E71H         LINE#         1704
  C:0E7BH         LINE#         1705
  C:0E83H         LINE#         1710
  C:0E86H         LINE#         1711
  C:0E88H         LINE#         1712
  C:0EA4H         LINE#         1713
  C:0EA4H         LINE#         1714
  C:0EA6H         LINE#         1715
  C:0EADH         LINE#         1717
  C:0EB9H         LINE#         1718
  C:0EBDH         LINE#         1719
  C:0EBDH         LINE#         1721
  C:0EC8H         LINE#         1722
BL51 BANKED LINKER/LOCATER V6.22.2.0                                                  05/20/2021  15:51:07  PAGE 77


  C:0EC8H         LINE#         1723
  C:0ED0H         LINE#         1727
  C:0ED0H         LINE#         1729
  C:0ED7H         LINE#         1730
  C:0EDCH         LINE#         1731
  C:0EDEH         LINE#         1733
  C:0EDEH         LINE#         1734
  C:0EE5H         LINE#         1736
  C:0EF0H         LINE#         1737
  C:0EF0H         LINE#         1738
  C:0EF8H         LINE#         1742
  C:0EF8H         LINE#         1743
  C:0EFAH         LINE#         1744
  C:0EFAH         LINE#         1745
  C:0EFAH         LINE#         1746
  C:0EFAH         LINE#         1747
  C:0EFAH         LINE#         1748
  C:0EFAH         LINE#         1750
  C:0F01H         LINE#         1761
  C:0F08H         LINE#         1762
  C:0F08H         LINE#         1767
  C:0F08H         LINE#         1827
  C:0F0EH         LINE#         1828
  C:0F11H         LINE#         1829
  C:0F11H         LINE#         1843
  C:0F19H         LINE#         1844
  C:0F19H         LINE#         1846
  C:0F27H         LINE#         1847
  C:0F27H         LINE#         1848
  C:0F2FH         LINE#         1849
  C:0F2FH         LINE#         1851
  C:0F38H         LINE#         1852
  C:0F3EH         LINE#         1853
  C:0F40H         LINE#         1855
  C:0F40H         LINE#         1856
  C:0F43H         LINE#         1857
  C:0F43H         LINE#         1861
  C:0F45H         LINE#         1862
  C:0F45H         LINE#         1867
  C:0F4AH         LINE#         1870
  C:0F53H         LINE#         1871
  C:0F53H         LINE#         1873
  C:0F55H         LINE#         1875
  C:0F56H         LINE#         1877
  C:0F56H         LINE#         1878
  C:0F63H         LINE#         1879
  C:0F65H         LINE#         1880
  C:0F67H         LINE#         1882
  C:0F67H         LINE#         1883
  C:0F71H         LINE#         1884
  C:0F73H         LINE#         1885
  C:0F75H         LINE#         1886
  C:0F75H         LINE#         1887
  C:0F7FH         LINE#         1888
  C:0F81H         LINE#         1889
  C:0F83H         LINE#         1891
  C:0F83H         LINE#         1892
BL51 BANKED LINKER/LOCATER V6.22.2.0                                                  05/20/2021  15:51:07  PAGE 78


  C:0F8DH         LINE#         1893
  C:0F8FH         LINE#         1894
  C:0F91H         LINE#         1897
  C:0F91H         LINE#         1898
  C:0F9BH         LINE#         1899
  C:0FA0H         LINE#         1900
  C:0FA0H         LINE#         1903
  C:0FA0H         LINE#         1905
  C:0FA7H         LINE#         1907
  C:0FACH         LINE#         1908
  C:0FACH         LINE#         1909
  C:0FADH         LINE#         1910
  C:0FB3H         LINE#         1911
  C:0FB3H         LINE#         1913
  C:0FBBH         LINE#         1914
  C:0FBBH         LINE#         1915
  C:0FBCH         LINE#         1916
  C:0FC2H         LINE#         1917
  C:0FC2H         LINE#         1919
  C:0FCAH         LINE#         1920
  C:0FCAH         LINE#         1921
  C:0FCBH         LINE#         1922
  C:0FD1H         LINE#         1923
  C:0FD1H         LINE#         1925
  C:0FD4H         LINE#         1927
  C:0FDDH         LINE#         1928
  C:0FDDH         LINE#         1930
  C:0FDDH         LINE#         1932
  C:0FE3H         LINE#         1934
  C:0FE3H         LINE#         1936
  C:0FE3H         LINE#         1937
  C:0FE3H         LINE#         1938
  C:0FE3H         LINE#         1939
  -------         ENDPROC       _SYSTIMEREVENTPROC
  -------         ENDMOD        SYSTIMER

  -------         MODULE        ?C?FPADD
  C:0FEBH         PUBLIC        ?C?FPADD
  C:0FE7H         PUBLIC        ?C?FPSUB
  -------         ENDMOD        ?C?FPADD

  -------         MODULE        ?C?FPMUL
  C:10DCH         PUBLIC        ?C?FPMUL
  -------         ENDMOD        ?C?FPMUL

  -------         MODULE        ?C?FPDIV
  C:11E5H         PUBLIC        ?C?FPDIV
  -------         ENDMOD        ?C?FPDIV

  -------         MODULE        ?C?FPCMP
  C:1284H         PUBLIC        ?C?FPCMP
  C:1282H         PUBLIC        ?C?FPCMP3
  -------         ENDMOD        ?C?FPCMP

  -------         MODULE        ?C?FCAST
  C:1305H         PUBLIC        ?C?FCASTC
  C:1300H         PUBLIC        ?C?FCASTI
BL51 BANKED LINKER/LOCATER V6.22.2.0                                                  05/20/2021  15:51:07  PAGE 79


  C:12FBH         PUBLIC        ?C?FCASTL
  -------         ENDMOD        ?C?FCAST

  -------         MODULE        ?C?CASTF
  C:1339H         PUBLIC        ?C?CASTF
  -------         ENDMOD        ?C?CASTF

  -------         MODULE        ?C?COPY
  C:148AH         PUBLIC        ?C?COPY
  -------         ENDMOD        ?C?COPY

  -------         MODULE        ?C?CLDPTR
  C:14B0H         PUBLIC        ?C?CLDPTR
  -------         ENDMOD        ?C?CLDPTR

  -------         MODULE        ?C?CLDOPTR
  C:14C9H         PUBLIC        ?C?CLDOPTR
  -------         ENDMOD        ?C?CLDOPTR

  -------         MODULE        ?C?CILDPTR
  C:14F6H         PUBLIC        ?C?CILDPTR
  -------         ENDMOD        ?C?CILDPTR

  -------         MODULE        ?C?CSTOPTR
  C:1518H         PUBLIC        ?C?CSTOPTR
  -------         ENDMOD        ?C?CSTOPTR

  -------         MODULE        ?C?IMUL
  C:153AH         PUBLIC        ?C?IMUL
  -------         ENDMOD        ?C?IMUL

  -------         MODULE        ?C?UIDIV
  C:154CH         PUBLIC        ?C?UIDIV
  -------         ENDMOD        ?C?UIDIV

  -------         MODULE        ?C?SIDIV
  C:15A1H         PUBLIC        ?C?SIDIV
  -------         ENDMOD        ?C?SIDIV

  -------         MODULE        ?C?IILDX
  C:15D7H         PUBLIC        ?C?IILDX
  -------         ENDMOD        ?C?IILDX

  -------         MODULE        ?C?ILDIX
  C:15EDH         PUBLIC        ?C?ILDIX
  -------         ENDMOD        ?C?ILDIX

  -------         MODULE        ?C?ILDPTR
  C:1603H         PUBLIC        ?C?ILDPTR
  -------         ENDMOD        ?C?ILDPTR

  -------         MODULE        ?C?ILDOPTR
  C:162EH         PUBLIC        ?C?ILDOPTR
  -------         ENDMOD        ?C?ILDOPTR

  -------         MODULE        ?C?ISTPTR
  C:1666H         PUBLIC        ?C?ISTPTR
BL51 BANKED LINKER/LOCATER V6.22.2.0                                                  05/20/2021  15:51:07  PAGE 80


  -------         ENDMOD        ?C?ISTPTR

  -------         MODULE        ?C?LMUL
  C:1685H         PUBLIC        ?C?LMUL
  -------         ENDMOD        ?C?LMUL

  -------         MODULE        ?C?ULDIV
  C:1710H         PUBLIC        ?C?ULDIV
  -------         ENDMOD        ?C?ULDIV

  -------         MODULE        ?C?SLDIV
  C:6563H         PUBLIC        ?C?SLDIV
  -------         ENDMOD        ?C?SLDIV

  -------         MODULE        ?C?LNEG
  C:17A2H         PUBLIC        ?C?LNEG
  -------         ENDMOD        ?C?LNEG

  -------         MODULE        ?C?SLCMP
  C:17B0H         PUBLIC        ?C?SLCMP
  -------         ENDMOD        ?C?SLCMP

  -------         MODULE        ?C?ULCMP
  C:17C6H         PUBLIC        ?C?ULCMP
  -------         ENDMOD        ?C?ULCMP

  -------         MODULE        ?C?ULSHR
  C:17D7H         PUBLIC        ?C?ULSHR
  -------         ENDMOD        ?C?ULSHR

  -------         MODULE        ?C?SLSHR
  C:17EAH         PUBLIC        ?C?SLSHR
  -------         ENDMOD        ?C?SLSHR

  -------         MODULE        ?C?LSHL
  C:17FEH         PUBLIC        ?C?LSHL
  -------         ENDMOD        ?C?LSHL

  -------         MODULE        ?C?LLDPTR
  C:1811H         PUBLIC        ?C?LLDPTR
  -------         ENDMOD        ?C?LLDPTR

  -------         MODULE        ?C?LSTXDATA
  C:1831H         PUBLIC        ?C?LSTXDATA
  -------         ENDMOD        ?C?LSTXDATA

  -------         MODULE        ?C?LSTKXDATA
  C:183DH         PUBLIC        ?C?LSTKXDATA
  -------         ENDMOD        ?C?LSTKXDATA

  -------         MODULE        ?C?PLDPTR
  C:186EH         PUBLIC        ?C?PLDPTR
  -------         ENDMOD        ?C?PLDPTR

  -------         MODULE        ?C?CCASE
  C:188EH         PUBLIC        ?C?CCASE
  -------         ENDMOD        ?C?CCASE
BL51 BANKED LINKER/LOCATER V6.22.2.0                                                  05/20/2021  15:51:07  PAGE 81



  -------         MODULE        ABS
  C:6AAFH         PUBLIC        _ABS
  -------         ENDMOD        ABS

  -------         MODULE        ?C?LLDIDATA
  C:18B4H         PUBLIC        ?C?LLDIDATA
  -------         ENDMOD        ?C?LLDIDATA

  -------         MODULE        ?C?LLDXDATA
  C:18C0H         PUBLIC        ?C?LLDXDATA
  -------         ENDMOD        ?C?LLDXDATA

  -------         MODULE        ?C?LLDPDATA
  C:18CCH         PUBLIC        ?C?LLDPDATA
  -------         ENDMOD        ?C?LLDPDATA

  -------         MODULE        ?C?LLDCODE
  C:18D8H         PUBLIC        ?C?LLDCODE
  -------         ENDMOD        ?C?LLDCODE

  -------         MODULE        ?C?PLDIDATA
  C:18E8H         PUBLIC        ?C?PLDIDATA
  -------         ENDMOD        ?C?PLDIDATA

  -------         MODULE        ?C?PLDXDATA
  C:18F1H         PUBLIC        ?C?PLDXDATA
  -------         ENDMOD        ?C?PLDXDATA

  -------         MODULE        ?C?PLDPDATA
  C:18FAH         PUBLIC        ?C?PLDPDATA
  -------         ENDMOD        ?C?PLDPDATA

  -------         MODULE        ?C?PLDCODE
  C:1903H         PUBLIC        ?C?PLDCODE
  -------         ENDMOD        ?C?PLDCODE

Program Size: data=109.5 xdata=710 code=27335
LINK/LOCATE RUN COMPLETE.  0 WARNING(S),  0 ERROR(S)
